
kernel7.elf:     file format elf32-littlearm


Disassembly of section .text:

00008000 <__start>:
    8000:	e59ff018 	ldr	pc, [pc, #24]	; 8020 <reset_addr>
    8004:	e59ff018 	ldr	pc, [pc, #24]	; 8024 <undefined_instruction_addr>
    8008:	e59ff018 	ldr	pc, [pc, #24]	; 8028 <software_interrupt_addr>
    800c:	e59ff018 	ldr	pc, [pc, #24]	; 802c <prefetch_abort_addr>
    8010:	e59ff018 	ldr	pc, [pc, #24]	; 8030 <data_abort_addr>
    8014:	e59ff018 	ldr	pc, [pc, #24]	; 8034 <unused_handler_addr>
    8018:	e59ff018 	ldr	pc, [pc, #24]	; 8038 <interrupt_addr>
    801c:	e59ff018 	ldr	pc, [pc, #24]	; 803c <fast_interrupt_addr>

00008020 <reset_addr>:
    8020:	00008040 	andeq	r8, r0, r0, asr #32

00008024 <undefined_instruction_addr>:
    8024:	000094a0 	andeq	r9, r0, r0, lsr #9

00008028 <software_interrupt_addr>:
    8028:	00009630 	andeq	r9, r0, r0, lsr r6

0000802c <prefetch_abort_addr>:
    802c:	00009488 	andeq	r9, r0, r8, lsl #9

00008030 <data_abort_addr>:
    8030:	00009488 	andeq	r9, r0, r8, lsl #9

00008034 <unused_handler_addr>:
    8034:	000094a0 	andeq	r9, r0, r0, lsr #9

00008038 <interrupt_addr>:
    8038:	000094b8 			; <UNDEFINED> instruction: 0x000094b8

0000803c <fast_interrupt_addr>:
    803c:	00009470 	andeq	r9, r0, r0, ror r4

00008040 <reset>:
    8040:	ee103fb0 	mrc	15, 0, r3, cr0, cr0, {5}
    8044:	e2133003 	ands	r3, r3, #3
    8048:	1a000023 	bne	80dc <wait_forever>
    804c:	f10c00c0 	cpsid	if
    8050:	e10f3000 	mrs	r3, CPSR
    8054:	e203401f 	and	r4, r3, #31
    8058:	e354001a 	cmp	r4, #26
    805c:	1a000006 	bne	807c <done_hyp>
    8060:	e3c3301f 	bic	r3, r3, #31
    8064:	e38330d3 	orr	r3, r3, #211	; 0xd3
    8068:	e3833c01 	orr	r3, r3, #256	; 0x100
    806c:	e28fe010 	add	lr, pc, #16
    8070:	e16ff003 	msr	SPSR_fsxc, r3
    8074:	e12ef30e 	msr	ELR_hyp, lr
    8078:	e160006e 	eret

0000807c <done_hyp>:
    807c:	e38330d3 	orr	r3, r3, #211	; 0xd3
    8080:	e121f003 	msr	CPSR_c, r3

00008084 <done_pi2>:
    8084:	e3a0d902 	mov	sp, #32768	; 0x8000
    8088:	e3a030d2 	mov	r3, #210	; 0xd2
    808c:	e121f003 	msr	CPSR_c, r3
    8090:	e3a0d901 	mov	sp, #16384	; 0x4000
    8094:	e3a030d3 	mov	r3, #211	; 0xd3
    8098:	e121f003 	msr	CPSR_c, r3
    809c:	e59f3040 	ldr	r3, [pc, #64]	; 80e4 <wait_forever+0x8>
    80a0:	e3a04000 	mov	r4, #0
    80a4:	e8b31fe0 	ldm	r3!, {r5, r6, r7, r8, r9, sl, fp, ip}
    80a8:	e8a41fe0 	stmia	r4!, {r5, r6, r7, r8, r9, sl, fp, ip}
    80ac:	e8b31fe0 	ldm	r3!, {r5, r6, r7, r8, r9, sl, fp, ip}
    80b0:	e8a41fe0 	stmia	r4!, {r5, r6, r7, r8, r9, sl, fp, ip}
    80b4:	e59f402c 	ldr	r4, [pc, #44]	; 80e8 <wait_forever+0xc>
    80b8:	e59f902c 	ldr	r9, [pc, #44]	; 80ec <wait_forever+0x10>
    80bc:	e3a05000 	mov	r5, #0

000080c0 <clear_bss>:
    80c0:	e5845000 	str	r5, [r4]
    80c4:	e2844004 	add	r4, r4, #4
    80c8:	e1540009 	cmp	r4, r9
    80cc:	dafffffb 	ble	80c0 <clear_bss>
    80d0:	e59f3014 	ldr	r3, [pc, #20]	; 80ec <wait_forever+0x10>
    80d4:	e59f4014 	ldr	r4, [pc, #20]	; 80f0 <wait_forever+0x14>
    80d8:	e12fff34 	blx	r4

000080dc <wait_forever>:
    80dc:	e320f002 	wfe
    80e0:	eafffffd 	b	80dc <wait_forever>
    80e4:	00008000 	andeq	r8, r0, r0
    80e8:	00026000 	andeq	r6, r2, r0
    80ec:	00039000 	andeq	r9, r3, r0
    80f0:	000080f4 	strdeq	r8, [r0], -r4

000080f4 <kernel_main>:
    80f4:	e92d4080 	push	{r7, lr}
    80f8:	e1a04001 	mov	r4, r1
    80fc:	e1a05002 	mov	r5, r2
    8100:	e1a07000 	mov	r7, r0
    8104:	e1a06003 	mov	r6, r3
    8108:	e24dd008 	sub	sp, sp, #8
    810c:	e1a00002 	mov	r0, r2
    8110:	eb000030 	bl	81d8 <hardware_detect>
    8114:	eb0001a0 	bl	879c <hardware_setup_vars>
    8118:	e3a00001 	mov	r0, #1
    811c:	eb0009fd 	bl	a918 <serial_init>
    8120:	e59f0084 	ldr	r0, [pc, #132]	; 81ac <kernel_main+0xb8>
    8124:	eb00126a 	bl	cad4 <serial_printk>
    8128:	e1a03005 	mov	r3, r5
    812c:	e1a02004 	mov	r2, r4
    8130:	e1a01007 	mov	r1, r7
    8134:	e59f0074 	ldr	r0, [pc, #116]	; 81b0 <kernel_main+0xbc>
    8138:	eb001254 	bl	ca90 <printk>
    813c:	e59f0070 	ldr	r0, [pc, #112]	; 81b4 <kernel_main+0xc0>
    8140:	eb001252 	bl	ca90 <printk>
    8144:	e59f106c 	ldr	r1, [pc, #108]	; 81b8 <kernel_main+0xc4>
    8148:	e59f006c 	ldr	r0, [pc, #108]	; 81bc <kernel_main+0xc8>
    814c:	eb00124f 	bl	ca90 <printk>
    8150:	e1a00004 	mov	r0, r4
    8154:	eb0000e3 	bl	84e8 <hardware_print_model>
    8158:	eb000162 	bl	86e8 <hardware_print_commandline>
    815c:	eb000443 	bl	9270 <platform_irq_enable>
    8160:	eb000910 	bl	a5a8 <drivers_init_all>
    8164:	e1a00006 	mov	r0, r6
    8168:	eb000da5 	bl	b804 <memory_hierarchy_init>
    816c:	eb000758 	bl	9ed4 <fd_table_init>
    8170:	e3a01b5d 	mov	r1, #95232	; 0x17400
    8174:	e59f0044 	ldr	r0, [pc, #68]	; 81c0 <kernel_main+0xcc>
    8178:	eb000931 	bl	a644 <ramdisk_init>
    817c:	e3a03000 	mov	r3, #0
    8180:	e59f203c 	ldr	r2, [pc, #60]	; 81c4 <kernel_main+0xd0>
    8184:	e59f103c 	ldr	r1, [pc, #60]	; 81c8 <kernel_main+0xd4>
    8188:	e58d3000 	str	r3, [sp]
    818c:	e59f0038 	ldr	r0, [pc, #56]	; 81cc <kernel_main+0xd8>
    8190:	eb00073d 	bl	9e8c <mount>
    8194:	eb000f20 	bl	be1c <create_idle_task>
    8198:	e59f0030 	ldr	r0, [pc, #48]	; 81d0 <kernel_main+0xdc>
    819c:	eb000f7c 	bl	bf94 <start_userspace>
    81a0:	e59f002c 	ldr	r0, [pc, #44]	; 81d4 <kernel_main+0xe0>
    81a4:	eb001239 	bl	ca90 <printk>
    81a8:	eafffffe 	b	81a8 <kernel_main+0xb4>
    81ac:	0000d000 	andeq	sp, r0, r0
    81b0:	0000d018 	andeq	sp, r0, r8, lsl r0
    81b4:	0000d03c 	andeq	sp, r0, ip, lsr r0
    81b8:	0000d048 	andeq	sp, r0, r8, asr #32
    81bc:	0000d04c 	andeq	sp, r0, ip, asr #32
    81c0:	0000e000 	andeq	lr, r0, r0
    81c4:	0000d05c 	andeq	sp, r0, ip, asr r0
    81c8:	0000d064 	andeq	sp, r0, r4, rrx
    81cc:	0000d068 	andeq	sp, r0, r8, rrx
    81d0:	0000d078 	andeq	sp, r0, r8, ror r0
    81d4:	0000d084 	andeq	sp, r0, r4, lsl #1

000081d8 <hardware_detect>:
    81d8:	e92d4070 	push	{r4, r5, r6, lr}
    81dc:	eb000288 	bl	8c04 <devicetree_setup>
    81e0:	e2504000 	subs	r4, r0, #0
    81e4:	0a000001 	beq	81f0 <hardware_detect+0x18>
    81e8:	e3a00000 	mov	r0, #0
    81ec:	e8bd8070 	pop	{r4, r5, r6, pc}
    81f0:	e3085000 	movw	r5, #32768	; 0x8000
    81f4:	e3a03001 	mov	r3, #1
    81f8:	e3405002 	movt	r5, #2
    81fc:	e30d109c 	movw	r1, #53404	; 0xd09c
    8200:	e3401000 	movt	r1, #0
    8204:	e1a02005 	mov	r2, r5
    8208:	e30d00ac 	movw	r0, #53420	; 0xd0ac
    820c:	e4823004 	str	r3, [r2], #4
    8210:	e3400000 	movt	r0, #0
    8214:	eb00031c 	bl	8e8c <devicetree_find_int>
    8218:	e5953004 	ldr	r3, [r5, #4]
    821c:	e30220e0 	movw	r2, #8416	; 0x20e0
    8220:	e3402090 	movt	r2, #144	; 0x90
    8224:	e1530002 	cmp	r3, r2
    8228:	0a0000ac 	beq	84e0 <hardware_detect+0x308>
    822c:	9a00001d 	bls	82a8 <hardware_detect+0xd0>
    8230:	e30220d3 	movw	r2, #8403	; 0x20d3
    8234:	e34020a0 	movt	r2, #160	; 0xa0
    8238:	e1530002 	cmp	r3, r2
    823c:	0a0000a5 	beq	84d8 <hardware_detect+0x300>
    8240:	9a00004d 	bls	837c <hardware_detect+0x1a4>
    8244:	e3022042 	movw	r2, #8258	; 0x2042
    8248:	e34020a2 	movt	r2, #162	; 0xa2
    824c:	e1530002 	cmp	r3, r2
    8250:	03a0300b 	moveq	r3, #11
    8254:	0a00000e 	beq	8294 <hardware_detect+0xbc>
    8258:	9a000086 	bls	8478 <hardware_detect+0x2a0>
    825c:	e3032112 	movw	r2, #12562	; 0x3112
    8260:	e34020b0 	movt	r2, #176	; 0xb0
    8264:	e1530002 	cmp	r3, r2
    8268:	8a00002a 	bhi	8318 <hardware_detect+0x140>
    826c:	e3032110 	movw	r2, #12560	; 0x3110
    8270:	e34020b0 	movt	r2, #176	; 0xb0
    8274:	e1530002 	cmp	r3, r2
    8278:	8a00008e 	bhi	84b8 <hardware_detect+0x2e0>
    827c:	e3c33801 	bic	r3, r3, #65536	; 0x10000
    8280:	e3020082 	movw	r0, #8322	; 0x2082
    8284:	e34000a2 	movt	r0, #162	; 0xa2
    8288:	e1530000 	cmp	r3, r0
    828c:	03a03009 	moveq	r3, #9
    8290:	13a03000 	movne	r3, #0
    8294:	e3052400 	movw	r2, #21504	; 0x5400
    8298:	e3a00000 	mov	r0, #0
    829c:	e3402002 	movt	r2, #2
    82a0:	e5823000 	str	r3, [r2]
    82a4:	e8bd8070 	pop	{r4, r5, r6, pc}
    82a8:	e3530015 	cmp	r3, #21
    82ac:	8a000051 	bhi	83f8 <hardware_detect+0x220>
    82b0:	e3530001 	cmp	r3, #1
    82b4:	9a00007d 	bls	84b0 <hardware_detect+0x2d8>
    82b8:	e2433002 	sub	r3, r3, #2
    82bc:	e3530013 	cmp	r3, #19
    82c0:	979ff103 	ldrls	pc, [pc, r3, lsl #2]
    82c4:	ea000079 	b	84b0 <hardware_detect+0x2d8>
    82c8:	000084a0 	andeq	r8, r0, r0, lsr #9
    82cc:	000084a0 	andeq	r8, r0, r0, lsr #9
    82d0:	000084a0 	andeq	r8, r0, r0, lsr #9
    82d4:	000084a0 	andeq	r8, r0, r0, lsr #9
    82d8:	000084a0 	andeq	r8, r0, r0, lsr #9
    82dc:	000084c0 	andeq	r8, r0, r0, asr #9
    82e0:	000084c0 	andeq	r8, r0, r0, asr #9
    82e4:	000084c0 	andeq	r8, r0, r0, asr #9
    82e8:	000084b0 			; <UNDEFINED> instruction: 0x000084b0
    82ec:	000084b0 			; <UNDEFINED> instruction: 0x000084b0
    82f0:	000084b0 			; <UNDEFINED> instruction: 0x000084b0
    82f4:	000084a0 	andeq	r8, r0, r0, lsr #9
    82f8:	000084a0 	andeq	r8, r0, r0, lsr #9
    82fc:	000084a0 	andeq	r8, r0, r0, lsr #9
    8300:	000084c8 	andeq	r8, r0, r8, asr #9
    8304:	000084d0 	ldrdeq	r8, [r0], -r0
    8308:	000084a8 	andeq	r8, r0, r8, lsr #9
    830c:	000084c8 	andeq	r8, r0, r8, asr #9
    8310:	000084d0 	ldrdeq	r8, [r0], -r0
    8314:	000084a8 	andeq	r8, r0, r8, lsr #9
    8318:	e3032115 	movw	r2, #12565	; 0x3115
    831c:	e34020c0 	movt	r2, #192	; 0xc0
    8320:	e1530002 	cmp	r3, r2
    8324:	8a00004c 	bhi	845c <hardware_detect+0x284>
    8328:	e3032113 	movw	r2, #12563	; 0x3113
    832c:	e34020c0 	movt	r2, #192	; 0xc0
    8330:	e1530002 	cmp	r3, r2
    8334:	8a00005f 	bhi	84b8 <hardware_detect+0x2e0>
    8338:	e3032115 	movw	r2, #12565	; 0x3115
    833c:	e34020b0 	movt	r2, #176	; 0xb0
    8340:	e1530002 	cmp	r3, r2
    8344:	8a000005 	bhi	8360 <hardware_detect+0x188>
    8348:	e3030113 	movw	r0, #12563	; 0x3113
    834c:	e34000b0 	movt	r0, #176	; 0xb0
    8350:	e1530000 	cmp	r3, r0
    8354:	13a03010 	movne	r3, #16
    8358:	03a03000 	moveq	r3, #0
    835c:	eaffffcc 	b	8294 <hardware_detect+0xbc>
    8360:	e30c2eef 	movw	r2, #52975	; 0xceef
    8364:	e34f2f3f 	movt	r2, #65343	; 0xff3f
    8368:	e0832002 	add	r2, r3, r2
    836c:	e3520002 	cmp	r2, #2
    8370:	33a03010 	movcc	r3, #16
    8374:	23a03000 	movcs	r3, #0
    8378:	eaffffc5 	b	8294 <hardware_detect+0xbc>
    837c:	e3012041 	movw	r2, #4161	; 0x1041
    8380:	e34020a0 	movt	r2, #160	; 0xa0
    8384:	e1530002 	cmp	r3, r2
    8388:	8a00000f 	bhi	83cc <hardware_detect+0x1f4>
    838c:	e3a02d41 	mov	r2, #4160	; 0x1040
    8390:	e34020a0 	movt	r2, #160	; 0xa0
    8394:	e1530002 	cmp	r3, r2
    8398:	23a03007 	movcs	r3, #7
    839c:	2affffbc 	bcs	8294 <hardware_detect+0xbc>
    83a0:	e3022120 	movw	r2, #8480	; 0x2120
    83a4:	e3402090 	movt	r2, #144	; 0x90
    83a8:	e1530002 	cmp	r3, r2
    83ac:	03a0300e 	moveq	r3, #14
    83b0:	0affffb7 	beq	8294 <hardware_detect+0xbc>
    83b4:	e3a00093 	mov	r0, #147	; 0x93
    83b8:	e3400092 	movt	r0, #146	; 0x92
    83bc:	e1530000 	cmp	r3, r0
    83c0:	03a03008 	moveq	r3, #8
    83c4:	13a03000 	movne	r3, #0
    83c8:	eaffffb1 	b	8294 <hardware_detect+0xbc>
    83cc:	e3022082 	movw	r2, #8322	; 0x2082
    83d0:	e34020a0 	movt	r2, #160	; 0xa0
    83d4:	e1530002 	cmp	r3, r2
    83d8:	03a03009 	moveq	r3, #9
    83dc:	0affffac 	beq	8294 <hardware_detect+0xbc>
    83e0:	e30200a0 	movw	r0, #8352	; 0x20a0
    83e4:	e34000a0 	movt	r0, #160	; 0xa0
    83e8:	e1530000 	cmp	r3, r0
    83ec:	03a0300c 	moveq	r3, #12
    83f0:	13a03000 	movne	r3, #0
    83f4:	eaffffa6 	b	8294 <hardware_detect+0xbc>
    83f8:	e3a02093 	mov	r2, #147	; 0x93
    83fc:	e3402090 	movt	r2, #144	; 0x90
    8400:	e1530002 	cmp	r3, r2
    8404:	8a00000e 	bhi	8444 <hardware_detect+0x26c>
    8408:	e3a02091 	mov	r2, #145	; 0x91
    840c:	e3402090 	movt	r2, #144	; 0x90
    8410:	e1530002 	cmp	r3, r2
    8414:	83a03008 	movhi	r3, #8
    8418:	8affff9d 	bhi	8294 <hardware_detect+0xbc>
    841c:	e3a02021 	mov	r2, #33	; 0x21
    8420:	e3402090 	movt	r2, #144	; 0x90
    8424:	e1530002 	cmp	r3, r2
    8428:	0a00001e 	beq	84a8 <hardware_detect+0x2d0>
    842c:	e3a00032 	mov	r0, #50	; 0x32
    8430:	e3400090 	movt	r0, #144	; 0x90
    8434:	e1530000 	cmp	r3, r0
    8438:	03a03004 	moveq	r3, #4
    843c:	13a03000 	movne	r3, #0
    8440:	eaffff93 	b	8294 <hardware_detect+0xbc>
    8444:	e3a000c1 	mov	r0, #193	; 0xc1
    8448:	e3400090 	movt	r0, #144	; 0x90
    844c:	e1530000 	cmp	r3, r0
    8450:	03a0300d 	moveq	r3, #13
    8454:	13a03000 	movne	r3, #0
    8458:	eaffff8d 	b	8294 <hardware_detect+0xbc>
    845c:	e30c2eec 	movw	r2, #52972	; 0xceec
    8460:	e34f2f2f 	movt	r2, #65327	; 0xff2f
    8464:	e0832002 	add	r2, r3, r2
    8468:	e3520002 	cmp	r2, #2
    846c:	33a03010 	movcc	r3, #16
    8470:	23a03000 	movcs	r3, #0
    8474:	eaffff86 	b	8294 <hardware_detect+0xbc>
    8478:	e3032111 	movw	r2, #12561	; 0x3111
    847c:	e34020a0 	movt	r2, #160	; 0xa0
    8480:	e1530002 	cmp	r3, r2
    8484:	0a00000b 	beq	84b8 <hardware_detect+0x2e0>
    8488:	e3010041 	movw	r0, #4161	; 0x1041
    848c:	e34000a2 	movt	r0, #162	; 0xa2
    8490:	e1530000 	cmp	r3, r0
    8494:	03a03007 	moveq	r3, #7
    8498:	13a03000 	movne	r3, #0
    849c:	eaffff7c 	b	8294 <hardware_detect+0xbc>
    84a0:	e3a03002 	mov	r3, #2
    84a4:	eaffff7a 	b	8294 <hardware_detect+0xbc>
    84a8:	e3a03003 	mov	r3, #3
    84ac:	eaffff78 	b	8294 <hardware_detect+0xbc>
    84b0:	e3a03000 	mov	r3, #0
    84b4:	eaffff76 	b	8294 <hardware_detect+0xbc>
    84b8:	e3a03010 	mov	r3, #16
    84bc:	eaffff74 	b	8294 <hardware_detect+0xbc>
    84c0:	e3a03001 	mov	r3, #1
    84c4:	eaffff72 	b	8294 <hardware_detect+0xbc>
    84c8:	e3a03004 	mov	r3, #4
    84cc:	eaffff70 	b	8294 <hardware_detect+0xbc>
    84d0:	e3a03006 	mov	r3, #6
    84d4:	eaffff6e 	b	8294 <hardware_detect+0xbc>
    84d8:	e3a0300a 	mov	r3, #10
    84dc:	eaffff6c 	b	8294 <hardware_detect+0xbc>
    84e0:	e3a0300f 	mov	r3, #15
    84e4:	eaffff6a 	b	8294 <hardware_detect+0xbc>

000084e8 <hardware_print_model>:
    84e8:	e92d4010 	push	{r4, lr}
    84ec:	e1a04000 	mov	r4, r0
    84f0:	e30d00b4 	movw	r0, #53428	; 0xd0b4
    84f4:	e1a01004 	mov	r1, r4
    84f8:	e3400000 	movt	r0, #0
    84fc:	e24dd080 	sub	sp, sp, #128	; 0x80
    8500:	eb001162 	bl	ca90 <printk>
    8504:	e3003c42 	movw	r3, #3138	; 0xc42
    8508:	e1540003 	cmp	r4, r3
    850c:	e3084000 	movw	r4, #32768	; 0x8000
    8510:	e3404002 	movt	r4, #2
    8514:	030d00cc 	movweq	r0, #53452	; 0xd0cc
    8518:	03400000 	movteq	r0, #0
    851c:	130d00dc 	movwne	r0, #53468	; 0xd0dc
    8520:	13400000 	movtne	r0, #0
    8524:	eb001159 	bl	ca90 <printk>
    8528:	e30d0aec 	movw	r0, #56044	; 0xdaec
    852c:	e3400000 	movt	r0, #0
    8530:	eb001156 	bl	ca90 <printk>
    8534:	e5943000 	ldr	r3, [r4]
    8538:	e3530000 	cmp	r3, #0
    853c:	1a000019 	bne	85a8 <hardware_print_model+0xc0>
    8540:	e30d0114 	movw	r0, #53524	; 0xd114
    8544:	e3400000 	movt	r0, #0
    8548:	eb001150 	bl	ca90 <printk>
    854c:	e3053400 	movw	r3, #21504	; 0x5400
    8550:	e3403002 	movt	r3, #2
    8554:	e5933000 	ldr	r3, [r3]
    8558:	e2433001 	sub	r3, r3, #1
    855c:	e353000f 	cmp	r3, #15
    8560:	979ff103 	ldrls	pc, [pc, r3, lsl #2]
    8564:	ea00005a 	b	86d4 <hardware_print_model+0x1ec>
    8568:	000085f4 	strdeq	r8, [r0], -r4
    856c:	00008604 	andeq	r8, r0, r4, lsl #12
    8570:	00008614 	andeq	r8, r0, r4, lsl r6
    8574:	00008624 	andeq	r8, r0, r4, lsr #12
    8578:	000086d4 	ldrdeq	r8, [r0], -r4
    857c:	00008634 	andeq	r8, r0, r4, lsr r6
    8580:	00008644 	andeq	r8, r0, r4, asr #12
    8584:	00008654 	andeq	r8, r0, r4, asr r6
    8588:	00008664 	andeq	r8, r0, r4, ror #12
    858c:	00008674 	andeq	r8, r0, r4, ror r6
    8590:	00008684 	andeq	r8, r0, r4, lsl #13
    8594:	00008694 	muleq	r0, r4, r6
    8598:	000086a4 	andeq	r8, r0, r4, lsr #13
    859c:	000086b4 			; <UNDEFINED> instruction: 0x000086b4
    85a0:	000086c4 	andeq	r8, r0, r4, asr #13
    85a4:	000085d4 	ldrdeq	r8, [r0], -r4
    85a8:	e30d10f0 	movw	r1, #53488	; 0xd0f0
    85ac:	e3a03080 	mov	r3, #128	; 0x80
    85b0:	e3401000 	movt	r1, #0
    85b4:	e1a0200d 	mov	r2, sp
    85b8:	e3a00000 	mov	r0, #0
    85bc:	eb000218 	bl	8e24 <devicetree_find_string>
    85c0:	e30d00f8 	movw	r0, #53496	; 0xd0f8
    85c4:	e1a0100d 	mov	r1, sp
    85c8:	e3400000 	movt	r0, #0
    85cc:	eb00112f 	bl	ca90 <printk>
    85d0:	eaffffda 	b	8540 <hardware_print_model+0x58>
    85d4:	e30d0194 	movw	r0, #53652	; 0xd194
    85d8:	e3400000 	movt	r0, #0
    85dc:	eb00112b 	bl	ca90 <printk>
    85e0:	e30d0aec 	movw	r0, #56044	; 0xdaec
    85e4:	e3400000 	movt	r0, #0
    85e8:	eb001128 	bl	ca90 <printk>
    85ec:	e28dd080 	add	sp, sp, #128	; 0x80
    85f0:	e8bd8010 	pop	{r4, pc}
    85f4:	e30d012c 	movw	r0, #53548	; 0xd12c
    85f8:	e3400000 	movt	r0, #0
    85fc:	eb001123 	bl	ca90 <printk>
    8600:	eafffff6 	b	85e0 <hardware_print_model+0xf8>
    8604:	e30d0134 	movw	r0, #53556	; 0xd134
    8608:	e3400000 	movt	r0, #0
    860c:	eb00111f 	bl	ca90 <printk>
    8610:	eafffff2 	b	85e0 <hardware_print_model+0xf8>
    8614:	e30d0130 	movw	r0, #53552	; 0xd130
    8618:	e3400000 	movt	r0, #0
    861c:	eb00111b 	bl	ca90 <printk>
    8620:	eaffffee 	b	85e0 <hardware_print_model+0xf8>
    8624:	e30d0138 	movw	r0, #53560	; 0xd138
    8628:	e3400000 	movt	r0, #0
    862c:	eb001117 	bl	ca90 <printk>
    8630:	eaffffea 	b	85e0 <hardware_print_model+0xf8>
    8634:	e30d016c 	movw	r0, #53612	; 0xd16c
    8638:	e3400000 	movt	r0, #0
    863c:	eb001113 	bl	ca90 <printk>
    8640:	eaffffe6 	b	85e0 <hardware_print_model+0xf8>
    8644:	e30d013c 	movw	r0, #53564	; 0xd13c
    8648:	e3400000 	movt	r0, #0
    864c:	eb00110f 	bl	ca90 <printk>
    8650:	eaffffe2 	b	85e0 <hardware_print_model+0xf8>
    8654:	e30d0154 	movw	r0, #53588	; 0xd154
    8658:	e3400000 	movt	r0, #0
    865c:	eb00110b 	bl	ca90 <printk>
    8660:	eaffffde 	b	85e0 <hardware_print_model+0xf8>
    8664:	e30d0148 	movw	r0, #53576	; 0xd148
    8668:	e3400000 	movt	r0, #0
    866c:	eb001107 	bl	ca90 <printk>
    8670:	eaffffda 	b	85e0 <hardware_print_model+0xf8>
    8674:	e30d014c 	movw	r0, #53580	; 0xd14c
    8678:	e3400000 	movt	r0, #0
    867c:	eb001103 	bl	ca90 <printk>
    8680:	eaffffd6 	b	85e0 <hardware_print_model+0xf8>
    8684:	e30d0140 	movw	r0, #53568	; 0xd140
    8688:	e3400000 	movt	r0, #0
    868c:	eb0010ff 	bl	ca90 <printk>
    8690:	eaffffd2 	b	85e0 <hardware_print_model+0xf8>
    8694:	e30d0180 	movw	r0, #53632	; 0xd180
    8698:	e3400000 	movt	r0, #0
    869c:	eb0010fb 	bl	ca90 <printk>
    86a0:	eaffffce 	b	85e0 <hardware_print_model+0xf8>
    86a4:	e30d015c 	movw	r0, #53596	; 0xd15c
    86a8:	e3400000 	movt	r0, #0
    86ac:	eb0010f7 	bl	ca90 <printk>
    86b0:	eaffffca 	b	85e0 <hardware_print_model+0xf8>
    86b4:	e30d0164 	movw	r0, #53604	; 0xd164
    86b8:	e3400000 	movt	r0, #0
    86bc:	eb0010f3 	bl	ca90 <printk>
    86c0:	eaffffc6 	b	85e0 <hardware_print_model+0xf8>
    86c4:	e30d0150 	movw	r0, #53584	; 0xd150
    86c8:	e3400000 	movt	r0, #0
    86cc:	eb0010ef 	bl	ca90 <printk>
    86d0:	eaffffc2 	b	85e0 <hardware_print_model+0xf8>
    86d4:	e5941004 	ldr	r1, [r4, #4]
    86d8:	e30d0198 	movw	r0, #53656	; 0xd198
    86dc:	e3400000 	movt	r0, #0
    86e0:	eb0010ea 	bl	ca90 <printk>
    86e4:	eaffffbd 	b	85e0 <hardware_print_model+0xf8>

000086e8 <hardware_print_commandline>:
    86e8:	e92d4010 	push	{r4, lr}
    86ec:	e3084000 	movw	r4, #32768	; 0x8000
    86f0:	e3404002 	movt	r4, #2
    86f4:	e30d01a4 	movw	r0, #53668	; 0xd1a4
    86f8:	e3400000 	movt	r0, #0
    86fc:	eb0010e3 	bl	ca90 <printk>
    8700:	e5943000 	ldr	r3, [r4]
    8704:	e3530000 	cmp	r3, #0
    8708:	08bd8010 	popeq	{r4, pc}
    870c:	e30d11c4 	movw	r1, #53700	; 0xd1c4
    8710:	e30d01d0 	movw	r0, #53712	; 0xd1d0
    8714:	e3401000 	movt	r1, #0
    8718:	e2842008 	add	r2, r4, #8
    871c:	e3400000 	movt	r0, #0
    8720:	e3a03b01 	mov	r3, #1024	; 0x400
    8724:	eb0001be 	bl	8e24 <devicetree_find_string>
    8728:	e30d0b88 	movw	r0, #56200	; 0xdb88
    872c:	e2841008 	add	r1, r4, #8
    8730:	e3400000 	movt	r0, #0
    8734:	e8bd4010 	pop	{r4, lr}
    8738:	ea0010d4 	b	ca90 <printk>

0000873c <hardware_get_type>:
    873c:	e3053400 	movw	r3, #21504	; 0x5400
    8740:	e3403002 	movt	r3, #2
    8744:	e5930000 	ldr	r0, [r3]
    8748:	e12fff1e 	bx	lr

0000874c <hardware_get_memory>:
    874c:	e3083000 	movw	r3, #32768	; 0x8000
    8750:	e3403002 	movt	r3, #2
    8754:	e92d4070 	push	{r4, r5, r6, lr}
    8758:	e1a05000 	mov	r5, r0
    875c:	e5936000 	ldr	r6, [r3]
    8760:	e1a04001 	mov	r4, r1
    8764:	e3560000 	cmp	r6, #0
    8768:	1a000006 	bne	8788 <hardware_get_memory+0x3c>
    876c:	e30d01d8 	movw	r0, #53720	; 0xd1d8
    8770:	e3400000 	movt	r0, #0
    8774:	eb0010c5 	bl	ca90 <printk>
    8778:	e5856000 	str	r6, [r5]
    877c:	e3a03201 	mov	r3, #268435456	; 0x10000000
    8780:	e5843000 	str	r3, [r4]
    8784:	e8bd8070 	pop	{r4, r5, r6, pc}
    8788:	e3a03000 	mov	r3, #0
    878c:	e5803000 	str	r3, [r0]
    8790:	eb0001e0 	bl	8f18 <devicetree_get_memory>
    8794:	e5840000 	str	r0, [r4]
    8798:	e8bd8070 	pop	{r4, r5, r6, pc}

0000879c <hardware_setup_vars>:
    879c:	e3053400 	movw	r3, #21504	; 0x5400
    87a0:	e3403002 	movt	r3, #2
    87a4:	e5933000 	ldr	r3, [r3]
    87a8:	e2433001 	sub	r3, r3, #1
    87ac:	e353000f 	cmp	r3, #15
    87b0:	979ff103 	ldrls	pc, [pc, r3, lsl #2]
    87b4:	ea00002e 	b	8874 <hardware_setup_vars+0xd8>
    87b8:	00008820 	andeq	r8, r0, r0, lsr #16
    87bc:	0000880c 	andeq	r8, r0, ip, lsl #16
    87c0:	00008820 	andeq	r8, r0, r0, lsr #16
    87c4:	0000880c 	andeq	r8, r0, ip, lsl #16
    87c8:	00008874 	andeq	r8, r0, r4, ror r8
    87cc:	0000880c 	andeq	r8, r0, ip, lsl #16
    87d0:	000087f8 	strdeq	r8, [r0], -r8	; <UNPREDICTABLE>
    87d4:	0000880c 	andeq	r8, r0, ip, lsl #16
    87d8:	000087f8 	strdeq	r8, [r0], -r8	; <UNPREDICTABLE>
    87dc:	0000883c 	andeq	r8, r0, ip, lsr r8
    87e0:	000087f8 	strdeq	r8, [r0], -r8	; <UNPREDICTABLE>
    87e4:	000087f8 	strdeq	r8, [r0], -r8	; <UNPREDICTABLE>
    87e8:	0000880c 	andeq	r8, r0, ip, lsl #16
    87ec:	000087f8 	strdeq	r8, [r0], -r8	; <UNPREDICTABLE>
    87f0:	0000883c 	andeq	r8, r0, ip, lsr r8
    87f4:	00008858 	andeq	r8, r0, r8, asr r8
    87f8:	e3083000 	movw	r3, #32768	; 0x8000
    87fc:	e3a0243f 	mov	r2, #1056964608	; 0x3f000000
    8800:	e3403002 	movt	r3, #2
    8804:	e5832408 	str	r2, [r3, #1032]	; 0x408
    8808:	e12fff1e 	bx	lr
    880c:	e3083000 	movw	r3, #32768	; 0x8000
    8810:	e3a02202 	mov	r2, #536870912	; 0x20000000
    8814:	e3403002 	movt	r3, #2
    8818:	e5832408 	str	r2, [r3, #1032]	; 0x408
    881c:	e12fff1e 	bx	lr
    8820:	e3083000 	movw	r3, #32768	; 0x8000
    8824:	e3a01202 	mov	r1, #536870912	; 0x20000000
    8828:	e3403002 	movt	r3, #2
    882c:	e3a02010 	mov	r2, #16
    8830:	e5831408 	str	r1, [r3, #1032]	; 0x408
    8834:	e583240c 	str	r2, [r3, #1036]	; 0x40c
    8838:	e12fff1e 	bx	lr
    883c:	e3083000 	movw	r3, #32768	; 0x8000
    8840:	e3a0143f 	mov	r1, #1056964608	; 0x3f000000
    8844:	e3403002 	movt	r3, #2
    8848:	e3a0201d 	mov	r2, #29
    884c:	e5831408 	str	r1, [r3, #1032]	; 0x408
    8850:	e583240c 	str	r2, [r3, #1036]	; 0x40c
    8854:	e12fff1e 	bx	lr
    8858:	e3083000 	movw	r3, #32768	; 0x8000
    885c:	e3a0102a 	mov	r1, #42	; 0x2a
    8860:	e3403002 	movt	r3, #2
    8864:	e3a024fe 	mov	r2, #-33554432	; 0xfe000000
    8868:	e583140c 	str	r1, [r3, #1036]	; 0x40c
    886c:	e5832408 	str	r2, [r3, #1032]	; 0x408
    8870:	e12fff1e 	bx	lr
    8874:	e3083000 	movw	r3, #32768	; 0x8000
    8878:	e3a024fe 	mov	r2, #-33554432	; 0xfe000000
    887c:	e3403002 	movt	r3, #2
    8880:	e5832408 	str	r2, [r3, #1032]	; 0x408
    8884:	e12fff1e 	bx	lr

00008888 <big_to_little64>:
    8888:	e1a02821 	lsr	r2, r1, #16
    888c:	e1a03000 	mov	r3, r0
    8890:	e7e7c850 	ubfx	ip, r0, #16, #8
    8894:	e2022cff 	and	r2, r2, #65280	; 0xff00
    8898:	e18ccc23 	orr	ip, ip, r3, lsr #24
    889c:	e20108ff 	and	r0, r1, #16711680	; 0xff0000
    88a0:	e1822000 	orr	r2, r2, r0
    88a4:	e1a00801 	lsl	r0, r1, #16
    88a8:	e20004ff 	and	r0, r0, #-16777216	; 0xff000000
    88ac:	e1820000 	orr	r0, r2, r0
    88b0:	e1800c01 	orr	r0, r0, r1, lsl #24
    88b4:	e2031cff 	and	r1, r3, #65280	; 0xff00
    88b8:	e1a03803 	lsl	r3, r3, #16
    88bc:	e18c1001 	orr	r1, ip, r1
    88c0:	e20338ff 	and	r3, r3, #16711680	; 0xff0000
    88c4:	e1811003 	orr	r1, r1, r3
    88c8:	e12fff1e 	bx	lr

000088cc <dt_parse_node>:
    88cc:	e92d4ff0 	push	{r4, r5, r6, r7, r8, r9, sl, fp, lr}
    88d0:	e1a06000 	mov	r6, r0
    88d4:	e5910000 	ldr	r0, [r1]
    88d8:	e1a05001 	mov	r5, r1
    88dc:	e24ddf45 	sub	sp, sp, #276	; 0x114
    88e0:	e7961100 	ldr	r1, [r6, r0, lsl #2]
    88e4:	e1cd20f0 	strd	r2, [sp]
    88e8:	e3510401 	cmp	r1, #16777216	; 0x1000000
    88ec:	1a00007f 	bne	8af0 <dt_parse_node+0x224>
    88f0:	e1a03100 	lsl	r3, r0, #2
    88f4:	e2800001 	add	r0, r0, #1
    88f8:	e5850000 	str	r0, [r5]
    88fc:	e2831004 	add	r1, r3, #4
    8900:	e0861001 	add	r1, r6, r1
    8904:	e3a02080 	mov	r2, #128	; 0x80
    8908:	e28d0010 	add	r0, sp, #16
    890c:	eb0010c9 	bl	cc38 <strlcpy>
    8910:	e5954000 	ldr	r4, [r5]
    8914:	e0863104 	add	r3, r6, r4, lsl #2
    8918:	e4937004 	ldr	r7, [r3], #4
    891c:	e2844001 	add	r4, r4, #1
    8920:	e6bf7f37 	rev	r7, r7
    8924:	e21770ff 	ands	r7, r7, #255	; 0xff
    8928:	1afffffa 	bne	8918 <dt_parse_node+0x4c>
    892c:	e5854000 	str	r4, [r5]
    8930:	e30d922c 	movw	r9, #53804	; 0xd22c
    8934:	e3409000 	movt	r9, #0
    8938:	e308b410 	movw	fp, #33808	; 0x8410
    893c:	e340b002 	movt	fp, #2
    8940:	e7963104 	ldr	r3, [r6, r4, lsl #2]
    8944:	e1a02104 	lsl	r2, r4, #2
    8948:	e6bf1f33 	rev	r1, r3
    894c:	e3530301 	cmp	r3, #67108864	; 0x4000000
    8950:	0a000008 	beq	8978 <dt_parse_node+0xac>
    8954:	e3510003 	cmp	r1, #3
    8958:	0a000009 	beq	8984 <dt_parse_node+0xb8>
    895c:	e3510001 	cmp	r1, #1
    8960:	0a00004d 	beq	8a9c <dt_parse_node+0x1d0>
    8964:	e3510002 	cmp	r1, #2
    8968:	0a000055 	beq	8ac4 <dt_parse_node+0x1f8>
    896c:	e1a00009 	mov	r0, r9
    8970:	eb001046 	bl	ca90 <printk>
    8974:	e5954000 	ldr	r4, [r5]
    8978:	e2844001 	add	r4, r4, #1
    897c:	e5854000 	str	r4, [r5]
    8980:	eaffffee 	b	8940 <dt_parse_node+0x74>
    8984:	e0862002 	add	r2, r6, r2
    8988:	e3a03000 	mov	r3, #0
    898c:	e5cd3094 	strb	r3, [sp, #148]	; 0x94
    8990:	e5923008 	ldr	r3, [r2, #8]
    8994:	e59b0014 	ldr	r0, [fp, #20]
    8998:	e59b1000 	ldr	r1, [fp]
    899c:	e6bf3f33 	rev	r3, r3
    89a0:	e0830000 	add	r0, r3, r0
    89a4:	e58d300c 	str	r3, [sp, #12]
    89a8:	e2843002 	add	r3, r4, #2
    89ac:	e5928004 	ldr	r8, [r2, #4]
    89b0:	e3a02080 	mov	r2, #128	; 0x80
    89b4:	e0811000 	add	r1, r1, r0
    89b8:	e28d0090 	add	r0, sp, #144	; 0x90
    89bc:	e5853000 	str	r3, [r5]
    89c0:	e2844001 	add	r4, r4, #1
    89c4:	e6bf8f38 	rev	r8, r8
    89c8:	eb00109a 	bl	cc38 <strlcpy>
    89cc:	e59d3000 	ldr	r3, [sp]
    89d0:	e3530000 	cmp	r3, #0
    89d4:	0a000005 	beq	89f0 <dt_parse_node+0x124>
    89d8:	e59d0000 	ldr	r0, [sp]
    89dc:	e3a02080 	mov	r2, #128	; 0x80
    89e0:	e28d1010 	add	r1, sp, #16
    89e4:	eb001059 	bl	cb50 <strncmp>
    89e8:	e3500000 	cmp	r0, #0
    89ec:	1a000005 	bne	8a08 <dt_parse_node+0x13c>
    89f0:	e59d1004 	ldr	r1, [sp, #4]
    89f4:	e3a02080 	mov	r2, #128	; 0x80
    89f8:	e28d0090 	add	r0, sp, #144	; 0x90
    89fc:	eb001053 	bl	cb50 <strncmp>
    8a00:	e3500000 	cmp	r0, #0
    8a04:	0a000033 	beq	8ad8 <dt_parse_node+0x20c>
    8a08:	e5954000 	ldr	r4, [r5]
    8a0c:	e2888003 	add	r8, r8, #3
    8a10:	e1b08128 	lsrs	r8, r8, #2
    8a14:	e2844001 	add	r4, r4, #1
    8a18:	e5854000 	str	r4, [r5]
    8a1c:	0affffc7 	beq	8940 <dt_parse_node+0x74>
    8a20:	e1a03004 	mov	r3, r4
    8a24:	e3a0a000 	mov	sl, #0
    8a28:	ea000000 	b	8a30 <dt_parse_node+0x164>
    8a2c:	e5953000 	ldr	r3, [r5]
    8a30:	e7961103 	ldr	r1, [r6, r3, lsl #2]
    8a34:	e2833001 	add	r3, r3, #1
    8a38:	e5853000 	str	r3, [r5]
    8a3c:	e3a02004 	mov	r2, #4
    8a40:	e58d100c 	str	r1, [sp, #12]
    8a44:	e28d0090 	add	r0, sp, #144	; 0x90
    8a48:	e28d100c 	add	r1, sp, #12
    8a4c:	e28aa001 	add	sl, sl, #1
    8a50:	eb000e96 	bl	c4b0 <memcpy>
    8a54:	e15a0008 	cmp	sl, r8
    8a58:	1afffff3 	bne	8a2c <dt_parse_node+0x160>
    8a5c:	e3a0a000 	mov	sl, #0
    8a60:	ea000000 	b	8a68 <dt_parse_node+0x19c>
    8a64:	e5954000 	ldr	r4, [r5]
    8a68:	e7963104 	ldr	r3, [r6, r4, lsl #2]
    8a6c:	e2844001 	add	r4, r4, #1
    8a70:	e5854000 	str	r4, [r5]
    8a74:	e3a02004 	mov	r2, #4
    8a78:	e58d300c 	str	r3, [sp, #12]
    8a7c:	e28d100c 	add	r1, sp, #12
    8a80:	e28d0090 	add	r0, sp, #144	; 0x90
    8a84:	e28aa001 	add	sl, sl, #1
    8a88:	eb000e88 	bl	c4b0 <memcpy>
    8a8c:	e15a0008 	cmp	sl, r8
    8a90:	1afffff3 	bne	8a64 <dt_parse_node+0x198>
    8a94:	e5954000 	ldr	r4, [r5]
    8a98:	eaffffa8 	b	8940 <dt_parse_node+0x74>
    8a9c:	e1cd20d0 	ldrd	r2, [sp]
    8aa0:	e1a01005 	mov	r1, r5
    8aa4:	e1a00006 	mov	r0, r6
    8aa8:	ebffff87 	bl	88cc <dt_parse_node>
    8aac:	e3500000 	cmp	r0, #0
    8ab0:	0afffff7 	beq	8a94 <dt_parse_node+0x1c8>
    8ab4:	e1a07000 	mov	r7, r0
    8ab8:	e1a00007 	mov	r0, r7
    8abc:	e28ddf45 	add	sp, sp, #276	; 0x114
    8ac0:	e8bd8ff0 	pop	{r4, r5, r6, r7, r8, r9, sl, fp, pc}
    8ac4:	e2844001 	add	r4, r4, #1
    8ac8:	e1a00007 	mov	r0, r7
    8acc:	e5854000 	str	r4, [r5]
    8ad0:	e28ddf45 	add	sp, sp, #276	; 0x114
    8ad4:	e8bd8ff0 	pop	{r4, r5, r6, r7, r8, r9, sl, fp, pc}
    8ad8:	e3540000 	cmp	r4, #0
    8adc:	0affffec 	beq	8a94 <dt_parse_node+0x1c8>
    8ae0:	e1a07004 	mov	r7, r4
    8ae4:	e1a00007 	mov	r0, r7
    8ae8:	e28ddf45 	add	sp, sp, #276	; 0x114
    8aec:	e8bd8ff0 	pop	{r4, r5, r6, r7, r8, r9, sl, fp, pc}
    8af0:	e30d0208 	movw	r0, #53768	; 0xd208
    8af4:	e3e07000 	mvn	r7, #0
    8af8:	e3400000 	movt	r0, #0
    8afc:	eb000fe3 	bl	ca90 <printk>
    8b00:	e5953000 	ldr	r3, [r5]
    8b04:	e1a00007 	mov	r0, r7
    8b08:	e2833001 	add	r3, r3, #1
    8b0c:	e5853000 	str	r3, [r5]
    8b10:	e28ddf45 	add	sp, sp, #276	; 0x114
    8b14:	e8bd8ff0 	pop	{r4, r5, r6, r7, r8, r9, sl, fp, pc}

00008b18 <devicetree_find_node_prop>:
    8b18:	e92d40f0 	push	{r4, r5, r6, r7, lr}
    8b1c:	e3084410 	movw	r4, #33808	; 0x8410
    8b20:	e3404002 	movt	r4, #2
    8b24:	e24dd00c 	sub	sp, sp, #12
    8b28:	e5943004 	ldr	r3, [r4, #4]
    8b2c:	e3530000 	cmp	r3, #0
    8b30:	0a00001d 	beq	8bac <devicetree_find_node_prop+0x94>
    8b34:	e5943010 	ldr	r3, [r4, #16]
    8b38:	e1a06000 	mov	r6, r0
    8b3c:	e5945000 	ldr	r5, [r4]
    8b40:	e1a07001 	mov	r7, r1
    8b44:	e0855003 	add	r5, r5, r3
    8b48:	e3a03000 	mov	r3, #0
    8b4c:	e58d3004 	str	r3, [sp, #4]
    8b50:	ea000009 	b	8b7c <devicetree_find_node_prop+0x64>
    8b54:	e59dc004 	ldr	ip, [sp, #4]
    8b58:	e795310c 	ldr	r3, [r5, ip, lsl #2]
    8b5c:	e1a0c10c 	lsl	ip, ip, #2
    8b60:	e3530409 	cmp	r3, #150994944	; 0x9000000
    8b64:	0a00000d 	beq	8ba0 <devicetree_find_node_prop+0x88>
    8b68:	e5942010 	ldr	r2, [r4, #16]
    8b6c:	e594300c 	ldr	r3, [r4, #12]
    8b70:	e08cc002 	add	ip, ip, r2
    8b74:	e15c0003 	cmp	ip, r3
    8b78:	8a000008 	bhi	8ba0 <devicetree_find_node_prop+0x88>
    8b7c:	e1a03007 	mov	r3, r7
    8b80:	e1a02006 	mov	r2, r6
    8b84:	e28d1004 	add	r1, sp, #4
    8b88:	e1a00005 	mov	r0, r5
    8b8c:	ebffff4e 	bl	88cc <dt_parse_node>
    8b90:	e3500000 	cmp	r0, #0
    8b94:	0affffee 	beq	8b54 <devicetree_find_node_prop+0x3c>
    8b98:	e28dd00c 	add	sp, sp, #12
    8b9c:	e8bd80f0 	pop	{r4, r5, r6, r7, pc}
    8ba0:	e3e00001 	mvn	r0, #1
    8ba4:	e28dd00c 	add	sp, sp, #12
    8ba8:	e8bd80f0 	pop	{r4, r5, r6, r7, pc}
    8bac:	e3e00012 	mvn	r0, #18
    8bb0:	eafffff8 	b	8b98 <devicetree_find_node_prop+0x80>

00008bb4 <devicetree_prop_int.isra.0>:
    8bb4:	e3083410 	movw	r3, #33808	; 0x8410
    8bb8:	e3403002 	movt	r3, #2
    8bbc:	e5932004 	ldr	r2, [r3, #4]
    8bc0:	e3520000 	cmp	r2, #0
    8bc4:	012fff1e 	bxeq	lr
    8bc8:	e5932000 	ldr	r2, [r3]
    8bcc:	e5933010 	ldr	r3, [r3, #16]
    8bd0:	e0823003 	add	r3, r2, r3
    8bd4:	e7932100 	ldr	r2, [r3, r0, lsl #2]
    8bd8:	e0833100 	add	r3, r3, r0, lsl #2
    8bdc:	e3520301 	cmp	r2, #67108864	; 0x4000000
    8be0:	e5933008 	ldr	r3, [r3, #8]
    8be4:	e6bf2f32 	rev	r2, r2
    8be8:	e6bf3f33 	rev	r3, r3
    8bec:	e5813000 	str	r3, [r1]
    8bf0:	012fff1e 	bxeq	lr
    8bf4:	e30d023c 	movw	r0, #53820	; 0xd23c
    8bf8:	e1a01002 	mov	r1, r2
    8bfc:	e3400000 	movt	r0, #0
    8c00:	ea000fa2 	b	ca90 <printk>

00008c04 <devicetree_setup>:
    8c04:	e3083410 	movw	r3, #33808	; 0x8410
    8c08:	e3a01000 	mov	r1, #0
    8c0c:	e3403002 	movt	r3, #2
    8c10:	e30fceed 	movw	ip, #65261	; 0xfeed
    8c14:	e34dc00d 	movt	ip, #53261	; 0xd00d
    8c18:	e5831004 	str	r1, [r3, #4]
    8c1c:	e5902000 	ldr	r2, [r0]
    8c20:	e6bf2f32 	rev	r2, r2
    8c24:	e152000c 	cmp	r2, ip
    8c28:	e5832008 	str	r2, [r3, #8]
    8c2c:	1a000022 	bne	8cbc <devicetree_setup+0xb8>
    8c30:	e5830000 	str	r0, [r3]
    8c34:	e3a02001 	mov	r2, #1
    8c38:	e5832004 	str	r2, [r3, #4]
    8c3c:	e5902004 	ldr	r2, [r0, #4]
    8c40:	e6bf2f32 	rev	r2, r2
    8c44:	e583200c 	str	r2, [r3, #12]
    8c48:	e5902008 	ldr	r2, [r0, #8]
    8c4c:	e6bf2f32 	rev	r2, r2
    8c50:	e5832010 	str	r2, [r3, #16]
    8c54:	e590200c 	ldr	r2, [r0, #12]
    8c58:	e6bf2f32 	rev	r2, r2
    8c5c:	e5832014 	str	r2, [r3, #20]
    8c60:	e5902010 	ldr	r2, [r0, #16]
    8c64:	e6bf2f32 	rev	r2, r2
    8c68:	e5832018 	str	r2, [r3, #24]
    8c6c:	e5902014 	ldr	r2, [r0, #20]
    8c70:	e6bf2f32 	rev	r2, r2
    8c74:	e583201c 	str	r2, [r3, #28]
    8c78:	e3520001 	cmp	r2, #1
    8c7c:	e590c018 	ldr	ip, [r0, #24]
    8c80:	e6bfcf3c 	rev	ip, ip
    8c84:	e583c020 	str	ip, [r3, #32]
    8c88:	9a000009 	bls	8cb4 <devicetree_setup+0xb0>
    8c8c:	e590c01c 	ldr	ip, [r0, #28]
    8c90:	e3520002 	cmp	r2, #2
    8c94:	e6bf2f3c 	rev	r2, ip
    8c98:	e5832024 	str	r2, [r3, #36]	; 0x24
    8c9c:	0a000004 	beq	8cb4 <devicetree_setup+0xb0>
    8ca0:	e5902020 	ldr	r2, [r0, #32]
    8ca4:	e1a00001 	mov	r0, r1
    8ca8:	e6bf2f32 	rev	r2, r2
    8cac:	e5832028 	str	r2, [r3, #40]	; 0x28
    8cb0:	e12fff1e 	bx	lr
    8cb4:	e3a00000 	mov	r0, #0
    8cb8:	e12fff1e 	bx	lr
    8cbc:	e3e00012 	mvn	r0, #18
    8cc0:	e12fff1e 	bx	lr

00008cc4 <devicetree_find_reserved>:
    8cc4:	e92d4ff0 	push	{r4, r5, r6, r7, r8, r9, sl, fp, lr}
    8cc8:	e3085410 	movw	r5, #33808	; 0x8410
    8ccc:	e3405002 	movt	r5, #2
    8cd0:	e24dd00c 	sub	sp, sp, #12
    8cd4:	e5953004 	ldr	r3, [r5, #4]
    8cd8:	e3530000 	cmp	r3, #0
    8cdc:	0a00004e 	beq	8e1c <devicetree_find_reserved+0x158>
    8ce0:	e30d0268 	movw	r0, #53864	; 0xd268
    8ce4:	e3400000 	movt	r0, #0
    8ce8:	eb000f68 	bl	ca90 <printk>
    8cec:	e5951008 	ldr	r1, [r5, #8]
    8cf0:	e30d0278 	movw	r0, #53880	; 0xd278
    8cf4:	e3400000 	movt	r0, #0
    8cf8:	eb000f64 	bl	ca90 <printk>
    8cfc:	e595100c 	ldr	r1, [r5, #12]
    8d00:	e30d0288 	movw	r0, #53896	; 0xd288
    8d04:	e3400000 	movt	r0, #0
    8d08:	eb000f60 	bl	ca90 <printk>
    8d0c:	e5951010 	ldr	r1, [r5, #16]
    8d10:	e30d029c 	movw	r0, #53916	; 0xd29c
    8d14:	e3400000 	movt	r0, #0
    8d18:	eb000f5c 	bl	ca90 <printk>
    8d1c:	e5951014 	ldr	r1, [r5, #20]
    8d20:	e30d02b0 	movw	r0, #53936	; 0xd2b0
    8d24:	e3400000 	movt	r0, #0
    8d28:	eb000f58 	bl	ca90 <printk>
    8d2c:	e5951018 	ldr	r1, [r5, #24]
    8d30:	e30d02c4 	movw	r0, #53956	; 0xd2c4
    8d34:	e3400000 	movt	r0, #0
    8d38:	eb000f54 	bl	ca90 <printk>
    8d3c:	e595101c 	ldr	r1, [r5, #28]
    8d40:	e30d02d8 	movw	r0, #53976	; 0xd2d8
    8d44:	e3400000 	movt	r0, #0
    8d48:	eb000f50 	bl	ca90 <printk>
    8d4c:	e5951020 	ldr	r1, [r5, #32]
    8d50:	e30d02ec 	movw	r0, #53996	; 0xd2ec
    8d54:	e3400000 	movt	r0, #0
    8d58:	eb000f4c 	bl	ca90 <printk>
    8d5c:	e595301c 	ldr	r3, [r5, #28]
    8d60:	e3530001 	cmp	r3, #1
    8d64:	8a000020 	bhi	8dec <devicetree_find_reserved+0x128>
    8d68:	e5954000 	ldr	r4, [r5]
    8d6c:	e30d0320 	movw	r0, #54048	; 0xd320
    8d70:	e5953018 	ldr	r3, [r5, #24]
    8d74:	e30d9334 	movw	r9, #54068	; 0xd334
    8d78:	e3400000 	movt	r0, #0
    8d7c:	e0844003 	add	r4, r4, r3
    8d80:	e3409000 	movt	r9, #0
    8d84:	eb000f41 	bl	ca90 <printk>
    8d88:	ea00000d 	b	8dc4 <devicetree_find_reserved+0x100>
    8d8c:	e2844010 	add	r4, r4, #16
    8d90:	ebfffebc 	bl	8888 <big_to_little64>
    8d94:	e1a06000 	mov	r6, r0
    8d98:	e1a05001 	mov	r5, r1
    8d9c:	e1a00008 	mov	r0, r8
    8da0:	e1a01007 	mov	r1, r7
    8da4:	ebfffeb7 	bl	8888 <big_to_little64>
    8da8:	e1a0a000 	mov	sl, r0
    8dac:	e1a0b001 	mov	fp, r1
    8db0:	e1a02006 	mov	r2, r6
    8db4:	e1a03005 	mov	r3, r5
    8db8:	e1a00009 	mov	r0, r9
    8dbc:	e1cda0f0 	strd	sl, [sp]
    8dc0:	eb000f32 	bl	ca90 <printk>
    8dc4:	e5948000 	ldr	r8, [r4]
    8dc8:	e5947004 	ldr	r7, [r4, #4]
    8dcc:	e1c400d8 	ldrd	r0, [r4, #8]
    8dd0:	e1983007 	orrs	r3, r8, r7
    8dd4:	1affffec 	bne	8d8c <devicetree_find_reserved+0xc8>
    8dd8:	e1903001 	orrs	r3, r0, r1
    8ddc:	1affffea 	bne	8d8c <devicetree_find_reserved+0xc8>
    8de0:	e3a00000 	mov	r0, #0
    8de4:	e28dd00c 	add	sp, sp, #12
    8de8:	e8bd8ff0 	pop	{r4, r5, r6, r7, r8, r9, sl, fp, pc}
    8dec:	e5951024 	ldr	r1, [r5, #36]	; 0x24
    8df0:	e30d0300 	movw	r0, #54016	; 0xd300
    8df4:	e3400000 	movt	r0, #0
    8df8:	eb000f24 	bl	ca90 <printk>
    8dfc:	e595301c 	ldr	r3, [r5, #28]
    8e00:	e3530002 	cmp	r3, #2
    8e04:	9affffd7 	bls	8d68 <devicetree_find_reserved+0xa4>
    8e08:	e5951028 	ldr	r1, [r5, #40]	; 0x28
    8e0c:	e30d0310 	movw	r0, #54032	; 0xd310
    8e10:	e3400000 	movt	r0, #0
    8e14:	eb000f1d 	bl	ca90 <printk>
    8e18:	eaffffd2 	b	8d68 <devicetree_find_reserved+0xa4>
    8e1c:	e3e00012 	mvn	r0, #18
    8e20:	eaffffef 	b	8de4 <devicetree_find_reserved+0x120>

00008e24 <devicetree_find_string>:
    8e24:	e92d4010 	push	{r4, lr}
    8e28:	e1a04002 	mov	r4, r2
    8e2c:	ebffff39 	bl	8b18 <devicetree_find_node_prop>
    8e30:	e3083410 	movw	r3, #33808	; 0x8410
    8e34:	e3403002 	movt	r3, #2
    8e38:	e5932004 	ldr	r2, [r3, #4]
    8e3c:	e3520000 	cmp	r2, #0
    8e40:	0a00000f 	beq	8e84 <devicetree_find_string+0x60>
    8e44:	e5932000 	ldr	r2, [r3]
    8e48:	e5933010 	ldr	r3, [r3, #16]
    8e4c:	e0822003 	add	r2, r2, r3
    8e50:	e0823100 	add	r3, r2, r0, lsl #2
    8e54:	e7920100 	ldr	r0, [r2, r0, lsl #2]
    8e58:	e2833008 	add	r3, r3, #8
    8e5c:	e6bf0f30 	rev	r0, r0
    8e60:	e3500000 	cmp	r0, #0
    8e64:	0a000006 	beq	8e84 <devicetree_find_string+0x60>
    8e68:	e2433001 	sub	r3, r3, #1
    8e6c:	e2442001 	sub	r2, r4, #1
    8e70:	e0830000 	add	r0, r3, r0
    8e74:	e5f31001 	ldrb	r1, [r3, #1]!
    8e78:	e1530000 	cmp	r3, r0
    8e7c:	e5e21001 	strb	r1, [r2, #1]!
    8e80:	1afffffb 	bne	8e74 <devicetree_find_string+0x50>
    8e84:	e3a00000 	mov	r0, #0
    8e88:	e8bd8010 	pop	{r4, pc}

00008e8c <devicetree_find_int>:
    8e8c:	e92d4010 	push	{r4, lr}
    8e90:	e1a04002 	mov	r4, r2
    8e94:	ebffff1f 	bl	8b18 <devicetree_find_node_prop>
    8e98:	e1a01004 	mov	r1, r4
    8e9c:	ebffff44 	bl	8bb4 <devicetree_prop_int.isra.0>
    8ea0:	e3a00000 	mov	r0, #0
    8ea4:	e8bd8010 	pop	{r4, pc}

00008ea8 <devicetree_find_int64>:
    8ea8:	e92d4010 	push	{r4, lr}
    8eac:	e1a04002 	mov	r4, r2
    8eb0:	ebffff18 	bl	8b18 <devicetree_find_node_prop>
    8eb4:	e3081410 	movw	r1, #33808	; 0x8410
    8eb8:	e3401002 	movt	r1, #2
    8ebc:	e5913004 	ldr	r3, [r1, #4]
    8ec0:	e3530000 	cmp	r3, #0
    8ec4:	0a00000c 	beq	8efc <devicetree_find_int64+0x54>
    8ec8:	e5912010 	ldr	r2, [r1, #16]
    8ecc:	e5913000 	ldr	r3, [r1]
    8ed0:	e0833002 	add	r3, r3, r2
    8ed4:	e793c100 	ldr	ip, [r3, r0, lsl #2]
    8ed8:	e0830100 	add	r0, r3, r0, lsl #2
    8edc:	e6bf1f3c 	rev	r1, ip
    8ee0:	e35c0302 	cmp	ip, #134217728	; 0x8000000
    8ee4:	e5903008 	ldr	r3, [r0, #8]
    8ee8:	e590200c 	ldr	r2, [r0, #12]
    8eec:	e6bf3f33 	rev	r3, r3
    8ef0:	e6bf2f32 	rev	r2, r2
    8ef4:	e1c420f0 	strd	r2, [r4]
    8ef8:	1a000001 	bne	8f04 <devicetree_find_int64+0x5c>
    8efc:	e3a00000 	mov	r0, #0
    8f00:	e8bd8010 	pop	{r4, pc}
    8f04:	e30d0360 	movw	r0, #54112	; 0xd360
    8f08:	e3400000 	movt	r0, #0
    8f0c:	eb000edf 	bl	ca90 <printk>
    8f10:	e3a00000 	mov	r0, #0
    8f14:	e8bd8010 	pop	{r4, pc}

00008f18 <devicetree_get_memory>:
    8f18:	e30d138c 	movw	r1, #54156	; 0xd38c
    8f1c:	e3a00000 	mov	r0, #0
    8f20:	e92d43f0 	push	{r4, r5, r6, r7, r8, r9, lr}
    8f24:	e24dd02c 	sub	sp, sp, #44	; 0x2c
    8f28:	e3401000 	movt	r1, #0
    8f2c:	e3086410 	movw	r6, #33808	; 0x8410
    8f30:	e3406002 	movt	r6, #2
    8f34:	ebfffef7 	bl	8b18 <devicetree_find_node_prop>
    8f38:	e28d1014 	add	r1, sp, #20
    8f3c:	ebffff1c 	bl	8bb4 <devicetree_prop_int.isra.0>
    8f40:	e59d1014 	ldr	r1, [sp, #20]
    8f44:	e30d039c 	movw	r0, #54172	; 0xd39c
    8f48:	e3400000 	movt	r0, #0
    8f4c:	eb000ecf 	bl	ca90 <printk>
    8f50:	e30d13b8 	movw	r1, #54200	; 0xd3b8
    8f54:	e3a00000 	mov	r0, #0
    8f58:	e3401000 	movt	r1, #0
    8f5c:	ebfffeed 	bl	8b18 <devicetree_find_node_prop>
    8f60:	e28d1018 	add	r1, sp, #24
    8f64:	ebffff12 	bl	8bb4 <devicetree_prop_int.isra.0>
    8f68:	e59d1018 	ldr	r1, [sp, #24]
    8f6c:	e30d03c4 	movw	r0, #54212	; 0xd3c4
    8f70:	e3400000 	movt	r0, #0
    8f74:	eb000ec5 	bl	ca90 <printk>
    8f78:	e30d13e0 	movw	r1, #54240	; 0xd3e0
    8f7c:	e30d03e4 	movw	r0, #54244	; 0xd3e4
    8f80:	e3401000 	movt	r1, #0
    8f84:	e3400000 	movt	r0, #0
    8f88:	ebfffee2 	bl	8b18 <devicetree_find_node_prop>
    8f8c:	e5963010 	ldr	r3, [r6, #16]
    8f90:	e1a04000 	mov	r4, r0
    8f94:	e5965000 	ldr	r5, [r6]
    8f98:	e2809002 	add	r9, r0, #2
    8f9c:	e1a07100 	lsl	r7, r0, #2
    8fa0:	e0855003 	add	r5, r5, r3
    8fa4:	e7953100 	ldr	r3, [r5, r0, lsl #2]
    8fa8:	e6bf3f33 	rev	r3, r3
    8fac:	e58d301c 	str	r3, [sp, #28]
    8fb0:	e3530008 	cmp	r3, #8
    8fb4:	e0853007 	add	r3, r5, r7
    8fb8:	e5933004 	ldr	r3, [r3, #4]
    8fbc:	e6bf3f33 	rev	r3, r3
    8fc0:	e58d301c 	str	r3, [sp, #28]
    8fc4:	0a000002 	beq	8fd4 <devicetree_get_memory+0xbc>
    8fc8:	e30d03ec 	movw	r0, #54252	; 0xd3ec
    8fcc:	e3400000 	movt	r0, #0
    8fd0:	eb000eae 	bl	ca90 <printk>
    8fd4:	e59d3014 	ldr	r3, [sp, #20]
    8fd8:	e3530001 	cmp	r3, #1
    8fdc:	0a000067 	beq	9180 <devicetree_get_memory+0x268>
    8fe0:	e3530002 	cmp	r3, #2
    8fe4:	0a000050 	beq	912c <devicetree_get_memory+0x214>
    8fe8:	e30d0428 	movw	r0, #54312	; 0xd428
    8fec:	e3a07000 	mov	r7, #0
    8ff0:	e3400000 	movt	r0, #0
    8ff4:	e1a08007 	mov	r8, r7
    8ff8:	eb000ea4 	bl	ca90 <printk>
    8ffc:	e59d3018 	ldr	r3, [sp, #24]
    9000:	e3530001 	cmp	r3, #1
    9004:	0a000055 	beq	9160 <devicetree_get_memory+0x248>
    9008:	e3530002 	cmp	r3, #2
    900c:	0a00002b 	beq	90c0 <devicetree_get_memory+0x1a8>
    9010:	e30d0448 	movw	r0, #54344	; 0xd448
    9014:	e3400000 	movt	r0, #0
    9018:	eb000e9c 	bl	ca90 <printk>
    901c:	e30d13e0 	movw	r1, #54240	; 0xd3e0
    9020:	e30d0468 	movw	r0, #54376	; 0xd468
    9024:	e3401000 	movt	r1, #0
    9028:	e3400000 	movt	r0, #0
    902c:	ebfffeb9 	bl	8b18 <devicetree_find_node_prop>
    9030:	e5963010 	ldr	r3, [r6, #16]
    9034:	e1a05000 	mov	r5, r0
    9038:	e5964000 	ldr	r4, [r6]
    903c:	e1a06100 	lsl	r6, r0, #2
    9040:	e0844003 	add	r4, r4, r3
    9044:	e7943100 	ldr	r3, [r4, r0, lsl #2]
    9048:	e6bf7f33 	rev	r7, r3
    904c:	e3530302 	cmp	r3, #134217728	; 0x8000000
    9050:	0a000054 	beq	91a8 <devicetree_get_memory+0x290>
    9054:	e357000c 	cmp	r7, #12
    9058:	0a000064 	beq	91f0 <devicetree_get_memory+0x2d8>
    905c:	e3570018 	cmp	r7, #24
    9060:	0a00006d 	beq	921c <devicetree_get_memory+0x304>
    9064:	e30d04bc 	movw	r0, #54460	; 0xd4bc
    9068:	e1a01007 	mov	r1, r7
    906c:	e3400000 	movt	r0, #0
    9070:	eb000e86 	bl	ca90 <printk>
    9074:	e1b07127 	lsrs	r7, r7, #2
    9078:	0a00000d 	beq	90b4 <devicetree_get_memory+0x19c>
    907c:	e0877005 	add	r7, r7, r5
    9080:	e2866004 	add	r6, r6, #4
    9084:	e0846006 	add	r6, r4, r6
    9088:	e30d54e8 	movw	r5, #54504	; 0xd4e8
    908c:	e3405000 	movt	r5, #0
    9090:	e2844004 	add	r4, r4, #4
    9094:	e0844107 	add	r4, r4, r7, lsl #2
    9098:	e5b62004 	ldr	r2, [r6, #4]!
    909c:	e3a03000 	mov	r3, #0
    90a0:	e1a00005 	mov	r0, r5
    90a4:	e6bf2f32 	rev	r2, r2
    90a8:	eb000e78 	bl	ca90 <printk>
    90ac:	e1560004 	cmp	r6, r4
    90b0:	1afffff8 	bne	9098 <devicetree_get_memory+0x180>
    90b4:	e3a07000 	mov	r7, #0
    90b8:	e1a08007 	mov	r8, r7
    90bc:	ea000043 	b	91d0 <devicetree_get_memory+0x2b8>
    90c0:	e0851109 	add	r1, r5, r9, lsl #2
    90c4:	e3a02008 	mov	r2, #8
    90c8:	e28d0020 	add	r0, sp, #32
    90cc:	eb000cf7 	bl	c4b0 <memcpy>
    90d0:	e1cd02d0 	ldrd	r0, [sp, #32]
    90d4:	ebfffdeb 	bl	8888 <big_to_little64>
    90d8:	e1a05000 	mov	r5, r0
    90dc:	e1a04001 	mov	r4, r1
    90e0:	e3550b01 	cmp	r5, #1024	; 0x400
    90e4:	e2d43000 	sbcs	r3, r4, #0
    90e8:	3affffcb 	bcc	901c <devicetree_get_memory+0x104>
    90ec:	e1a03a25 	lsr	r3, r5, #20
    90f0:	e1833604 	orr	r3, r3, r4, lsl #12
    90f4:	e1a02a24 	lsr	r2, r4, #20
    90f8:	e58d3008 	str	r3, [sp, #8]
    90fc:	e30d052c 	movw	r0, #54572	; 0xd52c
    9100:	e58d200c 	str	r2, [sp, #12]
    9104:	e1a03004 	mov	r3, r4
    9108:	e58d7000 	str	r7, [sp]
    910c:	e1a02005 	mov	r2, r5
    9110:	e58d8004 	str	r8, [sp, #4]
    9114:	e3400000 	movt	r0, #0
    9118:	eb000e5c 	bl	ca90 <printk>
    911c:	e1a00005 	mov	r0, r5
    9120:	e1a01004 	mov	r1, r4
    9124:	e28dd02c 	add	sp, sp, #44	; 0x2c
    9128:	e8bd83f0 	pop	{r4, r5, r6, r7, r8, r9, pc}
    912c:	e2871008 	add	r1, r7, #8
    9130:	e3a02008 	mov	r2, #8
    9134:	e0851001 	add	r1, r5, r1
    9138:	e28d0020 	add	r0, sp, #32
    913c:	e2849004 	add	r9, r4, #4
    9140:	eb000cda 	bl	c4b0 <memcpy>
    9144:	e1cd02d0 	ldrd	r0, [sp, #32]
    9148:	ebfffdce 	bl	8888 <big_to_little64>
    914c:	e59d3018 	ldr	r3, [sp, #24]
    9150:	e1a07000 	mov	r7, r0
    9154:	e1a08001 	mov	r8, r1
    9158:	e3530001 	cmp	r3, #1
    915c:	1affffa9 	bne	9008 <devicetree_get_memory+0xf0>
    9160:	e0851109 	add	r1, r5, r9, lsl #2
    9164:	e28d001c 	add	r0, sp, #28
    9168:	e3a02004 	mov	r2, #4
    916c:	e3a04000 	mov	r4, #0
    9170:	eb000cce 	bl	c4b0 <memcpy>
    9174:	e59d501c 	ldr	r5, [sp, #28]
    9178:	e6bf5f35 	rev	r5, r5
    917c:	eaffffd7 	b	90e0 <devicetree_get_memory+0x1c8>
    9180:	e2871008 	add	r1, r7, #8
    9184:	e3a02004 	mov	r2, #4
    9188:	e0851001 	add	r1, r5, r1
    918c:	e28d001c 	add	r0, sp, #28
    9190:	e2849003 	add	r9, r4, #3
    9194:	eb000cc5 	bl	c4b0 <memcpy>
    9198:	e59d701c 	ldr	r7, [sp, #28]
    919c:	e3a08000 	mov	r8, #0
    91a0:	e6bf7f37 	rev	r7, r7
    91a4:	eaffff94 	b	8ffc <devicetree_get_memory+0xe4>
    91a8:	e0844006 	add	r4, r4, r6
    91ac:	e3a08000 	mov	r8, #0
    91b0:	e5947008 	ldr	r7, [r4, #8]
    91b4:	e594500c 	ldr	r5, [r4, #12]
    91b8:	e1a04008 	mov	r4, r8
    91bc:	e6bf7f37 	rev	r7, r7
    91c0:	e6bf5f35 	rev	r5, r5
    91c4:	e3550b01 	cmp	r5, #1024	; 0x400
    91c8:	e2d43000 	sbcs	r3, r4, #0
    91cc:	2affffc6 	bcs	90ec <devicetree_get_memory+0x1d4>
    91d0:	e30d04f4 	movw	r0, #54516	; 0xd4f4
    91d4:	e3a05201 	mov	r5, #268435456	; 0x10000000
    91d8:	e3400000 	movt	r0, #0
    91dc:	eb000e2b 	bl	ca90 <printk>
    91e0:	e3a02000 	mov	r2, #0
    91e4:	e3a03c01 	mov	r3, #256	; 0x100
    91e8:	e1a04002 	mov	r4, r2
    91ec:	eaffffc1 	b	90f8 <devicetree_get_memory+0x1e0>
    91f0:	e0844006 	add	r4, r4, r6
    91f4:	e1c400d8 	ldrd	r0, [r4, #8]
    91f8:	ebfffda2 	bl	8888 <big_to_little64>
    91fc:	e1a07000 	mov	r7, r0
    9200:	e1a08001 	mov	r8, r1
    9204:	e5940010 	ldr	r0, [r4, #16]
    9208:	e3a01000 	mov	r1, #0
    920c:	ebfffd9d 	bl	8888 <big_to_little64>
    9210:	e1a05000 	mov	r5, r0
    9214:	e1a04001 	mov	r4, r1
    9218:	eaffffe9 	b	91c4 <devicetree_get_memory+0x2ac>
    921c:	e0846006 	add	r6, r4, r6
    9220:	e3a04000 	mov	r4, #0
    9224:	e1c600d8 	ldrd	r0, [r6, #8]
    9228:	ebfffd96 	bl	8888 <big_to_little64>
    922c:	e5965010 	ldr	r5, [r6, #16]
    9230:	e1a07000 	mov	r7, r0
    9234:	e1a08001 	mov	r8, r1
    9238:	e1c601d4 	ldrd	r0, [r6, #20]
    923c:	e6bf5f35 	rev	r5, r5
    9240:	ebfffd90 	bl	8888 <big_to_little64>
    9244:	e596201c 	ldr	r2, [r6, #28]
    9248:	e1cd00f0 	strd	r0, [sp]
    924c:	e6bf2f32 	rev	r2, r2
    9250:	e30d0474 	movw	r0, #54388	; 0xd474
    9254:	e58d400c 	str	r4, [sp, #12]
    9258:	e1a03a22 	lsr	r3, r2, #20
    925c:	e58d3008 	str	r3, [sp, #8]
    9260:	e1a03004 	mov	r3, r4
    9264:	e3400000 	movt	r0, #0
    9268:	eb000e08 	bl	ca90 <printk>
    926c:	eaffffd4 	b	91c4 <devicetree_get_memory+0x2ac>

00009270 <platform_irq_enable>:
    9270:	e3053400 	movw	r3, #21504	; 0x5400
    9274:	e3403002 	movt	r3, #2
    9278:	e5933000 	ldr	r3, [r3]
    927c:	e3530010 	cmp	r3, #16
    9280:	0a000001 	beq	928c <platform_irq_enable+0x1c>
    9284:	e3a00000 	mov	r0, #0
    9288:	e12fff1e 	bx	lr
    928c:	e30d0564 	movw	r0, #54628	; 0xd564
    9290:	e92d4010 	push	{r4, lr}
    9294:	e3400000 	movt	r0, #0
    9298:	eb000dfc 	bl	ca90 <printk>
    929c:	e3a00000 	mov	r0, #0
    92a0:	e34f0f84 	movt	r0, #65412	; 0xff84
    92a4:	eb000093 	bl	94f8 <gic400_init>
    92a8:	e3a00000 	mov	r0, #0
    92ac:	e8bd8010 	pop	{r4, pc}

000092b0 <irq_enable>:
    92b0:	e3500040 	cmp	r0, #64	; 0x40
    92b4:	e92d4070 	push	{r4, r5, r6, lr}
    92b8:	e1a04000 	mov	r4, r0
    92bc:	ca00000f 	bgt	9300 <irq_enable+0x50>
    92c0:	e3500000 	cmp	r0, #0
    92c4:	e280301f 	add	r3, r0, #31
    92c8:	a1a03000 	movge	r3, r0
    92cc:	e30b5210 	movw	r5, #45584	; 0xb210
    92d0:	e204401f 	and	r4, r4, #31
    92d4:	e1a032c3 	asr	r3, r3, #5
    92d8:	e0855103 	add	r5, r5, r3, lsl #2
    92dc:	e1a00005 	mov	r0, r5
    92e0:	eb0004bb 	bl	a5d4 <bcm2835_read>
    92e4:	e3a01001 	mov	r1, #1
    92e8:	e1a03000 	mov	r3, r0
    92ec:	e1a00005 	mov	r0, r5
    92f0:	e1831411 	orr	r1, r3, r1, lsl r4
    92f4:	eb0004b0 	bl	a5bc <bcm2835_write>
    92f8:	e3a00000 	mov	r0, #0
    92fc:	e8bd8070 	pop	{r4, r5, r6, pc}
    9300:	e30d0580 	movw	r0, #54656	; 0xd580
    9304:	e1a01004 	mov	r1, r4
    9308:	e3400000 	movt	r0, #0
    930c:	eb000ddf 	bl	ca90 <printk>
    9310:	e3e00000 	mvn	r0, #0
    9314:	e8bd8070 	pop	{r4, r5, r6, pc}

00009318 <irq_disable>:
    9318:	e3500040 	cmp	r0, #64	; 0x40
    931c:	e92d4070 	push	{r4, r5, r6, lr}
    9320:	e1a04000 	mov	r4, r0
    9324:	ca00000f 	bgt	9368 <irq_disable+0x50>
    9328:	e3500000 	cmp	r0, #0
    932c:	e280301f 	add	r3, r0, #31
    9330:	a1a03000 	movge	r3, r0
    9334:	e30b521c 	movw	r5, #45596	; 0xb21c
    9338:	e204401f 	and	r4, r4, #31
    933c:	e1a032c3 	asr	r3, r3, #5
    9340:	e0855103 	add	r5, r5, r3, lsl #2
    9344:	e1a00005 	mov	r0, r5
    9348:	eb0004a1 	bl	a5d4 <bcm2835_read>
    934c:	e3a01001 	mov	r1, #1
    9350:	e1a03000 	mov	r3, r0
    9354:	e1a00005 	mov	r0, r5
    9358:	e1831411 	orr	r1, r3, r1, lsl r4
    935c:	eb000496 	bl	a5bc <bcm2835_write>
    9360:	e3a00000 	mov	r0, #0
    9364:	e8bd8070 	pop	{r4, r5, r6, pc}
    9368:	e30d0580 	movw	r0, #54656	; 0xd580
    936c:	e1a01004 	mov	r1, r4
    9370:	e3400000 	movt	r0, #0
    9374:	eb000dc5 	bl	ca90 <printk>
    9378:	e3e00000 	mvn	r0, #0
    937c:	e8bd8070 	pop	{r4, r5, r6, pc}

00009380 <interrupt_handler_c>:
    9380:	e92d41f0 	push	{r4, r5, r6, r7, r8, lr}
    9384:	e3054400 	movw	r4, #21504	; 0x5400
    9388:	e3404002 	movt	r4, #2
    938c:	e3a00cb2 	mov	r0, #45568	; 0xb200
    9390:	e5943000 	ldr	r3, [r4]
    9394:	e3530010 	cmp	r3, #16
    9398:	0a00001b 	beq	940c <interrupt_handler_c+0x8c>
    939c:	eb00048c 	bl	a5d4 <bcm2835_read>
    93a0:	e3100702 	tst	r0, #524288	; 0x80000
    93a4:	e1a05000 	mov	r5, r0
    93a8:	1a000006 	bne	93c8 <interrupt_handler_c+0x48>
    93ac:	e3100001 	tst	r0, #1
    93b0:	1a000021 	bne	943c <interrupt_handler_c+0xbc>
    93b4:	e30d05b8 	movw	r0, #54712	; 0xd5b8
    93b8:	e1a01005 	mov	r1, r5
    93bc:	e3400000 	movt	r0, #0
    93c0:	e8bd41f0 	pop	{r4, r5, r6, r7, r8, lr}
    93c4:	ea000db1 	b	ca90 <printk>
    93c8:	eb000583 	bl	a9dc <serial_interrupt_handler>
    93cc:	e3150001 	tst	r5, #1
    93d0:	1a000019 	bne	943c <interrupt_handler_c+0xbc>
    93d4:	e5943000 	ldr	r3, [r4]
    93d8:	e3530010 	cmp	r3, #16
    93dc:	1a000003 	bne	93f0 <interrupt_handler_c+0x70>
    93e0:	e3a03d4a 	mov	r3, #4736	; 0x1280
    93e4:	e3e02000 	mvn	r2, #0
    93e8:	e34f3f84 	movt	r3, #65412	; 0xff84
    93ec:	e5832000 	str	r2, [r3]
    93f0:	e3053410 	movw	r3, #21520	; 0x5410
    93f4:	e3403002 	movt	r3, #2
    93f8:	e5933000 	ldr	r3, [r3]
    93fc:	e3530000 	cmp	r3, #0
    9400:	08bd81f0 	popeq	{r4, r5, r6, r7, r8, pc}
    9404:	e8bd41f0 	pop	{r4, r5, r6, r7, r8, lr}
    9408:	ea000aa5 	b	bea4 <schedule>
    940c:	eb000470 	bl	a5d4 <bcm2835_read>
    9410:	e1a07000 	mov	r7, r0
    9414:	e30b0204 	movw	r0, #45572	; 0xb204
    9418:	eb00046d 	bl	a5d4 <bcm2835_read>
    941c:	e1a05000 	mov	r5, r0
    9420:	e30b0208 	movw	r0, #45576	; 0xb208
    9424:	eb00046a 	bl	a5d4 <bcm2835_read>
    9428:	e3150402 	tst	r5, #33554432	; 0x2000000
    942c:	e1a06000 	mov	r6, r0
    9430:	1a00000a 	bne	9460 <interrupt_handler_c+0xe0>
    9434:	e3100001 	tst	r0, #1
    9438:	0a000001 	beq	9444 <interrupt_handler_c+0xc4>
    943c:	eb000582 	bl	aa4c <timer_interrupt_handler>
    9440:	eaffffe3 	b	93d4 <interrupt_handler_c+0x54>
    9444:	e30d0590 	movw	r0, #54672	; 0xd590
    9448:	e1a03006 	mov	r3, r6
    944c:	e3400000 	movt	r0, #0
    9450:	e1a02005 	mov	r2, r5
    9454:	e1a01007 	mov	r1, r7
    9458:	e8bd41f0 	pop	{r4, r5, r6, r7, r8, lr}
    945c:	ea000d8b 	b	ca90 <printk>
    9460:	eb00055d 	bl	a9dc <serial_interrupt_handler>
    9464:	e3160001 	tst	r6, #1
    9468:	0affffd9 	beq	93d4 <interrupt_handler_c+0x54>
    946c:	eafffff2 	b	943c <interrupt_handler_c+0xbc>

00009470 <fiq_handler>:
    9470:	e24ee004 	sub	lr, lr, #4
    9474:	e92d401f 	push	{r0, r1, r2, r3, r4, lr}
    9478:	e30d05d8 	movw	r0, #54744	; 0xd5d8
    947c:	e3400000 	movt	r0, #0
    9480:	eb000d82 	bl	ca90 <printk>
    9484:	e8fd801f 	ldm	sp!, {r0, r1, r2, r3, r4, pc}^

00009488 <abort_handler>:
    9488:	e24ee004 	sub	lr, lr, #4
    948c:	e92d500f 	push	{r0, r1, r2, r3, ip, lr}
    9490:	e30d05e8 	movw	r0, #54760	; 0xd5e8
    9494:	e3400000 	movt	r0, #0
    9498:	eb000d7c 	bl	ca90 <printk>
    949c:	e8fd900f 	ldm	sp!, {r0, r1, r2, r3, ip, pc}^

000094a0 <undef_handler>:
    94a0:	e92d500f 	push	{r0, r1, r2, r3, ip, lr}
    94a4:	e30d05fc 	movw	r0, #54780	; 0xd5fc
    94a8:	e3400000 	movt	r0, #0
    94ac:	e1a0100e 	mov	r1, lr
    94b0:	eb000d76 	bl	ca90 <printk>
    94b4:	e8fd900f 	ldm	sp!, {r0, r1, r2, r3, ip, pc}^

000094b8 <interrupt_handler>:
    94b8:	e24ee004 	sub	lr, lr, #4
    94bc:	e59fd030 	ldr	sp, [pc, #48]	; 94f4 <exit_interrupt+0x18>
    94c0:	e59dd000 	ldr	sp, [sp]
    94c4:	e8cd7fff 	stmia	sp, {r0, r1, r2, r3, r4, r5, r6, r7, r8, r9, sl, fp, ip, sp, lr}^
    94c8:	e58de03c 	str	lr, [sp, #60]	; 0x3c
    94cc:	e14f0000 	mrs	r0, SPSR
    94d0:	e58d0040 	str	r0, [sp, #64]	; 0x40
    94d4:	e28dda02 	add	sp, sp, #8192	; 0x2000
    94d8:	ebffffa8 	bl	9380 <interrupt_handler_c>

000094dc <exit_interrupt>:
    94dc:	e24dda02 	sub	sp, sp, #8192	; 0x2000
    94e0:	e59d0040 	ldr	r0, [sp, #64]	; 0x40
    94e4:	e16ff000 	msr	SPSR_fsxc, r0
    94e8:	e59de03c 	ldr	lr, [sp, #60]	; 0x3c
    94ec:	e8dd7fff 	ldm	sp, {r0, r1, r2, r3, r4, r5, r6, r7, r8, r9, sl, fp, ip, sp, lr}^
    94f0:	e1b0f00e 	movs	pc, lr
    94f4:	00038008 	andeq	r8, r3, r8

000094f8 <gic400_init>:
    94f8:	e3a03a01 	mov	r3, #4096	; 0x1000
    94fc:	e3a02000 	mov	r2, #0
    9500:	e34f3f84 	movt	r3, #65412	; 0xff84
    9504:	e52de004 	push	{lr}		; (str lr, [sp, #-4]!)
    9508:	e5832000 	str	r2, [r3]
    950c:	e3012004 	movw	r2, #4100	; 0x1004
    9510:	e34f2f84 	movt	r2, #65412	; 0xff84
    9514:	e5922000 	ldr	r2, [r2]
    9518:	e308343c 	movw	r3, #33852	; 0x843c
    951c:	e202200f 	and	r2, r2, #15
    9520:	e3403002 	movt	r3, #2
    9524:	e3520000 	cmp	r2, #0
    9528:	e1a0e282 	lsl	lr, r2, #5
    952c:	e583e000 	str	lr, [r3]
    9530:	0a00002d 	beq	95ec <gic400_init+0xf4>
    9534:	e3a00e46 	mov	r0, #1120	; 0x460
    9538:	e3a03d46 	mov	r3, #4480	; 0x1180
    953c:	e3430fe1 	movt	r0, #16353	; 0x3fe1
    9540:	e0820000 	add	r0, r2, r0
    9544:	e3e02000 	mvn	r2, #0
    9548:	e34f3f84 	movt	r3, #65412	; 0xff84
    954c:	e1a00100 	lsl	r0, r0, #2
    9550:	e5832000 	str	r2, [r3]
    9554:	e2831c01 	add	r1, r3, #256	; 0x100
    9558:	e5812000 	str	r2, [r1]
    955c:	e2831c02 	add	r1, r3, #512	; 0x200
    9560:	e5812000 	str	r2, [r1]
    9564:	e2833004 	add	r3, r3, #4
    9568:	e1530000 	cmp	r3, r0
    956c:	1afffff7 	bne	9550 <gic400_init+0x58>
    9570:	e1b0212e 	lsrs	r2, lr, #2
    9574:	0a00000f 	beq	95b8 <gic400_init+0xc0>
    9578:	e3a01c05 	mov	r1, #1280	; 0x500
    957c:	e3a03b05 	mov	r3, #5120	; 0x1400
    9580:	e3431fe1 	movt	r1, #16353	; 0x3fe1
    9584:	e30ac0a0 	movw	ip, #41120	; 0xa0a0
    9588:	e0821001 	add	r1, r2, r1
    958c:	e3000101 	movw	r0, #257	; 0x101
    9590:	e34f3f84 	movt	r3, #65412	; 0xff84
    9594:	e34ac0a0 	movt	ip, #41120	; 0xa0a0
    9598:	e1a01101 	lsl	r1, r1, #2
    959c:	e3400101 	movt	r0, #257	; 0x101
    95a0:	e583c000 	str	ip, [r3]
    95a4:	e2832b01 	add	r2, r3, #1024	; 0x400
    95a8:	e5820000 	str	r0, [r2]
    95ac:	e2833004 	add	r3, r3, #4
    95b0:	e1510003 	cmp	r1, r3
    95b4:	1afffff9 	bne	95a0 <gic400_init+0xa8>
    95b8:	e1b0e22e 	lsrs	lr, lr, #4
    95bc:	0a00000a 	beq	95ec <gic400_init+0xf4>
    95c0:	e3a02c07 	mov	r2, #1792	; 0x700
    95c4:	e3a03b07 	mov	r3, #7168	; 0x1c00
    95c8:	e3432fe1 	movt	r2, #16353	; 0x3fe1
    95cc:	e3a01000 	mov	r1, #0
    95d0:	e08e2002 	add	r2, lr, r2
    95d4:	e34f3f84 	movt	r3, #65412	; 0xff84
    95d8:	e1a02102 	lsl	r2, r2, #2
    95dc:	e5831000 	str	r1, [r3]
    95e0:	e2833004 	add	r3, r3, #4
    95e4:	e1520003 	cmp	r2, r3
    95e8:	1afffffb 	bne	95dc <gic400_init+0xe4>
    95ec:	e3a03c11 	mov	r3, #4352	; 0x1100
    95f0:	e3a02102 	mov	r2, #-2147483648	; 0x80000000
    95f4:	e34f3f84 	movt	r3, #65412	; 0xff84
    95f8:	e5832000 	str	r2, [r3]
    95fc:	e3a03a01 	mov	r3, #4096	; 0x1000
    9600:	e3a02001 	mov	r2, #1
    9604:	e34f3f84 	movt	r3, #65412	; 0xff84
    9608:	e5832000 	str	r2, [r3]
    960c:	e3023004 	movw	r3, #8196	; 0x2004
    9610:	e3a010f0 	mov	r1, #240	; 0xf0
    9614:	e34f3f84 	movt	r3, #65412	; 0xff84
    9618:	e5831000 	str	r1, [r3]
    961c:	e3a03a02 	mov	r3, #8192	; 0x2000
    9620:	e34f3f84 	movt	r3, #65412	; 0xff84
    9624:	e5832000 	str	r2, [r3]
    9628:	e3a00000 	mov	r0, #0
    962c:	e49df004 	pop	{pc}		; (ldr pc, [sp], #4)

00009630 <swi_handler>:
    9630:	e59fd034 	ldr	sp, [pc, #52]	; 966c <swi_handler+0x3c>
    9634:	e59dd000 	ldr	sp, [sp]
    9638:	e8cd7fff 	stmia	sp, {r0, r1, r2, r3, r4, r5, r6, r7, r8, r9, sl, fp, ip, sp, lr}^
    963c:	e58de03c 	str	lr, [sp, #60]	; 0x3c
    9640:	e14fc000 	mrs	ip, SPSR
    9644:	e58dc040 	str	ip, [sp, #64]	; 0x40
    9648:	e28dda02 	add	sp, sp, #8192	; 0x2000
    964c:	eb000007 	bl	9670 <swi_handler_c>
    9650:	e24dda02 	sub	sp, sp, #8192	; 0x2000
    9654:	e58d0000 	str	r0, [sp]
    9658:	e59d0040 	ldr	r0, [sp, #64]	; 0x40
    965c:	e16ff000 	msr	SPSR_fsxc, r0
    9660:	e59de03c 	ldr	lr, [sp, #60]	; 0x3c
    9664:	e8dd7fff 	ldm	sp, {r0, r1, r2, r3, r4, r5, r6, r7, r8, r9, sl, fp, ip, sp, lr}^
    9668:	e1b0f00e 	movs	pc, lr
    966c:	00038008 	andeq	r8, r3, r8

00009670 <swi_handler_c>:
    9670:	e357007a 	cmp	r7, #122	; 0x7a
    9674:	e92d40b0 	push	{r4, r5, r7, lr}
    9678:	e1a04000 	mov	r4, r0
    967c:	ca000080 	bgt	9884 <swi_handler_c+0x214>
    9680:	e3570000 	cmp	r7, #0
    9684:	da000096 	ble	98e4 <swi_handler_c+0x274>
    9688:	e1a03002 	mov	r3, r2
    968c:	e2472001 	sub	r2, r7, #1
    9690:	e3520079 	cmp	r2, #121	; 0x79
    9694:	979ff102 	ldrls	pc, [pc, r2, lsl #2]
    9698:	ea000091 	b	98e4 <swi_handler_c+0x274>
    969c:	00009a28 	andeq	r9, r0, r8, lsr #20
    96a0:	000098e4 	andeq	r9, r0, r4, ror #17
    96a4:	00009a18 	andeq	r9, r0, r8, lsl sl
    96a8:	00009a08 	andeq	r9, r0, r8, lsl #20
    96ac:	000099f8 	strdeq	r9, [r0], -r8
    96b0:	000099ec 	andeq	r9, r0, ip, ror #19
    96b4:	000099cc 	andeq	r9, r0, ip, asr #19
    96b8:	000098e4 	andeq	r9, r0, r4, ror #17
    96bc:	000098e4 	andeq	r9, r0, r4, ror #17
    96c0:	000098e4 	andeq	r9, r0, r4, ror #17
    96c4:	000099a0 	andeq	r9, r0, r0, lsr #19
    96c8:	00009994 	muleq	r0, r4, r9
    96cc:	00009988 	andeq	r9, r0, r8, lsl #19
    96d0:	000098e4 	andeq	r9, r0, r4, ror #17
    96d4:	000098e4 	andeq	r9, r0, r4, ror #17
    96d8:	000098e4 	andeq	r9, r0, r4, ror #17
    96dc:	000098e4 	andeq	r9, r0, r4, ror #17
    96e0:	000098e4 	andeq	r9, r0, r4, ror #17
    96e4:	000098e4 	andeq	r9, r0, r4, ror #17
    96e8:	00009974 	andeq	r9, r0, r4, ror r9
    96ec:	000098e4 	andeq	r9, r0, r4, ror #17
    96f0:	000098e4 	andeq	r9, r0, r4, ror #17
    96f4:	000098e4 	andeq	r9, r0, r4, ror #17
    96f8:	000098e4 	andeq	r9, r0, r4, ror #17
    96fc:	000098e4 	andeq	r9, r0, r4, ror #17
    9700:	000098e4 	andeq	r9, r0, r4, ror #17
    9704:	000098e4 	andeq	r9, r0, r4, ror #17
    9708:	000098e4 	andeq	r9, r0, r4, ror #17
    970c:	000098e4 	andeq	r9, r0, r4, ror #17
    9710:	000098e4 	andeq	r9, r0, r4, ror #17
    9714:	000098e4 	andeq	r9, r0, r4, ror #17
    9718:	000098e4 	andeq	r9, r0, r4, ror #17
    971c:	000098e4 	andeq	r9, r0, r4, ror #17
    9720:	000098e4 	andeq	r9, r0, r4, ror #17
    9724:	000098e4 	andeq	r9, r0, r4, ror #17
    9728:	000098e4 	andeq	r9, r0, r4, ror #17
    972c:	000098e4 	andeq	r9, r0, r4, ror #17
    9730:	000098e4 	andeq	r9, r0, r4, ror #17
    9734:	000098e4 	andeq	r9, r0, r4, ror #17
    9738:	000098e4 	andeq	r9, r0, r4, ror #17
    973c:	000098e4 	andeq	r9, r0, r4, ror #17
    9740:	000098e4 	andeq	r9, r0, r4, ror #17
    9744:	00009968 	andeq	r9, r0, r8, ror #18
    9748:	000098e4 	andeq	r9, r0, r4, ror #17
    974c:	000098e4 	andeq	r9, r0, r4, ror #17
    9750:	000098e4 	andeq	r9, r0, r4, ror #17
    9754:	000098e4 	andeq	r9, r0, r4, ror #17
    9758:	000098e4 	andeq	r9, r0, r4, ror #17
    975c:	000098e4 	andeq	r9, r0, r4, ror #17
    9760:	000098e4 	andeq	r9, r0, r4, ror #17
    9764:	000098e4 	andeq	r9, r0, r4, ror #17
    9768:	000098e4 	andeq	r9, r0, r4, ror #17
    976c:	000098e4 	andeq	r9, r0, r4, ror #17
    9770:	00009950 	andeq	r9, r0, r0, asr r9
    9774:	000098e4 	andeq	r9, r0, r4, ror #17
    9778:	000098e4 	andeq	r9, r0, r4, ror #17
    977c:	000098e4 	andeq	r9, r0, r4, ror #17
    9780:	000098e4 	andeq	r9, r0, r4, ror #17
    9784:	000098e4 	andeq	r9, r0, r4, ror #17
    9788:	000098e4 	andeq	r9, r0, r4, ror #17
    978c:	000098e4 	andeq	r9, r0, r4, ror #17
    9790:	000098e4 	andeq	r9, r0, r4, ror #17
    9794:	000098e4 	andeq	r9, r0, r4, ror #17
    9798:	000098e4 	andeq	r9, r0, r4, ror #17
    979c:	000098e4 	andeq	r9, r0, r4, ror #17
    97a0:	000098e4 	andeq	r9, r0, r4, ror #17
    97a4:	000098e4 	andeq	r9, r0, r4, ror #17
    97a8:	000098e4 	andeq	r9, r0, r4, ror #17
    97ac:	000098e4 	andeq	r9, r0, r4, ror #17
    97b0:	000098e4 	andeq	r9, r0, r4, ror #17
    97b4:	000098e4 	andeq	r9, r0, r4, ror #17
    97b8:	000098e4 	andeq	r9, r0, r4, ror #17
    97bc:	000098e4 	andeq	r9, r0, r4, ror #17
    97c0:	000098e4 	andeq	r9, r0, r4, ror #17
    97c4:	000098e4 	andeq	r9, r0, r4, ror #17
    97c8:	000098e4 	andeq	r9, r0, r4, ror #17
    97cc:	000098e4 	andeq	r9, r0, r4, ror #17
    97d0:	000098e4 	andeq	r9, r0, r4, ror #17
    97d4:	000098e4 	andeq	r9, r0, r4, ror #17
    97d8:	000098e4 	andeq	r9, r0, r4, ror #17
    97dc:	000098e4 	andeq	r9, r0, r4, ror #17
    97e0:	000098e4 	andeq	r9, r0, r4, ror #17
    97e4:	000098e4 	andeq	r9, r0, r4, ror #17
    97e8:	000098e4 	andeq	r9, r0, r4, ror #17
    97ec:	000098e4 	andeq	r9, r0, r4, ror #17
    97f0:	000098e4 	andeq	r9, r0, r4, ror #17
    97f4:	000098e4 	andeq	r9, r0, r4, ror #17
    97f8:	00009920 	andeq	r9, r0, r0, lsr #18
    97fc:	000098e4 	andeq	r9, r0, r4, ror #17
    9800:	000098e4 	andeq	r9, r0, r4, ror #17
    9804:	000098e4 	andeq	r9, r0, r4, ror #17
    9808:	000098e4 	andeq	r9, r0, r4, ror #17
    980c:	000098e4 	andeq	r9, r0, r4, ror #17
    9810:	000098e4 	andeq	r9, r0, r4, ror #17
    9814:	000098e4 	andeq	r9, r0, r4, ror #17
    9818:	000098e4 	andeq	r9, r0, r4, ror #17
    981c:	000098e4 	andeq	r9, r0, r4, ror #17
    9820:	000098e4 	andeq	r9, r0, r4, ror #17
    9824:	000098e4 	andeq	r9, r0, r4, ror #17
    9828:	000098e4 	andeq	r9, r0, r4, ror #17
    982c:	000098e4 	andeq	r9, r0, r4, ror #17
    9830:	000098e4 	andeq	r9, r0, r4, ror #17
    9834:	000098e4 	andeq	r9, r0, r4, ror #17
    9838:	000098e4 	andeq	r9, r0, r4, ror #17
    983c:	000098e4 	andeq	r9, r0, r4, ror #17
    9840:	00009914 	andeq	r9, r0, r4, lsl r9
    9844:	000098e4 	andeq	r9, r0, r4, ror #17
    9848:	000098e4 	andeq	r9, r0, r4, ror #17
    984c:	000098e4 	andeq	r9, r0, r4, ror #17
    9850:	000098e4 	andeq	r9, r0, r4, ror #17
    9854:	000098e4 	andeq	r9, r0, r4, ror #17
    9858:	000098e4 	andeq	r9, r0, r4, ror #17
    985c:	000098e4 	andeq	r9, r0, r4, ror #17
    9860:	000098e4 	andeq	r9, r0, r4, ror #17
    9864:	000098e4 	andeq	r9, r0, r4, ror #17
    9868:	00009908 	andeq	r9, r0, r8, lsl #18
    986c:	000098e4 	andeq	r9, r0, r4, ror #17
    9870:	000098e4 	andeq	r9, r0, r4, ror #17
    9874:	000098e4 	andeq	r9, r0, r4, ror #17
    9878:	000098e4 	andeq	r9, r0, r4, ror #17
    987c:	000098e4 	andeq	r9, r0, r4, ror #17
    9880:	000098fc 	strdeq	r9, [r0], -ip
    9884:	e35700be 	cmp	r7, #190	; 0xbe
    9888:	0a000068 	beq	9a30 <swi_handler_c+0x3c0>
    988c:	da000008 	ble	98b4 <swi_handler_c+0x244>
    9890:	e3570a02 	cmp	r7, #8192	; 0x2000
    9894:	0a00006b 	beq	9a48 <swi_handler_c+0x3d8>
    9898:	e3023009 	movw	r3, #8201	; 0x2009
    989c:	e1570003 	cmp	r7, r3
    98a0:	1a00000f 	bne	98e4 <swi_handler_c+0x274>
    98a4:	eb000762 	bl	b634 <memory_allocate>
    98a8:	e1a07000 	mov	r7, r0
    98ac:	e1a00007 	mov	r0, r7
    98b0:	e8bd80b0 	pop	{r4, r5, r7, pc}
    98b4:	e35700a2 	cmp	r7, #162	; 0xa2
    98b8:	0a00005f 	beq	9a3c <swi_handler_c+0x3cc>
    98bc:	e35700b7 	cmp	r7, #183	; 0xb7
    98c0:	1a000002 	bne	98d0 <swi_handler_c+0x260>
    98c4:	eb0001c3 	bl	9fd8 <getcwd>
    98c8:	e1a07000 	mov	r7, r0
    98cc:	eafffff6 	b	98ac <swi_handler_c+0x23c>
    98d0:	e357008d 	cmp	r7, #141	; 0x8d
    98d4:	1a000002 	bne	98e4 <swi_handler_c+0x274>
    98d8:	eb00018a 	bl	9f08 <getdents>
    98dc:	e1a07000 	mov	r7, r0
    98e0:	eafffff1 	b	98ac <swi_handler_c+0x23c>
    98e4:	e30d065c 	movw	r0, #54876	; 0xd65c
    98e8:	e1a01007 	mov	r1, r7
    98ec:	e3400000 	movt	r0, #0
    98f0:	eb000c66 	bl	ca90 <printk>
    98f4:	e3a07000 	mov	r7, #0
    98f8:	eaffffeb 	b	98ac <swi_handler_c+0x23c>
    98fc:	eb0000af 	bl	9bc0 <uname>
    9900:	e1a07000 	mov	r7, r0
    9904:	eaffffe8 	b	98ac <swi_handler_c+0x23c>
    9908:	eb000082 	bl	9b18 <sysinfo>
    990c:	e1a07000 	mov	r7, r0
    9910:	eaffffe5 	b	98ac <swi_handler_c+0x23c>
    9914:	eb000152 	bl	9e64 <stat>
    9918:	e1a07000 	mov	r7, r0
    991c:	eaffffe2 	b	98ac <swi_handler_c+0x23c>
    9920:	e3a01001 	mov	r1, #1
    9924:	e3a00024 	mov	r0, #36	; 0x24
    9928:	e3451a00 	movt	r1, #23040	; 0x5a00
    992c:	e3400010 	movt	r0, #16
    9930:	eb000321 	bl	a5bc <bcm2835_write>
    9934:	e3a01020 	mov	r1, #32
    9938:	e3a0001c 	mov	r0, #28
    993c:	e3451a00 	movt	r1, #23040	; 0x5a00
    9940:	e3400010 	movt	r0, #16
    9944:	eb00031c 	bl	a5bc <bcm2835_write>
    9948:	e3e07000 	mvn	r7, #0
    994c:	eaffffd6 	b	98ac <swi_handler_c+0x23c>
    9950:	e30d0610 	movw	r0, #54800	; 0xd610
    9954:	e1a02001 	mov	r2, r1
    9958:	e3400000 	movt	r0, #0
    995c:	e1a01004 	mov	r1, r4
    9960:	eb000c4a 	bl	ca90 <printk>
    9964:	eafffff7 	b	9948 <swi_handler_c+0x2d8>
    9968:	eb000089 	bl	9b94 <times>
    996c:	e1a07000 	mov	r7, r0
    9970:	eaffffcd 	b	98ac <swi_handler_c+0x23c>
    9974:	e3083008 	movw	r3, #32776	; 0x8008
    9978:	e3403003 	movt	r3, #3
    997c:	e5933000 	ldr	r3, [r3]
    9980:	e59370a8 	ldr	r7, [r3, #168]	; 0xa8
    9984:	eaffffc8 	b	98ac <swi_handler_c+0x23c>
    9988:	eb000abf 	bl	c48c <time_since_boot>
    998c:	e1a07000 	mov	r7, r0
    9990:	eaffffc5 	b	98ac <swi_handler_c+0x23c>
    9994:	eb000177 	bl	9f78 <chdir>
    9998:	e1a07000 	mov	r7, r0
    999c:	eaffffc2 	b	98ac <swi_handler_c+0x23c>
    99a0:	e1a02003 	mov	r2, r3
    99a4:	eb00089d 	bl	bc20 <execve>
    99a8:	e3083008 	movw	r3, #32776	; 0x8008
    99ac:	e3a02001 	mov	r2, #1
    99b0:	e3403003 	movt	r3, #3
    99b4:	e1a07000 	mov	r7, r0
    99b8:	e5933000 	ldr	r3, [r3]
    99bc:	e59330b0 	ldr	r3, [r3, #176]	; 0xb0
    99c0:	e5832098 	str	r2, [r3, #152]	; 0x98
    99c4:	eb000936 	bl	bea4 <schedule>
    99c8:	eaffffb7 	b	98ac <swi_handler_c+0x23c>
    99cc:	e3080008 	movw	r0, #32776	; 0x8008
    99d0:	e1a02003 	mov	r2, r3
    99d4:	e3400003 	movt	r0, #3
    99d8:	e5903000 	ldr	r3, [r0]
    99dc:	e1a00004 	mov	r0, r4
    99e0:	eb0009c2 	bl	c0f0 <waitpid>
    99e4:	e1a07000 	mov	r7, r0
    99e8:	eaffffaf 	b	98ac <swi_handler_c+0x23c>
    99ec:	eb0000e0 	bl	9d74 <close>
    99f0:	e1a07000 	mov	r7, r0
    99f4:	eaffffac 	b	98ac <swi_handler_c+0x23c>
    99f8:	e1a02003 	mov	r2, r3
    99fc:	eb0000de 	bl	9d7c <open>
    9a00:	e1a07000 	mov	r7, r0
    9a04:	eaffffa8 	b	98ac <swi_handler_c+0x23c>
    9a08:	e1a02003 	mov	r2, r3
    9a0c:	eb000106 	bl	9e2c <write>
    9a10:	e1a07000 	mov	r7, r0
    9a14:	eaffffa4 	b	98ac <swi_handler_c+0x23c>
    9a18:	e1a02003 	mov	r2, r3
    9a1c:	eb0000de 	bl	9d9c <read>
    9a20:	e1a07000 	mov	r7, r0
    9a24:	eaffffa0 	b	98ac <swi_handler_c+0x23c>
    9a28:	eb000019 	bl	9a94 <exit>
    9a2c:	eaffffb0 	b	98f4 <swi_handler_c+0x284>
    9a30:	eb00097f 	bl	c034 <vfork>
    9a34:	e1a07000 	mov	r7, r0
    9a38:	eaffff9b 	b	98ac <swi_handler_c+0x23c>
    9a3c:	eb00001e 	bl	9abc <nanosleep>
    9a40:	e1a07000 	mov	r7, r0
    9a44:	eaffff98 	b	98ac <swi_handler_c+0x23c>
    9a48:	e3500000 	cmp	r0, #0
    9a4c:	1a000007 	bne	9a70 <swi_handler_c+0x400>
    9a50:	e30d0638 	movw	r0, #54840	; 0xd638
    9a54:	e1a07004 	mov	r7, r4
    9a58:	e3400000 	movt	r0, #0
    9a5c:	eb000c0b 	bl	ca90 <printk>
    9a60:	e305340c 	movw	r3, #21516	; 0x540c
    9a64:	e3403002 	movt	r3, #2
    9a68:	e5834000 	str	r4, [r3]
    9a6c:	eaffff8e 	b	98ac <swi_handler_c+0x23c>
    9a70:	e30d064c 	movw	r0, #54860	; 0xd64c
    9a74:	e3a07000 	mov	r7, #0
    9a78:	e3400000 	movt	r0, #0
    9a7c:	eb000c03 	bl	ca90 <printk>
    9a80:	e305340c 	movw	r3, #21516	; 0x540c
    9a84:	e3a02001 	mov	r2, #1
    9a88:	e3403002 	movt	r3, #2
    9a8c:	e5832000 	str	r2, [r3]
    9a90:	eaffff85 	b	98ac <swi_handler_c+0x23c>

00009a94 <exit>:
    9a94:	e3083008 	movw	r3, #32776	; 0x8008
    9a98:	e3a02002 	mov	r2, #2
    9a9c:	e3403003 	movt	r3, #3
    9aa0:	e92d4010 	push	{r4, lr}
    9aa4:	e5933000 	ldr	r3, [r3]
    9aa8:	e5832098 	str	r2, [r3, #152]	; 0x98
    9aac:	e58300ac 	str	r0, [r3, #172]	; 0xac
    9ab0:	eb000988 	bl	c0d8 <waitpid_done>
    9ab4:	e8bd4010 	pop	{r4, lr}
    9ab8:	ea0008f9 	b	bea4 <schedule>

00009abc <nanosleep>:
    9abc:	e5903004 	ldr	r3, [r0, #4]
    9ac0:	e30d1e83 	movw	r1, #56963	; 0xde83
    9ac4:	e344131b 	movt	r1, #17179	; 0x431b
    9ac8:	e3042dd3 	movw	r2, #19923	; 0x4dd3
    9acc:	e92d4010 	push	{r4, lr}
    9ad0:	e5904000 	ldr	r4, [r0]
    9ad4:	e0803391 	umull	r3, r0, r1, r3
    9ad8:	e3412062 	movt	r2, #4194	; 0x1062
    9adc:	e1a00920 	lsr	r0, r0, #18
    9ae0:	e1a04304 	lsl	r4, r4, #6
    9ae4:	e1a00300 	lsl	r0, r0, #6
    9ae8:	e0803092 	umull	r3, r0, r2, r0
    9aec:	e0844320 	add	r4, r4, r0, lsr #6
    9af0:	eb000a6a 	bl	c4a0 <ticks_since_boot>
    9af4:	e0844000 	add	r4, r4, r0
    9af8:	ea000000 	b	9b00 <nanosleep+0x44>
    9afc:	eb0003f9 	bl	aae8 <timer_sleep_until>
    9b00:	eb000a66 	bl	c4a0 <ticks_since_boot>
    9b04:	e1500004 	cmp	r0, r4
    9b08:	e1a00004 	mov	r0, r4
    9b0c:	9afffffa 	bls	9afc <nanosleep+0x40>
    9b10:	e3a00000 	mov	r0, #0
    9b14:	e8bd8010 	pop	{r4, pc}

00009b18 <sysinfo>:
    9b18:	e92d4010 	push	{r4, lr}
    9b1c:	e3a02040 	mov	r2, #64	; 0x40
    9b20:	e24dd008 	sub	sp, sp, #8
    9b24:	e3a01000 	mov	r1, #0
    9b28:	e1a04000 	mov	r4, r0
    9b2c:	eb000aac 	bl	c5e4 <memset>
    9b30:	eb000a5a 	bl	c4a0 <ticks_since_boot>
    9b34:	e1a00320 	lsr	r0, r0, #6
    9b38:	e5840000 	str	r0, [r4]
    9b3c:	eb00072c 	bl	b7f4 <memory_get_total>
    9b40:	e5840010 	str	r0, [r4, #16]
    9b44:	eb0006a5 	bl	b5e0 <memory_total_free>
    9b48:	e5840014 	str	r0, [r4, #20]
    9b4c:	e28d1004 	add	r1, sp, #4
    9b50:	e3a00001 	mov	r0, #1
    9b54:	eb000784 	bl	b96c <process_get_totals>
    9b58:	e59d2004 	ldr	r2, [sp, #4]
    9b5c:	e3083000 	movw	r3, #32768	; 0x8000
    9b60:	e3403003 	movt	r3, #3
    9b64:	e5842038 	str	r2, [r4, #56]	; 0x38
    9b68:	e5933000 	ldr	r3, [r3]
    9b6c:	e5840028 	str	r0, [r4, #40]	; 0x28
    9b70:	e3a00000 	mov	r0, #0
    9b74:	e59320a4 	ldr	r2, [r3, #164]	; 0xa4
    9b78:	e1520000 	cmp	r2, r0
    9b7c:	e282303f 	add	r3, r2, #63	; 0x3f
    9b80:	a1a03002 	movge	r3, r2
    9b84:	e1a03343 	asr	r3, r3, #6
    9b88:	e584303c 	str	r3, [r4, #60]	; 0x3c
    9b8c:	e28dd008 	add	sp, sp, #8
    9b90:	e8bd8010 	pop	{r4, pc}

00009b94 <times>:
    9b94:	e3082008 	movw	r2, #32776	; 0x8008
    9b98:	e1a03000 	mov	r3, r0
    9b9c:	e3402003 	movt	r2, #3
    9ba0:	e3a00000 	mov	r0, #0
    9ba4:	e5922000 	ldr	r2, [r2]
    9ba8:	e59220a4 	ldr	r2, [r2, #164]	; 0xa4
    9bac:	e5830004 	str	r0, [r3, #4]
    9bb0:	e5830008 	str	r0, [r3, #8]
    9bb4:	e5832000 	str	r2, [r3]
    9bb8:	e583000c 	str	r0, [r3, #12]
    9bbc:	e12fff1e 	bx	lr

00009bc0 <uname>:
    9bc0:	e30d1670 	movw	r1, #54896	; 0xd670
    9bc4:	e3a02041 	mov	r2, #65	; 0x41
    9bc8:	e92d4010 	push	{r4, lr}
    9bcc:	e1a04000 	mov	r4, r0
    9bd0:	e3401000 	movt	r1, #0
    9bd4:	eb000c17 	bl	cc38 <strlcpy>
    9bd8:	e3a02041 	mov	r2, #65	; 0x41
    9bdc:	e30d1678 	movw	r1, #54904	; 0xd678
    9be0:	e0840002 	add	r0, r4, r2
    9be4:	e3401000 	movt	r1, #0
    9be8:	eb000c12 	bl	cc38 <strlcpy>
    9bec:	e30d1048 	movw	r1, #53320	; 0xd048
    9bf0:	e3a02041 	mov	r2, #65	; 0x41
    9bf4:	e3401000 	movt	r1, #0
    9bf8:	e2840082 	add	r0, r4, #130	; 0x82
    9bfc:	eb000c0d 	bl	cc38 <strlcpy>
    9c00:	e30d167c 	movw	r1, #54908	; 0xd67c
    9c04:	e3a02041 	mov	r2, #65	; 0x41
    9c08:	e3401000 	movt	r1, #0
    9c0c:	e28400c3 	add	r0, r4, #195	; 0xc3
    9c10:	eb000c08 	bl	cc38 <strlcpy>
    9c14:	e30d169c 	movw	r1, #54940	; 0xd69c
    9c18:	e3a02041 	mov	r2, #65	; 0x41
    9c1c:	e3401000 	movt	r1, #0
    9c20:	e2840f41 	add	r0, r4, #260	; 0x104
    9c24:	eb000c03 	bl	cc38 <strlcpy>
    9c28:	e2840f51 	add	r0, r4, #324	; 0x144
    9c2c:	e30d16a4 	movw	r1, #54948	; 0xd6a4
    9c30:	e3401000 	movt	r1, #0
    9c34:	e3a02041 	mov	r2, #65	; 0x41
    9c38:	e2800001 	add	r0, r0, #1
    9c3c:	eb000bfd 	bl	cc38 <strlcpy>
    9c40:	e3a00000 	mov	r0, #0
    9c44:	e8bd8010 	pop	{r4, pc}

00009c48 <fd_free>:
    9c48:	e3e00008 	mvn	r0, #8
    9c4c:	e12fff1e 	bx	lr

00009c50 <fd_allocate>:
    9c50:	e3081440 	movw	r1, #33856	; 0x8440
    9c54:	e3a0c00c 	mov	ip, #12
    9c58:	e52de004 	push	{lr}		; (str lr, [sp, #-4]!)
    9c5c:	e1a0e000 	mov	lr, r0
    9c60:	e3401002 	movt	r1, #2
    9c64:	e3a00000 	mov	r0, #0
    9c68:	ea000002 	b	9c78 <fd_allocate+0x28>
    9c6c:	e2800001 	add	r0, r0, #1
    9c70:	e3500020 	cmp	r0, #32
    9c74:	0a000009 	beq	9ca0 <fd_allocate+0x50>
    9c78:	e003009c 	mul	r3, ip, r0
    9c7c:	e7912003 	ldr	r2, [r1, r3]
    9c80:	e3520000 	cmp	r2, #0
    9c84:	1afffff8 	bne	9c6c <fd_allocate+0x1c>
    9c88:	e081c003 	add	ip, r1, r3
    9c8c:	e58c2008 	str	r2, [ip, #8]
    9c90:	e3a02001 	mov	r2, #1
    9c94:	e58ce004 	str	lr, [ip, #4]
    9c98:	e7812003 	str	r2, [r1, r3]
    9c9c:	e49df004 	pop	{pc}		; (ldr pc, [sp], #4)
    9ca0:	e3e00016 	mvn	r0, #22
    9ca4:	e49df004 	pop	{pc}		; (ldr pc, [sp], #4)

00009ca8 <get_inode>:
    9ca8:	e92d4030 	push	{r4, r5, lr}
    9cac:	e1a04000 	mov	r4, r0
    9cb0:	e5d03000 	ldrb	r3, [r0]
    9cb4:	e24ddf41 	sub	sp, sp, #260	; 0x104
    9cb8:	e353002f 	cmp	r3, #47	; 0x2f
    9cbc:	13082008 	movwne	r2, #32776	; 0x8008
    9cc0:	03082440 	movweq	r2, #33856	; 0x8440
    9cc4:	13402003 	movtne	r2, #3
    9cc8:	02804001 	addeq	r4, r0, #1
    9ccc:	05d03001 	ldrbeq	r3, [r0, #1]
    9cd0:	03402002 	movteq	r2, #2
    9cd4:	15922000 	ldrne	r2, [r2]
    9cd8:	05920180 	ldreq	r0, [r2, #384]	; 0x180
    9cdc:	159200b4 	ldrne	r0, [r2, #180]	; 0xb4
    9ce0:	e3530000 	cmp	r3, #0
    9ce4:	0a00001d 	beq	9d60 <get_inode+0xb8>
    9ce8:	e3a01000 	mov	r1, #0
    9cec:	e2844001 	add	r4, r4, #1
    9cf0:	e1a0c00d 	mov	ip, sp
    9cf4:	e1a05001 	mov	r5, r1
    9cf8:	ea000007 	b	9d1c <get_inode+0x74>
    9cfc:	e4c23001 	strb	r3, [r2], #1
    9d00:	e5d43000 	ldrb	r3, [r4]
    9d04:	e3530000 	cmp	r3, #0
    9d08:	0a000010 	beq	9d50 <get_inode+0xa8>
    9d0c:	e35100ff 	cmp	r1, #255	; 0xff
    9d10:	0a000014 	beq	9d68 <get_inode+0xc0>
    9d14:	e2844001 	add	r4, r4, #1
    9d18:	e1a0c002 	mov	ip, r2
    9d1c:	e353002f 	cmp	r3, #47	; 0x2f
    9d20:	e1a0200c 	mov	r2, ip
    9d24:	e2811001 	add	r1, r1, #1
    9d28:	1afffff3 	bne	9cfc <get_inode+0x54>
    9d2c:	e5cc5000 	strb	r5, [ip]
    9d30:	e1a0100d 	mov	r1, sp
    9d34:	eb000109 	bl	a160 <romfs_get_inode>
    9d38:	e5d43000 	ldrb	r3, [r4]
    9d3c:	e3a01000 	mov	r1, #0
    9d40:	e1a0200d 	mov	r2, sp
    9d44:	e1530001 	cmp	r3, r1
    9d48:	1afffff1 	bne	9d14 <get_inode+0x6c>
    9d4c:	e1a0200d 	mov	r2, sp
    9d50:	e3a03000 	mov	r3, #0
    9d54:	e5c23000 	strb	r3, [r2]
    9d58:	e1a0100d 	mov	r1, sp
    9d5c:	eb0000ff 	bl	a160 <romfs_get_inode>
    9d60:	e28ddf41 	add	sp, sp, #260	; 0x104
    9d64:	e8bd8030 	pop	{r4, r5, pc}
    9d68:	e3a03000 	mov	r3, #0
    9d6c:	e5cc3001 	strb	r3, [ip, #1]
    9d70:	eafffff8 	b	9d58 <get_inode+0xb0>

00009d74 <close>:
    9d74:	e3e00008 	mvn	r0, #8
    9d78:	e12fff1e 	bx	lr

00009d7c <open>:
    9d7c:	e92d4010 	push	{r4, lr}
    9d80:	ebffffc8 	bl	9ca8 <get_inode>
    9d84:	e3500000 	cmp	r0, #0
    9d88:	ba000001 	blt	9d94 <open+0x18>
    9d8c:	e8bd4010 	pop	{r4, lr}
    9d90:	eaffffae 	b	9c50 <fd_allocate>
    9d94:	e3e00001 	mvn	r0, #1
    9d98:	e8bd8010 	pop	{r4, pc}

00009d9c <read>:
    9d9c:	e250c000 	subs	ip, r0, #0
    9da0:	e1a03002 	mov	r3, r2
    9da4:	e92d4010 	push	{r4, lr}
    9da8:	e1a0e001 	mov	lr, r1
    9dac:	0a000012 	beq	9dfc <read+0x60>
    9db0:	e35c001f 	cmp	ip, #31
    9db4:	8a000014 	bhi	9e0c <read+0x70>
    9db8:	e3081440 	movw	r1, #33856	; 0x8440
    9dbc:	e3a0200c 	mov	r2, #12
    9dc0:	e3401002 	movt	r1, #2
    9dc4:	e0020c92 	mul	r2, r2, ip
    9dc8:	e7910002 	ldr	r0, [r1, r2]
    9dcc:	e0814002 	add	r4, r1, r2
    9dd0:	e3500000 	cmp	r0, #0
    9dd4:	0a00000e 	beq	9e14 <read+0x78>
    9dd8:	e1c400d4 	ldrd	r0, [r4, #4]
    9ddc:	e1a0200e 	mov	r2, lr
    9de0:	eb000161 	bl	a36c <romfs_read_file>
    9de4:	e3500000 	cmp	r0, #0
    9de8:	d8bd8010 	pople	{r4, pc}
    9dec:	e5943008 	ldr	r3, [r4, #8]
    9df0:	e0833000 	add	r3, r3, r0
    9df4:	e5843008 	str	r3, [r4, #8]
    9df8:	e8bd8010 	pop	{r4, pc}
    9dfc:	e1a0000e 	mov	r0, lr
    9e00:	e1a01002 	mov	r1, r2
    9e04:	e8bd4010 	pop	{r4, lr}
    9e08:	ea00023d 	b	a704 <console_read>
    9e0c:	e3e00016 	mvn	r0, #22
    9e10:	e8bd8010 	pop	{r4, pc}
    9e14:	e30d06ac 	movw	r0, #54956	; 0xd6ac
    9e18:	e1a0100c 	mov	r1, ip
    9e1c:	e3400000 	movt	r0, #0
    9e20:	eb000b1a 	bl	ca90 <printk>
    9e24:	e3e00008 	mvn	r0, #8
    9e28:	e8bd8010 	pop	{r4, pc}

00009e2c <write>:
    9e2c:	e240c001 	sub	ip, r0, #1
    9e30:	e35c0001 	cmp	ip, #1
    9e34:	8a000002 	bhi	9e44 <write+0x18>
    9e38:	e1a00001 	mov	r0, r1
    9e3c:	e1a01002 	mov	r1, r2
    9e40:	ea00022e 	b	a700 <console_write>
    9e44:	e1a03000 	mov	r3, r0
    9e48:	e30d06d8 	movw	r0, #55000	; 0xd6d8
    9e4c:	e3400000 	movt	r0, #0
    9e50:	e1a01003 	mov	r1, r3
    9e54:	e92d4010 	push	{r4, lr}
    9e58:	eb000b0c 	bl	ca90 <printk>
    9e5c:	e3e00008 	mvn	r0, #8
    9e60:	e8bd8010 	pop	{r4, pc}

00009e64 <stat>:
    9e64:	e92d4010 	push	{r4, lr}
    9e68:	e1a04001 	mov	r4, r1
    9e6c:	ebffff8d 	bl	9ca8 <get_inode>
    9e70:	e3500000 	cmp	r0, #0
    9e74:	ba000002 	blt	9e84 <stat+0x20>
    9e78:	e1a01004 	mov	r1, r4
    9e7c:	e8bd4010 	pop	{r4, lr}
    9e80:	ea000066 	b	a020 <romfs_stat>
    9e84:	e3e00001 	mvn	r0, #1
    9e88:	e8bd8010 	pop	{r4, pc}

00009e8c <mount>:
    9e8c:	e30d105c 	movw	r1, #53340	; 0xd05c
    9e90:	e1a00002 	mov	r0, r2
    9e94:	e92d4070 	push	{r4, r5, r6, lr}
    9e98:	e3a02005 	mov	r2, #5
    9e9c:	e3401000 	movt	r1, #0
    9ea0:	eb000b2a 	bl	cb50 <strncmp>
    9ea4:	e2504000 	subs	r4, r0, #0
    9ea8:	1a000007 	bne	9ecc <mount+0x40>
    9eac:	e3085440 	movw	r5, #33856	; 0x8440
    9eb0:	e3405002 	movt	r5, #2
    9eb4:	e2850f61 	add	r0, r5, #388	; 0x184
    9eb8:	eb0000f4 	bl	a290 <romfs_mount>
    9ebc:	e3500000 	cmp	r0, #0
    9ec0:	a5850180 	strge	r0, [r5, #384]	; 0x180
    9ec4:	a1a00004 	movge	r0, r4
    9ec8:	e8bd8070 	pop	{r4, r5, r6, pc}
    9ecc:	e3e00012 	mvn	r0, #18
    9ed0:	e8bd8070 	pop	{r4, r5, r6, pc}

00009ed4 <fd_table_init>:
    9ed4:	e3a03000 	mov	r3, #0
    9ed8:	e3082440 	movw	r2, #33856	; 0x8440
    9edc:	e3402002 	movt	r2, #2
    9ee0:	e1a01003 	mov	r1, r3
    9ee4:	e7821103 	str	r1, [r2, r3, lsl #2]
    9ee8:	e2833003 	add	r3, r3, #3
    9eec:	e3530060 	cmp	r3, #96	; 0x60
    9ef0:	1afffffb 	bne	9ee4 <fd_table_init+0x10>
    9ef4:	e3a03001 	mov	r3, #1
    9ef8:	e5823000 	str	r3, [r2]
    9efc:	e582300c 	str	r3, [r2, #12]
    9f00:	e5823018 	str	r3, [r2, #24]
    9f04:	e12fff1e 	bx	lr

00009f08 <getdents>:
    9f08:	e350001f 	cmp	r0, #31
    9f0c:	8a000017 	bhi	9f70 <getdents+0x68>
    9f10:	e92d4070 	push	{r4, r5, r6, lr}
    9f14:	e3a0c00c 	mov	ip, #12
    9f18:	e308e440 	movw	lr, #33856	; 0x8440
    9f1c:	e1a03002 	mov	r3, r2
    9f20:	e340e002 	movt	lr, #2
    9f24:	e1a05001 	mov	r5, r1
    9f28:	e00c009c 	mul	ip, ip, r0
    9f2c:	e1a04000 	mov	r4, r0
    9f30:	e79e200c 	ldr	r2, [lr, ip]
    9f34:	e08e100c 	add	r1, lr, ip
    9f38:	e3520000 	cmp	r2, #0
    9f3c:	0a000005 	beq	9f58 <getdents+0x50>
    9f40:	e5910004 	ldr	r0, [r1, #4]
    9f44:	e28cc008 	add	ip, ip, #8
    9f48:	e08e100c 	add	r1, lr, ip
    9f4c:	e1a02005 	mov	r2, r5
    9f50:	e8bd4070 	pop	{r4, r5, r6, lr}
    9f54:	ea000125 	b	a3f0 <romfs_getdents>
    9f58:	e30d0700 	movw	r0, #55040	; 0xd700
    9f5c:	e1a01004 	mov	r1, r4
    9f60:	e3400000 	movt	r0, #0
    9f64:	eb000ac9 	bl	ca90 <printk>
    9f68:	e3e00008 	mvn	r0, #8
    9f6c:	e8bd8070 	pop	{r4, r5, r6, pc}
    9f70:	e3e00016 	mvn	r0, #22
    9f74:	e12fff1e 	bx	lr

00009f78 <chdir>:
    9f78:	e92d4010 	push	{r4, lr}
    9f7c:	e24dd038 	sub	sp, sp, #56	; 0x38
    9f80:	ebffff48 	bl	9ca8 <get_inode>
    9f84:	e2504000 	subs	r4, r0, #0
    9f88:	ba00000e 	blt	9fc8 <chdir+0x50>
    9f8c:	e28d1004 	add	r1, sp, #4
    9f90:	eb000022 	bl	a020 <romfs_stat>
    9f94:	e3500000 	cmp	r0, #0
    9f98:	ba000008 	blt	9fc0 <chdir+0x48>
    9f9c:	e59d300c 	ldr	r3, [sp, #12]
    9fa0:	e2033a0f 	and	r3, r3, #61440	; 0xf000
    9fa4:	e3530901 	cmp	r3, #16384	; 0x4000
    9fa8:	1a000008 	bne	9fd0 <chdir+0x58>
    9fac:	e3083008 	movw	r3, #32776	; 0x8008
    9fb0:	e3a00000 	mov	r0, #0
    9fb4:	e3403003 	movt	r3, #3
    9fb8:	e5933000 	ldr	r3, [r3]
    9fbc:	e58340b4 	str	r4, [r3, #180]	; 0xb4
    9fc0:	e28dd038 	add	sp, sp, #56	; 0x38
    9fc4:	e8bd8010 	pop	{r4, pc}
    9fc8:	e3e00001 	mvn	r0, #1
    9fcc:	eafffffb 	b	9fc0 <chdir+0x48>
    9fd0:	e3e00013 	mvn	r0, #19
    9fd4:	eafffff9 	b	9fc0 <chdir+0x48>

00009fd8 <getcwd>:
    9fd8:	e3083008 	movw	r3, #32776	; 0x8008
    9fdc:	e3403003 	movt	r3, #3
    9fe0:	e92d4030 	push	{r4, r5, lr}
    9fe4:	e24dd03c 	sub	sp, sp, #60	; 0x3c
    9fe8:	e5933000 	ldr	r3, [r3]
    9fec:	e1a04000 	mov	r4, r0
    9ff0:	e1a05001 	mov	r5, r1
    9ff4:	e28d1004 	add	r1, sp, #4
    9ff8:	e59300b4 	ldr	r0, [r3, #180]	; 0xb4
    9ffc:	eb000007 	bl	a020 <romfs_stat>
    a000:	e30d1730 	movw	r1, #55088	; 0xd730
    a004:	e1a02005 	mov	r2, r5
    a008:	e3401000 	movt	r1, #0
    a00c:	e1a00004 	mov	r0, r4
    a010:	eb000af1 	bl	cbdc <strncpy>
    a014:	e1a00004 	mov	r0, r4
    a018:	e28dd03c 	add	sp, sp, #60	; 0x3c
    a01c:	e8bd8030 	pop	{r4, r5, pc}

0000a020 <romfs_stat>:
    a020:	e92d4070 	push	{r4, r5, r6, lr}
    a024:	e1a06000 	mov	r6, r0
    a028:	e24dd008 	sub	sp, sp, #8
    a02c:	e1a05001 	mov	r5, r1
    a030:	e3a02034 	mov	r2, #52	; 0x34
    a034:	e3a01000 	mov	r1, #0
    a038:	e1a00005 	mov	r0, r5
    a03c:	eb000968 	bl	c5e4 <memset>
    a040:	e5856004 	str	r6, [r5, #4]
    a044:	e30031b6 	movw	r3, #438	; 0x1b6
    a048:	e5853008 	str	r3, [r5, #8]
    a04c:	e28d2004 	add	r2, sp, #4
    a050:	e3a01004 	mov	r1, #4
    a054:	e1a00006 	mov	r0, r6
    a058:	eb000163 	bl	a5ec <ramdisk_read>
    a05c:	e59d4004 	ldr	r4, [sp, #4]
    a060:	e3a01004 	mov	r1, #4
    a064:	e6bf4f34 	rev	r4, r4
    a068:	e0860001 	add	r0, r6, r1
    a06c:	e3140008 	tst	r4, #8
    a070:	e2044007 	and	r4, r4, #7
    a074:	e28d2004 	add	r2, sp, #4
    a078:	15953008 	ldrne	r3, [r5, #8]
    a07c:	e2444001 	sub	r4, r4, #1
    a080:	13833049 	orrne	r3, r3, #73	; 0x49
    a084:	15853008 	strne	r3, [r5, #8]
    a088:	eb000157 	bl	a5ec <ramdisk_read>
    a08c:	e59d3004 	ldr	r3, [sp, #4]
    a090:	e6bf3f33 	rev	r3, r3
    a094:	e3540006 	cmp	r4, #6
    a098:	979ff104 	ldrls	pc, [pc, r4, lsl #2]
    a09c:	ea00002d 	b	a158 <romfs_stat+0x138>
    a0a0:	0000a148 	andeq	sl, r0, r8, asr #2
    a0a4:	0000a138 	andeq	sl, r0, r8, lsr r1
    a0a8:	0000a128 	andeq	sl, r0, r8, lsr #2
    a0ac:	0000a114 	andeq	sl, r0, r4, lsl r1
    a0b0:	0000a100 	andeq	sl, r0, r0, lsl #2
    a0b4:	0000a0f0 	strdeq	sl, [r0], -r0
    a0b8:	0000a0bc 	strheq	sl, [r0], -ip
    a0bc:	e5953008 	ldr	r3, [r5, #8]
    a0c0:	e3833a01 	orr	r3, r3, #4096	; 0x1000
    a0c4:	e5853008 	str	r3, [r5, #8]
    a0c8:	e28d2004 	add	r2, sp, #4
    a0cc:	e3a01004 	mov	r1, #4
    a0d0:	e2860008 	add	r0, r6, #8
    a0d4:	eb000144 	bl	a5ec <ramdisk_read>
    a0d8:	e59d3004 	ldr	r3, [sp, #4]
    a0dc:	e3a00000 	mov	r0, #0
    a0e0:	e6bf3f33 	rev	r3, r3
    a0e4:	e585301c 	str	r3, [r5, #28]
    a0e8:	e28dd008 	add	sp, sp, #8
    a0ec:	e8bd8070 	pop	{r4, r5, r6, pc}
    a0f0:	e5953008 	ldr	r3, [r5, #8]
    a0f4:	e3833903 	orr	r3, r3, #49152	; 0xc000
    a0f8:	e5853008 	str	r3, [r5, #8]
    a0fc:	eafffff1 	b	a0c8 <romfs_stat+0xa8>
    a100:	e5952008 	ldr	r2, [r5, #8]
    a104:	e5853018 	str	r3, [r5, #24]
    a108:	e3823a02 	orr	r3, r2, #8192	; 0x2000
    a10c:	e5853008 	str	r3, [r5, #8]
    a110:	eaffffec 	b	a0c8 <romfs_stat+0xa8>
    a114:	e5952008 	ldr	r2, [r5, #8]
    a118:	e5853018 	str	r3, [r5, #24]
    a11c:	e3823a06 	orr	r3, r2, #24576	; 0x6000
    a120:	e5853008 	str	r3, [r5, #8]
    a124:	eaffffe7 	b	a0c8 <romfs_stat+0xa8>
    a128:	e5953008 	ldr	r3, [r5, #8]
    a12c:	e3833a0a 	orr	r3, r3, #40960	; 0xa000
    a130:	e5853008 	str	r3, [r5, #8]
    a134:	eaffffe3 	b	a0c8 <romfs_stat+0xa8>
    a138:	e5953008 	ldr	r3, [r5, #8]
    a13c:	e3833902 	orr	r3, r3, #32768	; 0x8000
    a140:	e5853008 	str	r3, [r5, #8]
    a144:	eaffffdf 	b	a0c8 <romfs_stat+0xa8>
    a148:	e5953008 	ldr	r3, [r5, #8]
    a14c:	e3833901 	orr	r3, r3, #16384	; 0x4000
    a150:	e5853008 	str	r3, [r5, #8]
    a154:	eaffffdb 	b	a0c8 <romfs_stat+0xa8>
    a158:	e1a06003 	mov	r6, r3
    a15c:	eaffffb3 	b	a030 <romfs_stat+0x10>

0000a160 <romfs_get_inode>:
    a160:	e92d43f0 	push	{r4, r5, r6, r7, r8, r9, lr}
    a164:	e24ddf47 	sub	sp, sp, #284	; 0x11c
    a168:	e28d2004 	add	r2, sp, #4
    a16c:	e1a05000 	mov	r5, r0
    a170:	e1a08001 	mov	r8, r1
    a174:	e3a01004 	mov	r1, #4
    a178:	eb00011b 	bl	a5ec <ramdisk_read>
    a17c:	e59d4004 	ldr	r4, [sp, #4]
    a180:	e28d2004 	add	r2, sp, #4
    a184:	e2850004 	add	r0, r5, #4
    a188:	e3a01004 	mov	r1, #4
    a18c:	e6bf4f34 	rev	r4, r4
    a190:	e2044007 	and	r4, r4, #7
    a194:	eb000114 	bl	a5ec <ramdisk_read>
    a198:	e59d7004 	ldr	r7, [sp, #4]
    a19c:	e3540001 	cmp	r4, #1
    a1a0:	e6bf7f37 	rev	r7, r7
    a1a4:	1a000037 	bne	a288 <romfs_get_inode+0x128>
    a1a8:	e3a09000 	mov	r9, #0
    a1ac:	e28d2004 	add	r2, sp, #4
    a1b0:	e3a01004 	mov	r1, #4
    a1b4:	e1a00007 	mov	r0, r7
    a1b8:	e3a04c01 	mov	r4, #256	; 0x100
    a1bc:	e2875e11 	add	r5, r7, #272	; 0x110
    a1c0:	eb000109 	bl	a5ec <ramdisk_read>
    a1c4:	e59d3004 	ldr	r3, [sp, #4]
    a1c8:	e6bf3f33 	rev	r3, r3
    a1cc:	e3c3600f 	bic	r6, r3, #15
    a1d0:	e5cd9018 	strb	r9, [sp, #24]
    a1d4:	e0450004 	sub	r0, r5, r4
    a1d8:	e3a01010 	mov	r1, #16
    a1dc:	e28d2008 	add	r2, sp, #8
    a1e0:	eb000101 	bl	a5ec <ramdisk_read>
    a1e4:	e3540000 	cmp	r4, #0
    a1e8:	e28d1008 	add	r1, sp, #8
    a1ec:	e28d0018 	add	r0, sp, #24
    a1f0:	da000003 	ble	a204 <romfs_get_inode+0xa4>
    a1f4:	e3540010 	cmp	r4, #16
    a1f8:	b1a02004 	movlt	r2, r4
    a1fc:	a3a02010 	movge	r2, #16
    a200:	eb000aa5 	bl	cc9c <strncat>
    a204:	e5dd3017 	ldrb	r3, [sp, #23]
    a208:	e2444010 	sub	r4, r4, #16
    a20c:	e3530000 	cmp	r3, #0
    a210:	1affffef 	bne	a1d4 <romfs_get_inode+0x74>
    a214:	e3a02c01 	mov	r2, #256	; 0x100
    a218:	e28d1018 	add	r1, sp, #24
    a21c:	e1a00008 	mov	r0, r8
    a220:	eb000a4a 	bl	cb50 <strncmp>
    a224:	e3500000 	cmp	r0, #0
    a228:	0a000005 	beq	a244 <romfs_get_inode+0xe4>
    a22c:	e3560000 	cmp	r6, #0
    a230:	e1a07006 	mov	r7, r6
    a234:	1affffdc 	bne	a1ac <romfs_get_inode+0x4c>
    a238:	e3e00000 	mvn	r0, #0
    a23c:	e28ddf47 	add	sp, sp, #284	; 0x11c
    a240:	e8bd83f0 	pop	{r4, r5, r6, r7, r8, r9, pc}
    a244:	e28d2008 	add	r2, sp, #8
    a248:	e3a01004 	mov	r1, #4
    a24c:	e1a00007 	mov	r0, r7
    a250:	eb0000e5 	bl	a5ec <ramdisk_read>
    a254:	e59d4008 	ldr	r4, [sp, #8]
    a258:	e2870004 	add	r0, r7, #4
    a25c:	e28d2008 	add	r2, sp, #8
    a260:	e3a01004 	mov	r1, #4
    a264:	eb0000e0 	bl	a5ec <ramdisk_read>
    a268:	e6bf4f34 	rev	r4, r4
    a26c:	e59d3008 	ldr	r3, [sp, #8]
    a270:	e3140007 	tst	r4, #7
    a274:	e1a00007 	mov	r0, r7
    a278:	e6bf3f33 	rev	r3, r3
    a27c:	e1a07003 	mov	r7, r3
    a280:	0affffef 	beq	a244 <romfs_get_inode+0xe4>
    a284:	eaffffec 	b	a23c <romfs_get_inode+0xdc>
    a288:	e3e00013 	mvn	r0, #19
    a28c:	eaffffea 	b	a23c <romfs_get_inode+0xdc>

0000a290 <romfs_mount>:
    a290:	e92d4030 	push	{r4, r5, lr}
    a294:	e24dd044 	sub	sp, sp, #68	; 0x44
    a298:	e3a01008 	mov	r1, #8
    a29c:	e28d2018 	add	r2, sp, #24
    a2a0:	e3a00000 	mov	r0, #0
    a2a4:	eb0000d0 	bl	a5ec <ramdisk_read>
    a2a8:	e30d1738 	movw	r1, #55096	; 0xd738
    a2ac:	e3a02008 	mov	r2, #8
    a2b0:	e3401000 	movt	r1, #0
    a2b4:	e28d0018 	add	r0, sp, #24
    a2b8:	eb000a35 	bl	cb94 <memcmp>
    a2bc:	e2505000 	subs	r5, r0, #0
    a2c0:	1a000022 	bne	a350 <romfs_mount+0xc0>
    a2c4:	e3a01004 	mov	r1, #4
    a2c8:	e3a00008 	mov	r0, #8
    a2cc:	e08d2001 	add	r2, sp, r1
    a2d0:	e3a04010 	mov	r4, #16
    a2d4:	eb0000c4 	bl	a5ec <ramdisk_read>
    a2d8:	e59d3004 	ldr	r3, [sp, #4]
    a2dc:	e28d2004 	add	r2, sp, #4
    a2e0:	e3a01004 	mov	r1, #4
    a2e4:	e3a0000c 	mov	r0, #12
    a2e8:	e6bf3f33 	rev	r3, r3
    a2ec:	e58d3020 	str	r3, [sp, #32]
    a2f0:	eb0000bd 	bl	a5ec <ramdisk_read>
    a2f4:	e5cd5028 	strb	r5, [sp, #40]	; 0x28
    a2f8:	e1a05004 	mov	r5, r4
    a2fc:	e59d3004 	ldr	r3, [sp, #4]
    a300:	e6bf3f33 	rev	r3, r3
    a304:	e58d3024 	str	r3, [sp, #36]	; 0x24
    a308:	e3a01010 	mov	r1, #16
    a30c:	e28d2008 	add	r2, sp, #8
    a310:	e1a00005 	mov	r0, r5
    a314:	e0855001 	add	r5, r5, r1
    a318:	eb0000b3 	bl	a5ec <ramdisk_read>
    a31c:	e3540000 	cmp	r4, #0
    a320:	e1a02004 	mov	r2, r4
    a324:	e28d1008 	add	r1, sp, #8
    a328:	e28d0028 	add	r0, sp, #40	; 0x28
    a32c:	da000000 	ble	a334 <romfs_mount+0xa4>
    a330:	eb000a59 	bl	cc9c <strncat>
    a334:	e5dd3017 	ldrb	r3, [sp, #23]
    a338:	e2444010 	sub	r4, r4, #16
    a33c:	e3530000 	cmp	r3, #0
    a340:	1afffff0 	bne	a308 <romfs_mount+0x78>
    a344:	e1a00005 	mov	r0, r5
    a348:	e28dd044 	add	sp, sp, #68	; 0x44
    a34c:	e8bd8030 	pop	{r4, r5, pc}
    a350:	e30d0744 	movw	r0, #55108	; 0xd744
    a354:	e3e05000 	mvn	r5, #0
    a358:	e3400000 	movt	r0, #0
    a35c:	eb0009cb 	bl	ca90 <printk>
    a360:	eafffff7 	b	a344 <romfs_mount+0xb4>

0000a364 <romfs_statfs>:
    a364:	e3a00000 	mov	r0, #0
    a368:	e12fff1e 	bx	lr

0000a36c <romfs_read_file>:
    a36c:	e92d43f0 	push	{r4, r5, r6, r7, r8, r9, lr}
    a370:	e24dd01c 	sub	sp, sp, #28
    a374:	e1a05000 	mov	r5, r0
    a378:	e1a08002 	mov	r8, r2
    a37c:	e1a07001 	mov	r7, r1
    a380:	e28d2004 	add	r2, sp, #4
    a384:	e3a01004 	mov	r1, #4
    a388:	e2800008 	add	r0, r0, #8
    a38c:	e1a06003 	mov	r6, r3
    a390:	e2855010 	add	r5, r5, #16
    a394:	e3a04000 	mov	r4, #0
    a398:	eb000093 	bl	a5ec <ramdisk_read>
    a39c:	e59d9004 	ldr	r9, [sp, #4]
    a3a0:	e6bf9f39 	rev	r9, r9
    a3a4:	ea000000 	b	a3ac <romfs_read_file+0x40>
    a3a8:	e2844010 	add	r4, r4, #16
    a3ac:	e0850004 	add	r0, r5, r4
    a3b0:	e28d2008 	add	r2, sp, #8
    a3b4:	e3a01010 	mov	r1, #16
    a3b8:	eb00008b 	bl	a5ec <ramdisk_read>
    a3bc:	e5dd0017 	ldrb	r0, [sp, #23]
    a3c0:	e3500000 	cmp	r0, #0
    a3c4:	1afffff7 	bne	a3a8 <romfs_read_file+0x3c>
    a3c8:	e0491007 	sub	r1, r9, r7
    a3cc:	e2840010 	add	r0, r4, #16
    a3d0:	e1510006 	cmp	r1, r6
    a3d4:	e1a02008 	mov	r2, r8
    a3d8:	e0800005 	add	r0, r0, r5
    a3dc:	21a01006 	movcs	r1, r6
    a3e0:	e0800007 	add	r0, r0, r7
    a3e4:	eb000080 	bl	a5ec <ramdisk_read>
    a3e8:	e28dd01c 	add	sp, sp, #28
    a3ec:	e8bd83f0 	pop	{r4, r5, r6, r7, r8, r9, pc}

0000a3f0 <romfs_getdents>:
    a3f0:	e92d4ff0 	push	{r4, r5, r6, r7, r8, r9, sl, fp, lr}
    a3f4:	e24dd02c 	sub	sp, sp, #44	; 0x2c
    a3f8:	e5919000 	ldr	r9, [r1]
    a3fc:	e58d100c 	str	r1, [sp, #12]
    a400:	e58d3004 	str	r3, [sp, #4]
    a404:	e3790001 	cmn	r9, #1
    a408:	03a0b000 	moveq	fp, #0
    a40c:	0a000049 	beq	a538 <romfs_getdents+0x148>
    a410:	e3590000 	cmp	r9, #0
    a414:	e1a08002 	mov	r8, r2
    a418:	0a000049 	beq	a544 <romfs_getdents+0x154>
    a41c:	e28d3014 	add	r3, sp, #20
    a420:	e58d3008 	str	r3, [sp, #8]
    a424:	e3a0b000 	mov	fp, #0
    a428:	e59d2008 	ldr	r2, [sp, #8]
    a42c:	e3a01004 	mov	r1, #4
    a430:	e1a00009 	mov	r0, r9
    a434:	e3a06000 	mov	r6, #0
    a438:	e2894010 	add	r4, r9, #16
    a43c:	eb00006a 	bl	a5ec <ramdisk_read>
    a440:	e59d7014 	ldr	r7, [sp, #20]
    a444:	e6bf7f37 	rev	r7, r7
    a448:	e3c7700f 	bic	r7, r7, #15
    a44c:	ea000000 	b	a454 <romfs_getdents+0x64>
    a450:	e2866010 	add	r6, r6, #16
    a454:	e0860004 	add	r0, r6, r4
    a458:	e28d2018 	add	r2, sp, #24
    a45c:	e3a01010 	mov	r1, #16
    a460:	eb000061 	bl	a5ec <ramdisk_read>
    a464:	e5dd3027 	ldrb	r3, [sp, #39]	; 0x27
    a468:	e3530000 	cmp	r3, #0
    a46c:	1afffff7 	bne	a450 <romfs_getdents+0x60>
    a470:	e28d0018 	add	r0, sp, #24
    a474:	eb000a2f 	bl	cd38 <strlen>
    a478:	e0806006 	add	r6, r0, r6
    a47c:	e286500d 	add	r5, r6, #13
    a480:	e2153003 	ands	r3, r5, #3
    a484:	0a000004 	beq	a49c <romfs_getdents+0xac>
    a488:	e2752000 	rsbs	r2, r5, #0
    a48c:	e2022003 	and	r2, r2, #3
    a490:	52623000 	rsbpl	r3, r2, #0
    a494:	e2633004 	rsb	r3, r3, #4
    a498:	e0855003 	add	r5, r5, r3
    a49c:	e59d3004 	ldr	r3, [sp, #4]
    a4a0:	e085a00b 	add	sl, r5, fp
    a4a4:	e15a0003 	cmp	sl, r3
    a4a8:	8a000020 	bhi	a530 <romfs_getdents+0x140>
    a4ac:	e3590000 	cmp	r9, #0
    a4b0:	0a00001d 	beq	a52c <romfs_getdents+0x13c>
    a4b4:	e5889000 	str	r9, [r8]
    a4b8:	e1a0b006 	mov	fp, r6
    a4bc:	e0864004 	add	r4, r6, r4
    a4c0:	e288900c 	add	r9, r8, #12
    a4c4:	e5885004 	str	r5, [r8, #4]
    a4c8:	e3a03000 	mov	r3, #0
    a4cc:	e5885008 	str	r5, [r8, #8]
    a4d0:	e5c8300c 	strb	r3, [r8, #12]
    a4d4:	e044000b 	sub	r0, r4, fp
    a4d8:	e3a01010 	mov	r1, #16
    a4dc:	e28d2018 	add	r2, sp, #24
    a4e0:	eb000041 	bl	a5ec <ramdisk_read>
    a4e4:	e35b0000 	cmp	fp, #0
    a4e8:	e28d1018 	add	r1, sp, #24
    a4ec:	e1a00009 	mov	r0, r9
    a4f0:	da000003 	ble	a504 <romfs_getdents+0x114>
    a4f4:	e35b0010 	cmp	fp, #16
    a4f8:	b1a0200b 	movlt	r2, fp
    a4fc:	a3a02010 	movge	r2, #16
    a500:	eb0009e5 	bl	cc9c <strncat>
    a504:	e5dd3027 	ldrb	r3, [sp, #39]	; 0x27
    a508:	e24bb010 	sub	fp, fp, #16
    a50c:	e3530000 	cmp	r3, #0
    a510:	1affffef 	bne	a4d4 <romfs_getdents+0xe4>
    a514:	e0886006 	add	r6, r8, r6
    a518:	e1a09007 	mov	r9, r7
    a51c:	e0888005 	add	r8, r8, r5
    a520:	e1a0b00a 	mov	fp, sl
    a524:	e5c6300c 	strb	r3, [r6, #12]
    a528:	eaffffbe 	b	a428 <romfs_getdents+0x38>
    a52c:	e3e09000 	mvn	r9, #0
    a530:	e59d300c 	ldr	r3, [sp, #12]
    a534:	e5839000 	str	r9, [r3]
    a538:	e1a0000b 	mov	r0, fp
    a53c:	e28dd02c 	add	sp, sp, #44	; 0x2c
    a540:	e8bd8ff0 	pop	{r4, r5, r6, r7, r8, r9, sl, fp, pc}
    a544:	e28d3014 	add	r3, sp, #20
    a548:	e3a01004 	mov	r1, #4
    a54c:	e58d3008 	str	r3, [sp, #8]
    a550:	e1a02003 	mov	r2, r3
    a554:	e1a04000 	mov	r4, r0
    a558:	eb000023 	bl	a5ec <ramdisk_read>
    a55c:	e59d2014 	ldr	r2, [sp, #20]
    a560:	e1a03002 	mov	r3, r2
    a564:	e6bf3f33 	rev	r3, r3
    a568:	e2033007 	and	r3, r3, #7
    a56c:	e3530001 	cmp	r3, #1
    a570:	1a000006 	bne	a590 <romfs_getdents+0x1a0>
    a574:	e59d2008 	ldr	r2, [sp, #8]
    a578:	e2840004 	add	r0, r4, #4
    a57c:	e3a01004 	mov	r1, #4
    a580:	eb000019 	bl	a5ec <ramdisk_read>
    a584:	e59d9014 	ldr	r9, [sp, #20]
    a588:	e6bf9f39 	rev	r9, r9
    a58c:	eaffffa4 	b	a424 <romfs_getdents+0x34>
    a590:	e30d075c 	movw	r0, #55132	; 0xd75c
    a594:	e1a01004 	mov	r1, r4
    a598:	e3400000 	movt	r0, #0
    a59c:	e3e0b013 	mvn	fp, #19
    a5a0:	eb00093a 	bl	ca90 <printk>
    a5a4:	eaffffe3 	b	a538 <romfs_getdents+0x148>

0000a5a8 <drivers_init_all>:
    a5a8:	e92d4010 	push	{r4, lr}
    a5ac:	eb00007e 	bl	a7ac <led_init>
    a5b0:	eb000111 	bl	a9fc <timer_init>
    a5b4:	e8bd4010 	pop	{r4, lr}
    a5b8:	ea00010b 	b	a9ec <serial_enable_interrupts>

0000a5bc <bcm2835_write>:
    a5bc:	e3083408 	movw	r3, #33800	; 0x8408
    a5c0:	e3403002 	movt	r3, #2
    a5c4:	e5933000 	ldr	r3, [r3]
    a5c8:	e0800003 	add	r0, r0, r3
    a5cc:	e5801000 	str	r1, [r0]
    a5d0:	e12fff1e 	bx	lr

0000a5d4 <bcm2835_read>:
    a5d4:	e3083408 	movw	r3, #33800	; 0x8408
    a5d8:	e3403002 	movt	r3, #2
    a5dc:	e5933000 	ldr	r3, [r3]
    a5e0:	e0800003 	add	r0, r0, r3
    a5e4:	e5900000 	ldr	r0, [r0]
    a5e8:	e12fff1e 	bx	lr

0000a5ec <ramdisk_read>:
    a5ec:	e308c604 	movw	ip, #34308	; 0x8604
    a5f0:	e340c002 	movt	ip, #2
    a5f4:	e92d4010 	push	{r4, lr}
    a5f8:	e1a04001 	mov	r4, r1
    a5fc:	e59ce004 	ldr	lr, [ip, #4]
    a600:	e0801001 	add	r1, r0, r1
    a604:	e151000e 	cmp	r1, lr
    a608:	8a000007 	bhi	a62c <ramdisk_read+0x40>
    a60c:	e59c1000 	ldr	r1, [ip]
    a610:	e1a03000 	mov	r3, r0
    a614:	e1a00002 	mov	r0, r2
    a618:	e1a02004 	mov	r2, r4
    a61c:	e0811003 	add	r1, r1, r3
    a620:	eb0007a2 	bl	c4b0 <memcpy>
    a624:	e1a00004 	mov	r0, r4
    a628:	e8bd8010 	pop	{r4, pc}
    a62c:	e30d0794 	movw	r0, #55188	; 0xd794
    a630:	e1a0200e 	mov	r2, lr
    a634:	e3400000 	movt	r0, #0
    a638:	eb000914 	bl	ca90 <printk>
    a63c:	e3e00021 	mvn	r0, #33	; 0x21
    a640:	e8bd8010 	pop	{r4, pc}

0000a644 <ramdisk_init>:
    a644:	e92d4070 	push	{r4, r5, r6, lr}
    a648:	e1a04000 	mov	r4, r0
    a64c:	e30d07bc 	movw	r0, #55228	; 0xd7bc
    a650:	e1a02004 	mov	r2, r4
    a654:	e3400000 	movt	r0, #0
    a658:	e1a05001 	mov	r5, r1
    a65c:	eb00090b 	bl	ca90 <printk>
    a660:	e3083604 	movw	r3, #34308	; 0x8604
    a664:	e3a00000 	mov	r0, #0
    a668:	e3403002 	movt	r3, #2
    a66c:	e1c340f0 	strd	r4, [r3]
    a670:	e8bd8070 	pop	{r4, r5, r6, pc}

0000a674 <console_insert_char>:
    a674:	e3083610 	movw	r3, #34320	; 0x8610
    a678:	e3403002 	movt	r3, #2
    a67c:	e8931002 	ldm	r3, {r1, ip}
    a680:	e2812001 	add	r2, r1, #1
    a684:	e3520c01 	cmp	r2, #256	; 0x100
    a688:	23a02000 	movcs	r2, #0
    a68c:	e15c0002 	cmp	ip, r2
    a690:	0a000017 	beq	a6f4 <console_insert_char+0x80>
    a694:	e0831001 	add	r1, r3, r1
    a698:	e3500002 	cmp	r0, #2
    a69c:	e92d4010 	push	{r4, lr}
    a6a0:	e5832000 	str	r2, [r3]
    a6a4:	e5c10008 	strb	r0, [r1, #8]
    a6a8:	0a00000c 	beq	a6e0 <console_insert_char+0x6c>
    a6ac:	e350001a 	cmp	r0, #26
    a6b0:	0a000003 	beq	a6c4 <console_insert_char+0x50>
    a6b4:	e59f0040 	ldr	r0, [pc, #64]	; a6fc <console_insert_char+0x88>
    a6b8:	eb0006d6 	bl	c218 <wait_queue_wake>
    a6bc:	e3a00000 	mov	r0, #0
    a6c0:	e8bd8010 	pop	{r4, pc}
    a6c4:	e3052410 	movw	r2, #21520	; 0x5410
    a6c8:	e3402002 	movt	r2, #2
    a6cc:	e5923000 	ldr	r3, [r2]
    a6d0:	e16f3f13 	clz	r3, r3
    a6d4:	e1a032a3 	lsr	r3, r3, #5
    a6d8:	e5823000 	str	r3, [r2]
    a6dc:	eafffff4 	b	a6b4 <console_insert_char+0x40>
    a6e0:	e3083008 	movw	r3, #32776	; 0x8008
    a6e4:	e3403003 	movt	r3, #3
    a6e8:	e5930000 	ldr	r0, [r3]
    a6ec:	eb0006d9 	bl	c258 <dump_saved_user_state>
    a6f0:	eaffffef 	b	a6b4 <console_insert_char+0x40>
    a6f4:	e3e00000 	mvn	r0, #0
    a6f8:	e12fff1e 	bx	lr
    a6fc:	00028718 	andeq	r8, r2, r8, lsl r7

0000a700 <console_write>:
    a700:	ea00009b 	b	a974 <serial_write>

0000a704 <console_read>:
    a704:	e92d41f0 	push	{r4, r5, r6, r7, r8, lr}
    a708:	e3084610 	movw	r4, #34320	; 0x8610
    a70c:	e3404002 	movt	r4, #2
    a710:	e1a05000 	mov	r5, r0
    a714:	e1a06001 	mov	r6, r1
    a718:	e594c000 	ldr	ip, [r4]
    a71c:	e5943004 	ldr	r3, [r4, #4]
    a720:	e15c0003 	cmp	ip, r3
    a724:	1a000009 	bne	a750 <console_read+0x4c>
    a728:	e3087008 	movw	r7, #32776	; 0x8008
    a72c:	e2848f42 	add	r8, r4, #264	; 0x108
    a730:	e3407003 	movt	r7, #3
    a734:	e5971000 	ldr	r1, [r7]
    a738:	e1a00008 	mov	r0, r8
    a73c:	eb0006a2 	bl	c1cc <wait_queue_add>
    a740:	e594c000 	ldr	ip, [r4]
    a744:	e5943004 	ldr	r3, [r4, #4]
    a748:	e15c0003 	cmp	ip, r3
    a74c:	0afffff8 	beq	a734 <console_read+0x30>
    a750:	e3560000 	cmp	r6, #0
    a754:	0a000012 	beq	a7a4 <console_read+0xa0>
    a758:	e5943004 	ldr	r3, [r4, #4]
    a75c:	e2460001 	sub	r0, r6, #1
    a760:	e0850000 	add	r0, r5, r0
    a764:	e2452001 	sub	r2, r5, #1
    a768:	e3a05000 	mov	r5, #0
    a76c:	e153000c 	cmp	r3, ip
    a770:	e0841003 	add	r1, r4, r3
    a774:	03a0e000 	moveq	lr, #0
    a778:	0a000004 	beq	a790 <console_read+0x8c>
    a77c:	e5d1e008 	ldrb	lr, [r1, #8]
    a780:	e2833001 	add	r3, r3, #1
    a784:	e35300ff 	cmp	r3, #255	; 0xff
    a788:	e3a05001 	mov	r5, #1
    a78c:	83a03000 	movhi	r3, #0
    a790:	e5e2e001 	strb	lr, [r2, #1]!
    a794:	e1500002 	cmp	r0, r2
    a798:	1afffff3 	bne	a76c <console_read+0x68>
    a79c:	e3550000 	cmp	r5, #0
    a7a0:	15843004 	strne	r3, [r4, #4]
    a7a4:	e1a00006 	mov	r0, r6
    a7a8:	e8bd81f0 	pop	{r4, r5, r6, r7, r8, pc}

0000a7ac <led_init>:
    a7ac:	e92d4010 	push	{r4, lr}
    a7b0:	e3084724 	movw	r4, #34596	; 0x8724
    a7b4:	e3404002 	movt	r4, #2
    a7b8:	e3a03001 	mov	r3, #1
    a7bc:	e5843000 	str	r3, [r4]
    a7c0:	ebfff7dd 	bl	873c <hardware_get_type>
    a7c4:	e3500002 	cmp	r0, #2
    a7c8:	1a00000f 	bne	a80c <led_init+0x60>
    a7cc:	e3054404 	movw	r4, #21508	; 0x5404
    a7d0:	e3a00010 	mov	r0, #16
    a7d4:	e3404002 	movt	r4, #2
    a7d8:	e3a03001 	mov	r3, #1
    a7dc:	e8840009 	stm	r4, {r0, r3}
    a7e0:	e30d1818 	movw	r1, #55320	; 0xd818
    a7e4:	e3401000 	movt	r1, #0
    a7e8:	eb0000cc 	bl	ab20 <gpio_request>
    a7ec:	e5940000 	ldr	r0, [r4]
    a7f0:	eb00012b 	bl	aca4 <gpio_direction_output>
    a7f4:	e5941000 	ldr	r1, [r4]
    a7f8:	e30d0820 	movw	r0, #55328	; 0xd820
    a7fc:	e3400000 	movt	r0, #0
    a800:	eb0008a2 	bl	ca90 <printk>
    a804:	e3a00000 	mov	r0, #0
    a808:	e8bd8010 	pop	{r4, pc}
    a80c:	ebfff7ca 	bl	873c <hardware_get_type>
    a810:	e3500001 	cmp	r0, #1
    a814:	0affffec 	beq	a7cc <led_init+0x20>
    a818:	ebfff7c7 	bl	873c <hardware_get_type>
    a81c:	e3500004 	cmp	r0, #4
    a820:	1a000005 	bne	a83c <led_init+0x90>
    a824:	e3054404 	movw	r4, #21508	; 0x5404
    a828:	e3a0002f 	mov	r0, #47	; 0x2f
    a82c:	e3404002 	movt	r4, #2
    a830:	e3a03000 	mov	r3, #0
    a834:	e8840009 	stm	r4, {r0, r3}
    a838:	eaffffe8 	b	a7e0 <led_init+0x34>
    a83c:	ebfff7be 	bl	873c <hardware_get_type>
    a840:	e3500003 	cmp	r0, #3
    a844:	0afffff6 	beq	a824 <led_init+0x78>
    a848:	ebfff7bb 	bl	873c <hardware_get_type>
    a84c:	e3500007 	cmp	r0, #7
    a850:	0afffff3 	beq	a824 <led_init+0x78>
    a854:	ebfff7b8 	bl	873c <hardware_get_type>
    a858:	e3500009 	cmp	r0, #9
    a85c:	1a000005 	bne	a878 <led_init+0xcc>
    a860:	e3054404 	movw	r4, #21508	; 0x5404
    a864:	e3a00012 	mov	r0, #18
    a868:	e3404002 	movt	r4, #2
    a86c:	e3a03000 	mov	r3, #0
    a870:	e8840009 	stm	r4, {r0, r3}
    a874:	eaffffd9 	b	a7e0 <led_init+0x34>
    a878:	e30d07ec 	movw	r0, #55276	; 0xd7ec
    a87c:	e3400000 	movt	r0, #0
    a880:	eb000882 	bl	ca90 <printk>
    a884:	e3a03000 	mov	r3, #0
    a888:	e3a00013 	mov	r0, #19
    a88c:	e5843000 	str	r3, [r4]
    a890:	e8bd8010 	pop	{r4, pc}

0000a894 <led_on>:
    a894:	e3083724 	movw	r3, #34596	; 0x8724
    a898:	e3403002 	movt	r3, #2
    a89c:	e5933000 	ldr	r3, [r3]
    a8a0:	e3530000 	cmp	r3, #0
    a8a4:	0a000009 	beq	a8d0 <led_on+0x3c>
    a8a8:	e3053404 	movw	r3, #21508	; 0x5404
    a8ac:	e3403002 	movt	r3, #2
    a8b0:	e92d4010 	push	{r4, lr}
    a8b4:	e8930005 	ldm	r3, {r0, r2}
    a8b8:	e3520000 	cmp	r2, #0
    a8bc:	13a01000 	movne	r1, #0
    a8c0:	03a01001 	moveq	r1, #1
    a8c4:	eb00012f 	bl	ad88 <gpio_set_value>
    a8c8:	e3a00000 	mov	r0, #0
    a8cc:	e8bd8010 	pop	{r4, pc}
    a8d0:	e3a00000 	mov	r0, #0
    a8d4:	e12fff1e 	bx	lr

0000a8d8 <led_off>:
    a8d8:	e3083724 	movw	r3, #34596	; 0x8724
    a8dc:	e3403002 	movt	r3, #2
    a8e0:	e5933000 	ldr	r3, [r3]
    a8e4:	e3530000 	cmp	r3, #0
    a8e8:	0a000008 	beq	a910 <led_off+0x38>
    a8ec:	e3053404 	movw	r3, #21508	; 0x5404
    a8f0:	e3403002 	movt	r3, #2
    a8f4:	e92d4010 	push	{r4, lr}
    a8f8:	e1c300d0 	ldrd	r0, [r3]
    a8fc:	e3510000 	cmp	r1, #0
    a900:	13a01001 	movne	r1, #1
    a904:	eb00011f 	bl	ad88 <gpio_set_value>
    a908:	e3a00000 	mov	r0, #0
    a90c:	e8bd8010 	pop	{r4, pc}
    a910:	e3a00000 	mov	r0, #0
    a914:	e12fff1e 	bx	lr

0000a918 <serial_init>:
    a918:	e3500001 	cmp	r0, #1
    a91c:	e92d4010 	push	{r4, lr}
    a920:	0a000007 	beq	a944 <serial_init+0x2c>
    a924:	e3500002 	cmp	r0, #2
    a928:	0a00000d 	beq	a964 <serial_init+0x4c>
    a92c:	e3a02001 	mov	r2, #1
    a930:	e3a00000 	mov	r0, #0
    a934:	e3083728 	movw	r3, #34600	; 0x8728
    a938:	e3403002 	movt	r3, #2
    a93c:	e5832000 	str	r2, [r3]
    a940:	e8bd8010 	pop	{r4, pc}
    a944:	e3080728 	movw	r0, #34600	; 0x8728
    a948:	e3400002 	movt	r0, #2
    a94c:	eb0001c2 	bl	b05c <pl011_uart_init>
    a950:	e3500000 	cmp	r0, #0
    a954:	0afffff4 	beq	a92c <serial_init+0x14>
    a958:	e3a02000 	mov	r2, #0
    a95c:	e3e00012 	mvn	r0, #18
    a960:	eafffff3 	b	a934 <serial_init+0x1c>
    a964:	e3080728 	movw	r0, #34600	; 0x8728
    a968:	e3400002 	movt	r0, #2
    a96c:	eb0002ca 	bl	b49c <mini_uart_init>
    a970:	eafffff6 	b	a950 <serial_init+0x38>

0000a974 <serial_write>:
    a974:	e92d41f0 	push	{r4, r5, r6, r7, r8, lr}
    a978:	e3085728 	movw	r5, #34600	; 0x8728
    a97c:	e3405002 	movt	r5, #2
    a980:	e5953000 	ldr	r3, [r5]
    a984:	e3530000 	cmp	r3, #0
    a988:	01a07003 	moveq	r7, r3
    a98c:	0a000010 	beq	a9d4 <serial_write+0x60>
    a990:	e3510000 	cmp	r1, #0
    a994:	e1a07001 	mov	r7, r1
    a998:	0a00000d 	beq	a9d4 <serial_write+0x60>
    a99c:	e0806001 	add	r6, r0, r1
    a9a0:	e2404001 	sub	r4, r0, #1
    a9a4:	e2466001 	sub	r6, r6, #1
    a9a8:	e5f40001 	ldrb	r0, [r4, #1]!
    a9ac:	e350000a 	cmp	r0, #10
    a9b0:	1a000003 	bne	a9c4 <serial_write+0x50>
    a9b4:	e5953018 	ldr	r3, [r5, #24]
    a9b8:	e3a0000d 	mov	r0, #13
    a9bc:	e12fff33 	blx	r3
    a9c0:	e5d40000 	ldrb	r0, [r4]
    a9c4:	e5953018 	ldr	r3, [r5, #24]
    a9c8:	e12fff33 	blx	r3
    a9cc:	e1540006 	cmp	r4, r6
    a9d0:	1afffff4 	bne	a9a8 <serial_write+0x34>
    a9d4:	e1a00007 	mov	r0, r7
    a9d8:	e8bd81f0 	pop	{r4, r5, r6, r7, r8, pc}

0000a9dc <serial_interrupt_handler>:
    a9dc:	e3083728 	movw	r3, #34600	; 0x8728
    a9e0:	e3403002 	movt	r3, #2
    a9e4:	e5933024 	ldr	r3, [r3, #36]	; 0x24
    a9e8:	e12fff13 	bx	r3

0000a9ec <serial_enable_interrupts>:
    a9ec:	e3083728 	movw	r3, #34600	; 0x8728
    a9f0:	e3403002 	movt	r3, #2
    a9f4:	e5933014 	ldr	r3, [r3, #20]
    a9f8:	e12fff13 	bx	r3

0000a9fc <timer_init>:
    a9fc:	e92d4010 	push	{r4, lr}
    aa00:	e30b0408 	movw	r0, #46088	; 0xb408
    aa04:	ebfffef2 	bl	a5d4 <bcm2835_read>
    aa08:	e3c010a0 	bic	r1, r0, #160	; 0xa0
    aa0c:	e30b0408 	movw	r0, #46088	; 0xb408
    aa10:	ebfffee9 	bl	a5bc <bcm2835_write>
    aa14:	e3a010f9 	mov	r1, #249	; 0xf9
    aa18:	e30b041c 	movw	r0, #46108	; 0xb41c
    aa1c:	ebfffee6 	bl	a5bc <bcm2835_write>
    aa20:	e3a0103d 	mov	r1, #61	; 0x3d
    aa24:	e3a00b2d 	mov	r0, #46080	; 0xb400
    aa28:	ebfffee3 	bl	a5bc <bcm2835_write>
    aa2c:	e3a010aa 	mov	r1, #170	; 0xaa
    aa30:	e30b0408 	movw	r0, #46088	; 0xb408
    aa34:	ebfffee0 	bl	a5bc <bcm2835_write>
    aa38:	e30b0218 	movw	r0, #45592	; 0xb218
    aa3c:	e3a01001 	mov	r1, #1
    aa40:	ebfffedd 	bl	a5bc <bcm2835_write>
    aa44:	e3a00000 	mov	r0, #0
    aa48:	e8bd8010 	pop	{r4, pc}

0000aa4c <timer_interrupt_handler>:
    aa4c:	e92d4010 	push	{r4, lr}
    aa50:	e3084750 	movw	r4, #34640	; 0x8750
    aa54:	e3404002 	movt	r4, #2
    aa58:	e3a01001 	mov	r1, #1
    aa5c:	e30b040c 	movw	r0, #46092	; 0xb40c
    aa60:	ebfffed5 	bl	a5bc <bcm2835_write>
    aa64:	e5943000 	ldr	r3, [r4]
    aa68:	e5942004 	ldr	r2, [r4, #4]
    aa6c:	e2833001 	add	r3, r3, #1
    aa70:	e5843000 	str	r3, [r4]
    aa74:	e3520000 	cmp	r2, #0
    aa78:	11530002 	cmpne	r3, r2
    aa7c:	8a000014 	bhi	aad4 <timer_interrupt_handler+0x88>
    aa80:	e305340c 	movw	r3, #21516	; 0x540c
    aa84:	e3403002 	movt	r3, #2
    aa88:	e5933000 	ldr	r3, [r3]
    aa8c:	e3530000 	cmp	r3, #0
    aa90:	08bd8010 	popeq	{r4, pc}
    aa94:	e594300c 	ldr	r3, [r4, #12]
    aa98:	e2833001 	add	r3, r3, #1
    aa9c:	e584300c 	str	r3, [r4, #12]
    aaa0:	e3530020 	cmp	r3, #32
    aaa4:	0a000005 	beq	aac0 <timer_interrupt_handler+0x74>
    aaa8:	e3530040 	cmp	r3, #64	; 0x40
    aaac:	18bd8010 	popne	{r4, pc}
    aab0:	ebffff77 	bl	a894 <led_on>
    aab4:	e3a03000 	mov	r3, #0
    aab8:	e584300c 	str	r3, [r4, #12]
    aabc:	e8bd8010 	pop	{r4, pc}
    aac0:	ebffff84 	bl	a8d8 <led_off>
    aac4:	e594300c 	ldr	r3, [r4, #12]
    aac8:	e3530040 	cmp	r3, #64	; 0x40
    aacc:	18bd8010 	popne	{r4, pc}
    aad0:	eafffff6 	b	aab0 <timer_interrupt_handler+0x64>
    aad4:	e3a03000 	mov	r3, #0
    aad8:	e2840008 	add	r0, r4, #8
    aadc:	e5843004 	str	r3, [r4, #4]
    aae0:	eb0005cc 	bl	c218 <wait_queue_wake>
    aae4:	eaffffe5 	b	aa80 <timer_interrupt_handler+0x34>

0000aae8 <timer_sleep_until>:
    aae8:	e3083750 	movw	r3, #34640	; 0x8750
    aaec:	e3403002 	movt	r3, #2
    aaf0:	e5932004 	ldr	r2, [r3, #4]
    aaf4:	e3520000 	cmp	r2, #0
    aaf8:	0a000001 	beq	ab04 <timer_sleep_until+0x1c>
    aafc:	e1520000 	cmp	r2, r0
    ab00:	9a000000 	bls	ab08 <timer_sleep_until+0x20>
    ab04:	e5830004 	str	r0, [r3, #4]
    ab08:	e59f000c 	ldr	r0, [pc, #12]	; ab1c <timer_sleep_until+0x34>
    ab0c:	e3083008 	movw	r3, #32776	; 0x8008
    ab10:	e3403003 	movt	r3, #3
    ab14:	e5931000 	ldr	r1, [r3]
    ab18:	ea0005ab 	b	c1cc <wait_queue_add>
    ab1c:	00028758 	andeq	r8, r2, r8, asr r7

0000ab20 <gpio_request>:
    ab20:	e3500036 	cmp	r0, #54	; 0x36
    ab24:	e1a03000 	mov	r3, r0
    ab28:	e92d41f0 	push	{r4, r5, r6, r7, r8, lr}
    ab2c:	8a000017 	bhi	ab90 <gpio_request+0x70>
    ab30:	e308e760 	movw	lr, #34656	; 0x8760
    ab34:	e2607020 	rsb	r7, r0, #32
    ab38:	e340e002 	movt	lr, #2
    ab3c:	e240c020 	sub	ip, r0, #32
    ab40:	e89e0050 	ldm	lr, {r4, r6}
    ab44:	e1a00034 	lsr	r0, r4, r0
    ab48:	e1800716 	orr	r0, r0, r6, lsl r7
    ab4c:	e1800c36 	orr	r0, r0, r6, lsr ip
    ab50:	e2105001 	ands	r5, r0, #1
    ab54:	1a000013 	bne	aba8 <gpio_request+0x88>
    ab58:	e3a00001 	mov	r0, #1
    ab5c:	e1a02001 	mov	r2, r1
    ab60:	e1a01c10 	lsl	r1, r0, ip
    ab64:	e1811730 	orr	r1, r1, r0, lsr r7
    ab68:	e1844310 	orr	r4, r4, r0, lsl r3
    ab6c:	e30d086c 	movw	r0, #55404	; 0xd86c
    ab70:	e1811006 	orr	r1, r1, r6
    ab74:	e58e1004 	str	r1, [lr, #4]
    ab78:	e1a01003 	mov	r1, r3
    ab7c:	e3400000 	movt	r0, #0
    ab80:	e58e4000 	str	r4, [lr]
    ab84:	eb0007c1 	bl	ca90 <printk>
    ab88:	e1a00005 	mov	r0, r5
    ab8c:	e8bd81f0 	pop	{r4, r5, r6, r7, r8, pc}
    ab90:	e30d0844 	movw	r0, #55364	; 0xd844
    ab94:	e1a01003 	mov	r1, r3
    ab98:	e3400000 	movt	r0, #0
    ab9c:	eb0007bb 	bl	ca90 <printk>
    aba0:	e3e00000 	mvn	r0, #0
    aba4:	e8bd81f0 	pop	{r4, r5, r6, r7, r8, pc}
    aba8:	e30d0854 	movw	r0, #55380	; 0xd854
    abac:	e1a01003 	mov	r1, r3
    abb0:	e3400000 	movt	r0, #0
    abb4:	eb0007b5 	bl	ca90 <printk>
    abb8:	e3e00000 	mvn	r0, #0
    abbc:	e8bd81f0 	pop	{r4, r5, r6, r7, r8, pc}

0000abc0 <gpio_free>:
    abc0:	e3500036 	cmp	r0, #54	; 0x36
    abc4:	e1a01000 	mov	r1, r0
    abc8:	e92d4010 	push	{r4, lr}
    abcc:	8a000011 	bhi	ac18 <gpio_free+0x58>
    abd0:	e3083760 	movw	r3, #34656	; 0x8760
    abd4:	e3a0c001 	mov	ip, #1
    abd8:	e3403002 	movt	r3, #2
    abdc:	e2402020 	sub	r2, r0, #32
    abe0:	e261e020 	rsb	lr, r1, #32
    abe4:	e5930000 	ldr	r0, [r3]
    abe8:	e1a0221c 	lsl	r2, ip, r2
    abec:	e1c0011c 	bic	r0, r0, ip, lsl r1
    abf0:	e1822e3c 	orr	r2, r2, ip, lsr lr
    abf4:	e593c004 	ldr	ip, [r3, #4]
    abf8:	e5830000 	str	r0, [r3]
    abfc:	e30d0888 	movw	r0, #55432	; 0xd888
    ac00:	e1cc2002 	bic	r2, ip, r2
    ac04:	e3400000 	movt	r0, #0
    ac08:	e5832004 	str	r2, [r3, #4]
    ac0c:	eb00079f 	bl	ca90 <printk>
    ac10:	e3a00000 	mov	r0, #0
    ac14:	e8bd8010 	pop	{r4, pc}
    ac18:	e30d0844 	movw	r0, #55364	; 0xd844
    ac1c:	e3400000 	movt	r0, #0
    ac20:	eb00079a 	bl	ca90 <printk>
    ac24:	e3e00000 	mvn	r0, #0
    ac28:	e8bd8010 	pop	{r4, pc}

0000ac2c <gpio_direction_input>:
    ac2c:	e3500036 	cmp	r0, #54	; 0x36
    ac30:	e92d4070 	push	{r4, r5, r6, lr}
    ac34:	e1a04000 	mov	r4, r0
    ac38:	ca000013 	bgt	ac8c <gpio_direction_input+0x60>
    ac3c:	e1a05fc0 	asr	r5, r0, #31
    ac40:	e3063667 	movw	r3, #26215	; 0x6667
    ac44:	e3463666 	movt	r3, #26214	; 0x6666
    ac48:	e0c32093 	smull	r2, r3, r3, r0
    ac4c:	e0655143 	rsb	r5, r5, r3, asr #2
    ac50:	e1a06105 	lsl	r6, r5, #2
    ac54:	e2866602 	add	r6, r6, #2097152	; 0x200000
    ac58:	e1a00006 	mov	r0, r6
    ac5c:	ebfffe5c 	bl	a5d4 <bcm2835_read>
    ac60:	e3a0100a 	mov	r1, #10
    ac64:	e3a02003 	mov	r2, #3
    ac68:	e0644591 	mls	r4, r1, r5, r4
    ac6c:	e3a01007 	mov	r1, #7
    ac70:	e1a03000 	mov	r3, r0
    ac74:	e0040492 	mul	r4, r2, r4
    ac78:	e1a00006 	mov	r0, r6
    ac7c:	e1c31411 	bic	r1, r3, r1, lsl r4
    ac80:	ebfffe4d 	bl	a5bc <bcm2835_write>
    ac84:	e3a00000 	mov	r0, #0
    ac88:	e8bd8070 	pop	{r4, r5, r6, pc}
    ac8c:	e30d0844 	movw	r0, #55364	; 0xd844
    ac90:	e1a01004 	mov	r1, r4
    ac94:	e3400000 	movt	r0, #0
    ac98:	eb00077c 	bl	ca90 <printk>
    ac9c:	e3e00000 	mvn	r0, #0
    aca0:	e8bd8070 	pop	{r4, r5, r6, pc}

0000aca4 <gpio_direction_output>:
    aca4:	e3500036 	cmp	r0, #54	; 0x36
    aca8:	e1a01000 	mov	r1, r0
    acac:	e92d4070 	push	{r4, r5, r6, lr}
    acb0:	ca000015 	bgt	ad0c <gpio_direction_output+0x68>
    acb4:	e3063667 	movw	r3, #26215	; 0x6667
    acb8:	e3a04003 	mov	r4, #3
    acbc:	e3463666 	movt	r3, #26214	; 0x6666
    acc0:	e0c32193 	smull	r2, r3, r3, r1
    acc4:	e1a05fc0 	asr	r5, r0, #31
    acc8:	e3a0000a 	mov	r0, #10
    accc:	e0655143 	rsb	r5, r5, r3, asr #2
    acd0:	e0611590 	mls	r1, r0, r5, r1
    acd4:	e1a05105 	lsl	r5, r5, #2
    acd8:	e2855602 	add	r5, r5, #2097152	; 0x200000
    acdc:	e1a00005 	mov	r0, r5
    ace0:	e0040194 	mul	r4, r4, r1
    ace4:	ebfffe3a 	bl	a5d4 <bcm2835_read>
    ace8:	e3a02007 	mov	r2, #7
    acec:	e1a03000 	mov	r3, r0
    acf0:	e3a01001 	mov	r1, #1
    acf4:	e1a00005 	mov	r0, r5
    acf8:	e1c33412 	bic	r3, r3, r2, lsl r4
    acfc:	e1831411 	orr	r1, r3, r1, lsl r4
    ad00:	ebfffe2d 	bl	a5bc <bcm2835_write>
    ad04:	e3a00000 	mov	r0, #0
    ad08:	e8bd8070 	pop	{r4, r5, r6, pc}
    ad0c:	e30d0844 	movw	r0, #55364	; 0xd844
    ad10:	e3400000 	movt	r0, #0
    ad14:	eb00075d 	bl	ca90 <printk>
    ad18:	e3e00000 	mvn	r0, #0
    ad1c:	e8bd8070 	pop	{r4, r5, r6, pc}

0000ad20 <gpio_to_irq>:
    ad20:	e3a00031 	mov	r0, #49	; 0x31
    ad24:	e12fff1e 	bx	lr

0000ad28 <gpio_get_value>:
    ad28:	e3500036 	cmp	r0, #54	; 0x36
    ad2c:	e92d4010 	push	{r4, lr}
    ad30:	e1a04000 	mov	r4, r0
    ad34:	ca00000d 	bgt	ad70 <gpio_get_value+0x48>
    ad38:	e3540000 	cmp	r4, #0
    ad3c:	e280001f 	add	r0, r0, #31
    ad40:	a1a00004 	movge	r0, r4
    ad44:	e204401f 	and	r4, r4, #31
    ad48:	e1a002c0 	asr	r0, r0, #5
    ad4c:	e1a00100 	lsl	r0, r0, #2
    ad50:	e2800602 	add	r0, r0, #2097152	; 0x200000
    ad54:	e2800034 	add	r0, r0, #52	; 0x34
    ad58:	ebfffe1d 	bl	a5d4 <bcm2835_read>
    ad5c:	e3a03001 	mov	r3, #1
    ad60:	e0103413 	ands	r3, r0, r3, lsl r4
    ad64:	13a00001 	movne	r0, #1
    ad68:	03a00000 	moveq	r0, #0
    ad6c:	e8bd8010 	pop	{r4, pc}
    ad70:	e30d0898 	movw	r0, #55448	; 0xd898
    ad74:	e1a01004 	mov	r1, r4
    ad78:	e3400000 	movt	r0, #0
    ad7c:	eb000743 	bl	ca90 <printk>
    ad80:	e3e00000 	mvn	r0, #0
    ad84:	e8bd8010 	pop	{r4, pc}

0000ad88 <gpio_set_value>:
    ad88:	e3500036 	cmp	r0, #54	; 0x36
    ad8c:	e1a03000 	mov	r3, r0
    ad90:	e92d4010 	push	{r4, lr}
    ad94:	ca00001d 	bgt	ae10 <gpio_set_value+0x88>
    ad98:	e3a02001 	mov	r2, #1
    ad9c:	e200c01f 	and	ip, r0, #31
    ada0:	e3500000 	cmp	r0, #0
    ada4:	e1a04001 	mov	r4, r1
    ada8:	e1a0cc12 	lsl	ip, r2, ip
    adac:	e280201f 	add	r2, r0, #31
    adb0:	a1a02000 	movge	r2, r0
    adb4:	e3510000 	cmp	r1, #0
    adb8:	e1a032c2 	asr	r3, r2, #5
    adbc:	e1a03103 	lsl	r3, r3, #2
    adc0:	0a00000c 	beq	adf8 <gpio_set_value+0x70>
    adc4:	e3510001 	cmp	r1, #1
    adc8:	0a000004 	beq	ade0 <gpio_set_value+0x58>
    adcc:	e30d08a8 	movw	r0, #55464	; 0xd8a8
    add0:	e3400000 	movt	r0, #0
    add4:	eb00072d 	bl	ca90 <printk>
    add8:	e3a00000 	mov	r0, #0
    addc:	e8bd8010 	pop	{r4, pc}
    ade0:	e2830602 	add	r0, r3, #2097152	; 0x200000
    ade4:	e1a0100c 	mov	r1, ip
    ade8:	e280001c 	add	r0, r0, #28
    adec:	ebfffdf2 	bl	a5bc <bcm2835_write>
    adf0:	e3a00000 	mov	r0, #0
    adf4:	e8bd8010 	pop	{r4, pc}
    adf8:	e2830602 	add	r0, r3, #2097152	; 0x200000
    adfc:	e1a0100c 	mov	r1, ip
    ae00:	e2800028 	add	r0, r0, #40	; 0x28
    ae04:	ebfffdec 	bl	a5bc <bcm2835_write>
    ae08:	e1a00004 	mov	r0, r4
    ae0c:	e8bd8010 	pop	{r4, pc}
    ae10:	e30d0898 	movw	r0, #55448	; 0xd898
    ae14:	e1a01003 	mov	r1, r3
    ae18:	e3400000 	movt	r0, #0
    ae1c:	eb00071b 	bl	ca90 <printk>
    ae20:	e3e00000 	mvn	r0, #0
    ae24:	e8bd8010 	pop	{r4, pc}

0000ae28 <gpio_set_falling>:
    ae28:	e3500036 	cmp	r0, #54	; 0x36
    ae2c:	e92d4070 	push	{r4, r5, r6, lr}
    ae30:	e1a05000 	mov	r5, r0
    ae34:	ca000010 	bgt	ae7c <gpio_set_falling+0x54>
    ae38:	e3500000 	cmp	r0, #0
    ae3c:	e280401f 	add	r4, r0, #31
    ae40:	a1a04000 	movge	r4, r0
    ae44:	e205501f 	and	r5, r5, #31
    ae48:	e1a042c4 	asr	r4, r4, #5
    ae4c:	e1a04104 	lsl	r4, r4, #2
    ae50:	e2844602 	add	r4, r4, #2097152	; 0x200000
    ae54:	e2844058 	add	r4, r4, #88	; 0x58
    ae58:	e1a00004 	mov	r0, r4
    ae5c:	ebfffddc 	bl	a5d4 <bcm2835_read>
    ae60:	e3a01001 	mov	r1, #1
    ae64:	e1a03000 	mov	r3, r0
    ae68:	e1a00004 	mov	r0, r4
    ae6c:	e1831511 	orr	r1, r3, r1, lsl r5
    ae70:	ebfffdd1 	bl	a5bc <bcm2835_write>
    ae74:	e3a00000 	mov	r0, #0
    ae78:	e8bd8070 	pop	{r4, r5, r6, pc}
    ae7c:	e30d0898 	movw	r0, #55448	; 0xd898
    ae80:	e1a01005 	mov	r1, r5
    ae84:	e3400000 	movt	r0, #0
    ae88:	eb000700 	bl	ca90 <printk>
    ae8c:	e3e00000 	mvn	r0, #0
    ae90:	e8bd8070 	pop	{r4, r5, r6, pc}

0000ae94 <gpio_clear_interrupt>:
    ae94:	e3500036 	cmp	r0, #54	; 0x36
    ae98:	e1a03000 	mov	r3, r0
    ae9c:	e92d4010 	push	{r4, lr}
    aea0:	ca00000c 	bgt	aed8 <gpio_clear_interrupt+0x44>
    aea4:	e3530000 	cmp	r3, #0
    aea8:	e280001f 	add	r0, r0, #31
    aeac:	a1a00003 	movge	r0, r3
    aeb0:	e203201f 	and	r2, r3, #31
    aeb4:	e3a01001 	mov	r1, #1
    aeb8:	e1a002c0 	asr	r0, r0, #5
    aebc:	e1a01211 	lsl	r1, r1, r2
    aec0:	e1a00100 	lsl	r0, r0, #2
    aec4:	e2800602 	add	r0, r0, #2097152	; 0x200000
    aec8:	e2800040 	add	r0, r0, #64	; 0x40
    aecc:	ebfffdba 	bl	a5bc <bcm2835_write>
    aed0:	e3a00000 	mov	r0, #0
    aed4:	e8bd8010 	pop	{r4, pc}
    aed8:	e30d0898 	movw	r0, #55448	; 0xd898
    aedc:	e1a01003 	mov	r1, r3
    aee0:	e3400000 	movt	r0, #0
    aee4:	eb0006e9 	bl	ca90 <printk>
    aee8:	e3e00000 	mvn	r0, #0
    aeec:	e8bd8010 	pop	{r4, pc}

0000aef0 <pl011_uart_putc>:
    aef0:	e92d4070 	push	{r4, r5, r6, lr}
    aef4:	e3014018 	movw	r4, #4120	; 0x1018
    aef8:	e3404020 	movt	r4, #32
    aefc:	e1a05000 	mov	r5, r0
    af00:	e1a00004 	mov	r0, r4
    af04:	ebfffdb2 	bl	a5d4 <bcm2835_read>
    af08:	e3100020 	tst	r0, #32
    af0c:	1afffffb 	bne	af00 <pl011_uart_putc+0x10>
    af10:	e3a00a01 	mov	r0, #4096	; 0x1000
    af14:	e1a01005 	mov	r1, r5
    af18:	e3400020 	movt	r0, #32
    af1c:	e8bd4070 	pop	{r4, r5, r6, lr}
    af20:	eafffda5 	b	a5bc <bcm2835_write>

0000af24 <pl011_uart_getc>:
    af24:	e92d4010 	push	{r4, lr}
    af28:	e3014018 	movw	r4, #4120	; 0x1018
    af2c:	e3404020 	movt	r4, #32
    af30:	e1a00004 	mov	r0, r4
    af34:	ebfffda6 	bl	a5d4 <bcm2835_read>
    af38:	e3100010 	tst	r0, #16
    af3c:	1afffffb 	bne	af30 <pl011_uart_getc+0xc>
    af40:	e3a00a01 	mov	r0, #4096	; 0x1000
    af44:	e8bd4010 	pop	{r4, lr}
    af48:	e3400020 	movt	r0, #32
    af4c:	eafffda0 	b	a5d4 <bcm2835_read>

0000af50 <pl011_uart_getc_noblock>:
    af50:	e3010018 	movw	r0, #4120	; 0x1018
    af54:	e3400020 	movt	r0, #32
    af58:	e92d4010 	push	{r4, lr}
    af5c:	ebfffd9c 	bl	a5d4 <bcm2835_read>
    af60:	e3100010 	tst	r0, #16
    af64:	1a000004 	bne	af7c <pl011_uart_getc_noblock+0x2c>
    af68:	e3a00a01 	mov	r0, #4096	; 0x1000
    af6c:	e3400020 	movt	r0, #32
    af70:	ebfffd97 	bl	a5d4 <bcm2835_read>
    af74:	e6ef0070 	uxtb	r0, r0
    af78:	e8bd8010 	pop	{r4, pc}
    af7c:	e3e00000 	mvn	r0, #0
    af80:	e8bd8010 	pop	{r4, pc}

0000af84 <pl011_uart_enable_interrupts>:
    af84:	e92d4070 	push	{r4, r5, r6, lr}
    af88:	e3010044 	movw	r0, #4164	; 0x1044
    af8c:	e3400020 	movt	r0, #32
    af90:	e3014034 	movw	r4, #4148	; 0x1034
    af94:	e3404020 	movt	r4, #32
    af98:	e30017ff 	movw	r1, #2047	; 0x7ff
    af9c:	e3015038 	movw	r5, #4152	; 0x1038
    afa0:	ebfffd85 	bl	a5bc <bcm2835_write>
    afa4:	e3405020 	movt	r5, #32
    afa8:	e1a00004 	mov	r0, r4
    afac:	ebfffd88 	bl	a5d4 <bcm2835_read>
    afb0:	e1a01000 	mov	r1, r0
    afb4:	e1a00004 	mov	r0, r4
    afb8:	e3c11038 	bic	r1, r1, #56	; 0x38
    afbc:	ebfffd7e 	bl	a5bc <bcm2835_write>
    afc0:	e1a00005 	mov	r0, r5
    afc4:	ebfffd82 	bl	a5d4 <bcm2835_read>
    afc8:	e1a04000 	mov	r4, r0
    afcc:	e30d08c0 	movw	r0, #55488	; 0xd8c0
    afd0:	e3400000 	movt	r0, #0
    afd4:	e1a01004 	mov	r1, r4
    afd8:	e3844040 	orr	r4, r4, #64	; 0x40
    afdc:	eb0006ab 	bl	ca90 <printk>
    afe0:	e30d08dc 	movw	r0, #55516	; 0xd8dc
    afe4:	e1a01004 	mov	r1, r4
    afe8:	e3400000 	movt	r0, #0
    afec:	eb0006a7 	bl	ca90 <printk>
    aff0:	e1a00005 	mov	r0, r5
    aff4:	e1a01004 	mov	r1, r4
    aff8:	ebfffd6f 	bl	a5bc <bcm2835_write>
    affc:	e8bd4070 	pop	{r4, r5, r6, lr}
    b000:	e3a00039 	mov	r0, #57	; 0x39
    b004:	eafff8a9 	b	92b0 <irq_enable>

0000b008 <pl011_uart_interrupt_handler>:
    b008:	e92d4070 	push	{r4, r5, r6, lr}
    b00c:	e3015018 	movw	r5, #4120	; 0x1018
    b010:	e3405020 	movt	r5, #32
    b014:	e3a04a01 	mov	r4, #4096	; 0x1000
    b018:	e3404020 	movt	r4, #32
    b01c:	ea000002 	b	b02c <pl011_uart_interrupt_handler+0x24>
    b020:	ebfffd6b 	bl	a5d4 <bcm2835_read>
    b024:	e6ef0070 	uxtb	r0, r0
    b028:	ebfffd91 	bl	a674 <console_insert_char>
    b02c:	e1a00005 	mov	r0, r5
    b030:	ebfffd67 	bl	a5d4 <bcm2835_read>
    b034:	e1a03000 	mov	r3, r0
    b038:	e1a00004 	mov	r0, r4
    b03c:	e3130010 	tst	r3, #16
    b040:	0afffff6 	beq	b020 <pl011_uart_interrupt_handler+0x18>
    b044:	e3010044 	movw	r0, #4164	; 0x1044
    b048:	e3a01040 	mov	r1, #64	; 0x40
    b04c:	e3400020 	movt	r0, #32
    b050:	ebfffd59 	bl	a5bc <bcm2835_write>
    b054:	e3a00000 	mov	r0, #0
    b058:	e8bd8070 	pop	{r4, r5, r6, pc}

0000b05c <pl011_uart_init>:
    b05c:	e3a03cc2 	mov	r3, #49664	; 0xc200
    b060:	e30acf84 	movw	ip, #44932	; 0xaf84
    b064:	e3403001 	movt	r3, #1
    b068:	e30a1f24 	movw	r1, #44836	; 0xaf24
    b06c:	e92d41f0 	push	{r4, r5, r6, r7, r8, lr}
    b070:	e30a2f50 	movw	r2, #44880	; 0xaf50
    b074:	e5803004 	str	r3, [r0, #4]
    b078:	e30a3ef0 	movw	r3, #44784	; 0xaef0
    b07c:	e3403000 	movt	r3, #0
    b080:	e3016030 	movw	r6, #4144	; 0x1030
    b084:	e5803018 	str	r3, [r0, #24]
    b088:	e30b3008 	movw	r3, #45064	; 0xb008
    b08c:	e340c000 	movt	ip, #0
    b090:	e3a04000 	mov	r4, #0
    b094:	e3403000 	movt	r3, #0
    b098:	e3a05004 	mov	r5, #4
    b09c:	e3402000 	movt	r2, #0
    b0a0:	e580c014 	str	ip, [r0, #20]
    b0a4:	e3a0c008 	mov	ip, #8
    b0a8:	e5803024 	str	r3, [r0, #36]	; 0x24
    b0ac:	e3a03001 	mov	r3, #1
    b0b0:	e3401000 	movt	r1, #0
    b0b4:	e3406020 	movt	r6, #32
    b0b8:	e580c008 	str	ip, [r0, #8]
    b0bc:	e5802020 	str	r2, [r0, #32]
    b0c0:	e580300c 	str	r3, [r0, #12]
    b0c4:	e5804010 	str	r4, [r0, #16]
    b0c8:	e580101c 	str	r1, [r0, #28]
    b0cc:	e1a01004 	mov	r1, r4
    b0d0:	e3405020 	movt	r5, #32
    b0d4:	e1a00006 	mov	r0, r6
    b0d8:	ebfffd37 	bl	a5bc <bcm2835_write>
    b0dc:	e30d18f0 	movw	r1, #55536	; 0xd8f0
    b0e0:	e3a0000e 	mov	r0, #14
    b0e4:	e3401000 	movt	r1, #0
    b0e8:	ebfffe8c 	bl	ab20 <gpio_request>
    b0ec:	e30d18f8 	movw	r1, #55544	; 0xd8f8
    b0f0:	e3a0000f 	mov	r0, #15
    b0f4:	e3401000 	movt	r1, #0
    b0f8:	ebfffe88 	bl	ab20 <gpio_request>
    b0fc:	e1a00005 	mov	r0, r5
    b100:	ebfffd33 	bl	a5d4 <bcm2835_read>
    b104:	e3c01a3f 	bic	r1, r0, #258048	; 0x3f000
    b108:	e1a00005 	mov	r0, r5
    b10c:	e3811909 	orr	r1, r1, #147456	; 0x24000
    b110:	e3a05096 	mov	r5, #150	; 0x96
    b114:	ebfffd28 	bl	a5bc <bcm2835_write>
    b118:	e3a00094 	mov	r0, #148	; 0x94
    b11c:	e1a01004 	mov	r1, r4
    b120:	e3400020 	movt	r0, #32
    b124:	ebfffd24 	bl	a5bc <bcm2835_write>
    b128:	e1a03005 	mov	r3, r5

0000b12c <__delay_230>:
    b12c:	e2533001 	subs	r3, r3, #1
    b130:	1afffffd 	bne	b12c <__delay_230>
    b134:	e3a07098 	mov	r7, #152	; 0x98
    b138:	e3a01903 	mov	r1, #49152	; 0xc000
    b13c:	e3407020 	movt	r7, #32
    b140:	e1a00007 	mov	r0, r7
    b144:	ebfffd1c 	bl	a5bc <bcm2835_write>

0000b148 <__delay_236>:
    b148:	e2555001 	subs	r5, r5, #1
    b14c:	1afffffd 	bne	b148 <__delay_236>
    b150:	e1a01004 	mov	r1, r4
    b154:	e1a00007 	mov	r0, r7
    b158:	ebfffd17 	bl	a5bc <bcm2835_write>
    b15c:	e3010044 	movw	r0, #4164	; 0x1044
    b160:	e30017ff 	movw	r1, #2047	; 0x7ff
    b164:	e3400020 	movt	r0, #32
    b168:	ebfffd13 	bl	a5bc <bcm2835_write>
    b16c:	e3010024 	movw	r0, #4132	; 0x1024
    b170:	e3a0101a 	mov	r1, #26
    b174:	e3400020 	movt	r0, #32
    b178:	ebfffd0f 	bl	a5bc <bcm2835_write>
    b17c:	e3010028 	movw	r0, #4136	; 0x1028
    b180:	e3a01003 	mov	r1, #3
    b184:	e3400020 	movt	r0, #32
    b188:	ebfffd0b 	bl	a5bc <bcm2835_write>
    b18c:	e301002c 	movw	r0, #4140	; 0x102c
    b190:	e3a01070 	mov	r1, #112	; 0x70
    b194:	e3400020 	movt	r0, #32
    b198:	ebfffd07 	bl	a5bc <bcm2835_write>
    b19c:	e3010038 	movw	r0, #4152	; 0x1038
    b1a0:	e1a01004 	mov	r1, r4
    b1a4:	e3400020 	movt	r0, #32
    b1a8:	ebfffd03 	bl	a5bc <bcm2835_write>
    b1ac:	e1a00006 	mov	r0, r6
    b1b0:	e3001301 	movw	r1, #769	; 0x301
    b1b4:	ebfffd00 	bl	a5bc <bcm2835_write>
    b1b8:	e1a00004 	mov	r0, r4
    b1bc:	e8bd81f0 	pop	{r4, r5, r6, r7, r8, pc}

0000b1c0 <pl011_uart_putc_extra>:
    b1c0:	e92d4070 	push	{r4, r5, r6, lr}
    b1c4:	e3014018 	movw	r4, #4120	; 0x1018
    b1c8:	e3404020 	movt	r4, #32
    b1cc:	e1a05000 	mov	r5, r0
    b1d0:	e1a00004 	mov	r0, r4
    b1d4:	ebfffcfe 	bl	a5d4 <bcm2835_read>
    b1d8:	e3100020 	tst	r0, #32
    b1dc:	1afffffb 	bne	b1d0 <pl011_uart_putc_extra+0x10>
    b1e0:	e3a00a01 	mov	r0, #4096	; 0x1000
    b1e4:	e1a01005 	mov	r1, r5
    b1e8:	e3400020 	movt	r0, #32
    b1ec:	e8bd4070 	pop	{r4, r5, r6, lr}
    b1f0:	eafffcf1 	b	a5bc <bcm2835_write>

0000b1f4 <pl011_write>:
    b1f4:	e92d47f0 	push	{r4, r5, r6, r7, r8, r9, sl, lr}
    b1f8:	e2518000 	subs	r8, r1, #0
    b1fc:	0a000010 	beq	b244 <pl011_write+0x50>
    b200:	e0807008 	add	r7, r0, r8
    b204:	e3014018 	movw	r4, #4120	; 0x1018
    b208:	e3404020 	movt	r4, #32
    b20c:	e3a09a01 	mov	r9, #4096	; 0x1000
    b210:	e3409020 	movt	r9, #32
    b214:	e2405001 	sub	r5, r0, #1
    b218:	e2477001 	sub	r7, r7, #1
    b21c:	e5f56001 	ldrb	r6, [r5, #1]!
    b220:	e1a00004 	mov	r0, r4
    b224:	ebfffcea 	bl	a5d4 <bcm2835_read>
    b228:	e3100020 	tst	r0, #32
    b22c:	1afffffb 	bne	b220 <pl011_write+0x2c>
    b230:	e1a01006 	mov	r1, r6
    b234:	e1a00009 	mov	r0, r9
    b238:	ebfffcdf 	bl	a5bc <bcm2835_write>
    b23c:	e1570005 	cmp	r7, r5
    b240:	1afffff5 	bne	b21c <pl011_write+0x28>
    b244:	e1a00008 	mov	r0, r8
    b248:	e8bd87f0 	pop	{r4, r5, r6, r7, r8, r9, sl, pc}

0000b24c <old_pl011_uart_init>:
    b24c:	e92d4070 	push	{r4, r5, r6, lr}
    b250:	e3015030 	movw	r5, #4144	; 0x1030
    b254:	e3405020 	movt	r5, #32
    b258:	e3a01000 	mov	r1, #0
    b25c:	e1a00005 	mov	r0, r5
    b260:	e3a04096 	mov	r4, #150	; 0x96
    b264:	ebfffcd4 	bl	a5bc <bcm2835_write>
    b268:	e30d18f0 	movw	r1, #55536	; 0xd8f0
    b26c:	e3a0000e 	mov	r0, #14
    b270:	e3401000 	movt	r1, #0
    b274:	ebfffe29 	bl	ab20 <gpio_request>
    b278:	e30d18f8 	movw	r1, #55544	; 0xd8f8
    b27c:	e3a0000f 	mov	r0, #15
    b280:	e3401000 	movt	r1, #0
    b284:	ebfffe25 	bl	ab20 <gpio_request>
    b288:	e3a00094 	mov	r0, #148	; 0x94
    b28c:	e3a01000 	mov	r1, #0
    b290:	e3400020 	movt	r0, #32
    b294:	ebfffcc8 	bl	a5bc <bcm2835_write>
    b298:	e1a03004 	mov	r3, r4

0000b29c <__delay_370>:
    b29c:	e2533001 	subs	r3, r3, #1
    b2a0:	1afffffd 	bne	b29c <__delay_370>
    b2a4:	e3a06098 	mov	r6, #152	; 0x98
    b2a8:	e3a01903 	mov	r1, #49152	; 0xc000
    b2ac:	e3406020 	movt	r6, #32
    b2b0:	e1a00006 	mov	r0, r6
    b2b4:	ebfffcc0 	bl	a5bc <bcm2835_write>

0000b2b8 <__delay_376>:
    b2b8:	e2544001 	subs	r4, r4, #1
    b2bc:	1afffffd 	bne	b2b8 <__delay_376>
    b2c0:	e3a01000 	mov	r1, #0
    b2c4:	e1a00006 	mov	r0, r6
    b2c8:	ebfffcbb 	bl	a5bc <bcm2835_write>
    b2cc:	e3010044 	movw	r0, #4164	; 0x1044
    b2d0:	e30017ff 	movw	r1, #2047	; 0x7ff
    b2d4:	e3400020 	movt	r0, #32
    b2d8:	ebfffcb7 	bl	a5bc <bcm2835_write>
    b2dc:	e3010024 	movw	r0, #4132	; 0x1024
    b2e0:	e3a01001 	mov	r1, #1
    b2e4:	e3400020 	movt	r0, #32
    b2e8:	ebfffcb3 	bl	a5bc <bcm2835_write>
    b2ec:	e3010028 	movw	r0, #4136	; 0x1028
    b2f0:	e3a01028 	mov	r1, #40	; 0x28
    b2f4:	e3400020 	movt	r0, #32
    b2f8:	ebfffcaf 	bl	a5bc <bcm2835_write>
    b2fc:	e301002c 	movw	r0, #4140	; 0x102c
    b300:	e3a01070 	mov	r1, #112	; 0x70
    b304:	e3400020 	movt	r0, #32
    b308:	ebfffcab 	bl	a5bc <bcm2835_write>
    b30c:	e3010038 	movw	r0, #4152	; 0x1038
    b310:	e3a01000 	mov	r1, #0
    b314:	e3400020 	movt	r0, #32
    b318:	ebfffca7 	bl	a5bc <bcm2835_write>
    b31c:	e1a00005 	mov	r0, r5
    b320:	e3001301 	movw	r1, #769	; 0x301
    b324:	ebfffca4 	bl	a5bc <bcm2835_write>
    b328:	e3a00000 	mov	r0, #0
    b32c:	e8bd8070 	pop	{r4, r5, r6, pc}

0000b330 <mini_uart_putc>:
    b330:	e92d4070 	push	{r4, r5, r6, lr}
    b334:	e3014018 	movw	r4, #4120	; 0x1018
    b338:	e3404020 	movt	r4, #32
    b33c:	e1a05000 	mov	r5, r0
    b340:	e1a00004 	mov	r0, r4
    b344:	ebfffca2 	bl	a5d4 <bcm2835_read>
    b348:	e3100020 	tst	r0, #32
    b34c:	1afffffb 	bne	b340 <mini_uart_putc+0x10>
    b350:	e3a00a01 	mov	r0, #4096	; 0x1000
    b354:	e1a01005 	mov	r1, r5
    b358:	e3400020 	movt	r0, #32
    b35c:	e8bd4070 	pop	{r4, r5, r6, lr}
    b360:	eafffc95 	b	a5bc <bcm2835_write>

0000b364 <mini_uart_getc>:
    b364:	e92d4010 	push	{r4, lr}
    b368:	e3014018 	movw	r4, #4120	; 0x1018
    b36c:	e3404020 	movt	r4, #32
    b370:	e1a00004 	mov	r0, r4
    b374:	ebfffc96 	bl	a5d4 <bcm2835_read>
    b378:	e3100010 	tst	r0, #16
    b37c:	1afffffb 	bne	b370 <mini_uart_getc+0xc>
    b380:	e3a00a01 	mov	r0, #4096	; 0x1000
    b384:	e8bd4010 	pop	{r4, lr}
    b388:	e3400020 	movt	r0, #32
    b38c:	eafffc90 	b	a5d4 <bcm2835_read>

0000b390 <mini_uart_getc_noblock>:
    b390:	e3010018 	movw	r0, #4120	; 0x1018
    b394:	e3400020 	movt	r0, #32
    b398:	e92d4010 	push	{r4, lr}
    b39c:	ebfffc8c 	bl	a5d4 <bcm2835_read>
    b3a0:	e3100010 	tst	r0, #16
    b3a4:	1a000004 	bne	b3bc <mini_uart_getc_noblock+0x2c>
    b3a8:	e3a00a01 	mov	r0, #4096	; 0x1000
    b3ac:	e3400020 	movt	r0, #32
    b3b0:	ebfffc87 	bl	a5d4 <bcm2835_read>
    b3b4:	e6ef0070 	uxtb	r0, r0
    b3b8:	e8bd8010 	pop	{r4, pc}
    b3bc:	e3e00000 	mvn	r0, #0
    b3c0:	e8bd8010 	pop	{r4, pc}

0000b3c4 <mini_uart_enable_interrupts>:
    b3c4:	e92d4070 	push	{r4, r5, r6, lr}
    b3c8:	e3010044 	movw	r0, #4164	; 0x1044
    b3cc:	e3400020 	movt	r0, #32
    b3d0:	e3014034 	movw	r4, #4148	; 0x1034
    b3d4:	e3404020 	movt	r4, #32
    b3d8:	e30017ff 	movw	r1, #2047	; 0x7ff
    b3dc:	e3015038 	movw	r5, #4152	; 0x1038
    b3e0:	ebfffc75 	bl	a5bc <bcm2835_write>
    b3e4:	e3405020 	movt	r5, #32
    b3e8:	e1a00004 	mov	r0, r4
    b3ec:	ebfffc78 	bl	a5d4 <bcm2835_read>
    b3f0:	e1a01000 	mov	r1, r0
    b3f4:	e1a00004 	mov	r0, r4
    b3f8:	e3c11038 	bic	r1, r1, #56	; 0x38
    b3fc:	ebfffc6e 	bl	a5bc <bcm2835_write>
    b400:	e1a00005 	mov	r0, r5
    b404:	ebfffc72 	bl	a5d4 <bcm2835_read>
    b408:	e1a04000 	mov	r4, r0
    b40c:	e30d08c0 	movw	r0, #55488	; 0xd8c0
    b410:	e3400000 	movt	r0, #0
    b414:	e1a01004 	mov	r1, r4
    b418:	e3844040 	orr	r4, r4, #64	; 0x40
    b41c:	eb00059b 	bl	ca90 <printk>
    b420:	e30d08dc 	movw	r0, #55516	; 0xd8dc
    b424:	e1a01004 	mov	r1, r4
    b428:	e3400000 	movt	r0, #0
    b42c:	eb000597 	bl	ca90 <printk>
    b430:	e1a00005 	mov	r0, r5
    b434:	e1a01004 	mov	r1, r4
    b438:	ebfffc5f 	bl	a5bc <bcm2835_write>
    b43c:	e8bd4070 	pop	{r4, r5, r6, lr}
    b440:	e3a00039 	mov	r0, #57	; 0x39
    b444:	eafff799 	b	92b0 <irq_enable>

0000b448 <mini_uart_interrupt_handler>:
    b448:	e92d4070 	push	{r4, r5, r6, lr}
    b44c:	e3015018 	movw	r5, #4120	; 0x1018
    b450:	e3405020 	movt	r5, #32
    b454:	e3a04a01 	mov	r4, #4096	; 0x1000
    b458:	e3404020 	movt	r4, #32
    b45c:	ea000002 	b	b46c <mini_uart_interrupt_handler+0x24>
    b460:	ebfffc5b 	bl	a5d4 <bcm2835_read>
    b464:	e6ef0070 	uxtb	r0, r0
    b468:	ebfffc81 	bl	a674 <console_insert_char>
    b46c:	e1a00005 	mov	r0, r5
    b470:	ebfffc57 	bl	a5d4 <bcm2835_read>
    b474:	e1a03000 	mov	r3, r0
    b478:	e1a00004 	mov	r0, r4
    b47c:	e3130010 	tst	r3, #16
    b480:	0afffff6 	beq	b460 <mini_uart_interrupt_handler+0x18>
    b484:	e3010044 	movw	r0, #4164	; 0x1044
    b488:	e3a01040 	mov	r1, #64	; 0x40
    b48c:	e3400020 	movt	r0, #32
    b490:	ebfffc49 	bl	a5bc <bcm2835_write>
    b494:	e3a00000 	mov	r0, #0
    b498:	e8bd8070 	pop	{r4, r5, r6, pc}

0000b49c <mini_uart_init>:
    b49c:	e3a03cc2 	mov	r3, #49664	; 0xc200
    b4a0:	e30bc3c4 	movw	ip, #46020	; 0xb3c4
    b4a4:	e3403001 	movt	r3, #1
    b4a8:	e30b1364 	movw	r1, #45924	; 0xb364
    b4ac:	e92d41f0 	push	{r4, r5, r6, r7, r8, lr}
    b4b0:	e30b2390 	movw	r2, #45968	; 0xb390
    b4b4:	e5803004 	str	r3, [r0, #4]
    b4b8:	e30b3330 	movw	r3, #45872	; 0xb330
    b4bc:	e3403000 	movt	r3, #0
    b4c0:	e3016030 	movw	r6, #4144	; 0x1030
    b4c4:	e5803018 	str	r3, [r0, #24]
    b4c8:	e30b3448 	movw	r3, #46152	; 0xb448
    b4cc:	e340c000 	movt	ip, #0
    b4d0:	e3a04000 	mov	r4, #0
    b4d4:	e3402000 	movt	r2, #0
    b4d8:	e3a08001 	mov	r8, #1
    b4dc:	e3403000 	movt	r3, #0
    b4e0:	e3a05096 	mov	r5, #150	; 0x96
    b4e4:	e580c014 	str	ip, [r0, #20]
    b4e8:	e3a0c008 	mov	ip, #8
    b4ec:	e3401000 	movt	r1, #0
    b4f0:	e3406020 	movt	r6, #32
    b4f4:	e580c008 	str	ip, [r0, #8]
    b4f8:	e5802020 	str	r2, [r0, #32]
    b4fc:	e5803024 	str	r3, [r0, #36]	; 0x24
    b500:	e5804010 	str	r4, [r0, #16]
    b504:	e580101c 	str	r1, [r0, #28]
    b508:	e1a01004 	mov	r1, r4
    b50c:	e580800c 	str	r8, [r0, #12]
    b510:	e1a00006 	mov	r0, r6
    b514:	ebfffc28 	bl	a5bc <bcm2835_write>
    b518:	e30d18f0 	movw	r1, #55536	; 0xd8f0
    b51c:	e3a0000e 	mov	r0, #14
    b520:	e3401000 	movt	r1, #0
    b524:	ebfffd7d 	bl	ab20 <gpio_request>
    b528:	e30d18f8 	movw	r1, #55544	; 0xd8f8
    b52c:	e3a0000f 	mov	r0, #15
    b530:	e3401000 	movt	r1, #0
    b534:	ebfffd79 	bl	ab20 <gpio_request>
    b538:	e3a00094 	mov	r0, #148	; 0x94
    b53c:	e1a01004 	mov	r1, r4
    b540:	e3400020 	movt	r0, #32
    b544:	ebfffc1c 	bl	a5bc <bcm2835_write>
    b548:	e1a03005 	mov	r3, r5

0000b54c <__delay_220>:
    b54c:	e2533001 	subs	r3, r3, #1
    b550:	1afffffd 	bne	b54c <__delay_220>
    b554:	e3a07098 	mov	r7, #152	; 0x98
    b558:	e3a01903 	mov	r1, #49152	; 0xc000
    b55c:	e3407020 	movt	r7, #32
    b560:	e1a00007 	mov	r0, r7
    b564:	ebfffc14 	bl	a5bc <bcm2835_write>

0000b568 <__delay_226>:
    b568:	e2555001 	subs	r5, r5, #1
    b56c:	1afffffd 	bne	b568 <__delay_226>
    b570:	e1a01004 	mov	r1, r4
    b574:	e1a00007 	mov	r0, r7
    b578:	ebfffc0f 	bl	a5bc <bcm2835_write>
    b57c:	e3010044 	movw	r0, #4164	; 0x1044
    b580:	e30017ff 	movw	r1, #2047	; 0x7ff
    b584:	e3400020 	movt	r0, #32
    b588:	ebfffc0b 	bl	a5bc <bcm2835_write>
    b58c:	e3010024 	movw	r0, #4132	; 0x1024
    b590:	e1a01008 	mov	r1, r8
    b594:	e3400020 	movt	r0, #32
    b598:	ebfffc07 	bl	a5bc <bcm2835_write>
    b59c:	e3010028 	movw	r0, #4136	; 0x1028
    b5a0:	e3a01028 	mov	r1, #40	; 0x28
    b5a4:	e3400020 	movt	r0, #32
    b5a8:	ebfffc03 	bl	a5bc <bcm2835_write>
    b5ac:	e301002c 	movw	r0, #4140	; 0x102c
    b5b0:	e3a01070 	mov	r1, #112	; 0x70
    b5b4:	e3400020 	movt	r0, #32
    b5b8:	ebfffbff 	bl	a5bc <bcm2835_write>
    b5bc:	e3010038 	movw	r0, #4152	; 0x1038
    b5c0:	e1a01004 	mov	r1, r4
    b5c4:	e3400020 	movt	r0, #32
    b5c8:	ebfffbfb 	bl	a5bc <bcm2835_write>
    b5cc:	e1a00006 	mov	r0, r6
    b5d0:	e3001301 	movw	r1, #769	; 0x301
    b5d4:	ebfffbf8 	bl	a5bc <bcm2835_write>
    b5d8:	e1a00004 	mov	r0, r4
    b5dc:	e8bd81f0 	pop	{r4, r5, r6, r7, r8, pc}

0000b5e0 <memory_total_free>:
    b5e0:	e3083768 	movw	r3, #34664	; 0x8768
    b5e4:	e3403002 	movt	r3, #2
    b5e8:	e5930000 	ldr	r0, [r3]
    b5ec:	e3500000 	cmp	r0, #0
    b5f0:	012fff1e 	bxeq	lr
    b5f4:	e3a03000 	mov	r3, #0
    b5f8:	e308c774 	movw	ip, #34676	; 0x8774
    b5fc:	e92d4010 	push	{r4, lr}
    b600:	e1a0e003 	mov	lr, r3
    b604:	e340c002 	movt	ip, #2
    b608:	e3a04001 	mov	r4, #1
    b60c:	e1a012c3 	asr	r1, r3, #5
    b610:	e203201f 	and	r2, r3, #31
    b614:	e2833001 	add	r3, r3, #1
    b618:	e79c1101 	ldr	r1, [ip, r1, lsl #2]
    b61c:	e0112214 	ands	r2, r1, r4, lsl r2
    b620:	028ee001 	addeq	lr, lr, #1
    b624:	e1530000 	cmp	r3, r0
    b628:	1afffff7 	bne	b60c <memory_total_free+0x2c>
    b62c:	e1a0060e 	lsl	r0, lr, #12
    b630:	e8bd8010 	pop	{r4, pc}

0000b634 <memory_allocate>:
    b634:	e92d4ff8 	push	{r3, r4, r5, r6, r7, r8, r9, sl, fp, lr}
    b638:	e308a768 	movw	sl, #34664	; 0x8768
    b63c:	e340a002 	movt	sl, #2
    b640:	e3500001 	cmp	r0, #1
    b644:	21a09000 	movcs	r9, r0
    b648:	33a09001 	movcc	r9, #1
    b64c:	e59a5000 	ldr	r5, [sl]
    b650:	e3550000 	cmp	r5, #0
    b654:	0a00003f 	beq	b758 <memory_allocate+0x124>
    b658:	e59a0004 	ldr	r0, [sl, #4]
    b65c:	e2497001 	sub	r7, r9, #1
    b660:	e3a08000 	mov	r8, #0
    b664:	e3081774 	movw	r1, #34676	; 0x8774
    b668:	e1a07627 	lsr	r7, r7, #12
    b66c:	e1a06008 	mov	r6, r8
    b670:	e3401002 	movt	r1, #2
    b674:	e2877001 	add	r7, r7, #1
    b678:	e3a04001 	mov	r4, #1
    b67c:	ea000006 	b	b69c <memory_allocate+0x68>
    b680:	e2800001 	add	r0, r0, #1
    b684:	e2866001 	add	r6, r6, #1
    b688:	e1560005 	cmp	r6, r5
    b68c:	e3a08001 	mov	r8, #1
    b690:	e733f510 	udiv	r3, r0, r5
    b694:	e0600395 	mls	r0, r5, r3, r0
    b698:	0a00002d 	beq	b754 <memory_allocate+0x120>
    b69c:	e3500000 	cmp	r0, #0
    b6a0:	e280301f 	add	r3, r0, #31
    b6a4:	a1a03000 	movge	r3, r0
    b6a8:	e200201f 	and	r2, r0, #31
    b6ac:	e270c000 	rsbs	ip, r0, #0
    b6b0:	e1a032c3 	asr	r3, r3, #5
    b6b4:	e20cc01f 	and	ip, ip, #31
    b6b8:	526c2000 	rsbpl	r2, ip, #0
    b6bc:	e791c103 	ldr	ip, [r1, r3, lsl #2]
    b6c0:	e01cc214 	ands	ip, ip, r4, lsl r2
    b6c4:	1affffed 	bne	b680 <memory_allocate+0x4c>
    b6c8:	ea000008 	b	b6f0 <memory_allocate+0xbc>
    b6cc:	e3530000 	cmp	r3, #0
    b6d0:	a1a02003 	movge	r2, r3
    b6d4:	e2733000 	rsbs	r3, r3, #0
    b6d8:	e1a022c2 	asr	r2, r2, #5
    b6dc:	e203301f 	and	r3, r3, #31
    b6e0:	5263e000 	rsbpl	lr, r3, #0
    b6e4:	e7913102 	ldr	r3, [r1, r2, lsl #2]
    b6e8:	e0133e14 	ands	r3, r3, r4, lsl lr
    b6ec:	1affffe3 	bne	b680 <memory_allocate+0x4c>
    b6f0:	e1a0b00c 	mov	fp, ip
    b6f4:	e28cc001 	add	ip, ip, #1
    b6f8:	e157000c 	cmp	r7, ip
    b6fc:	e08c3000 	add	r3, ip, r0
    b700:	e283201f 	add	r2, r3, #31
    b704:	e203e01f 	and	lr, r3, #31
    b708:	caffffef 	bgt	b6cc <memory_allocate+0x98>
    b70c:	1affffdb 	bne	b680 <memory_allocate+0x4c>
    b710:	e3580000 	cmp	r8, #0
    b714:	158a0004 	strne	r0, [sl, #4]
    b718:	e3500000 	cmp	r0, #0
    b71c:	a08bb000 	addge	fp, fp, r0
    b720:	a1a03000 	movge	r3, r0
    b724:	a3a04001 	movge	r4, #1
    b728:	ba00000a 	blt	b758 <memory_allocate+0x124>
    b72c:	e1a0e2c3 	asr	lr, r3, #5
    b730:	e203201f 	and	r2, r3, #31
    b734:	e15b0003 	cmp	fp, r3
    b738:	e2833001 	add	r3, r3, #1
    b73c:	e791c10e 	ldr	ip, [r1, lr, lsl #2]
    b740:	e18c2214 	orr	r2, ip, r4, lsl r2
    b744:	e781210e 	str	r2, [r1, lr, lsl #2]
    b748:	1afffff7 	bne	b72c <memory_allocate+0xf8>
    b74c:	e1a00600 	lsl	r0, r0, #12
    b750:	e8bd8ff8 	pop	{r3, r4, r5, r6, r7, r8, r9, sl, fp, pc}
    b754:	e58a0004 	str	r0, [sl, #4]
    b758:	e30d0900 	movw	r0, #55552	; 0xd900
    b75c:	e1a01009 	mov	r1, r9
    b760:	e3400000 	movt	r0, #0
    b764:	eb0004c9 	bl	ca90 <printk>
    b768:	e3a00000 	mov	r0, #0
    b76c:	e8bd8ff8 	pop	{r3, r4, r5, r6, r7, r8, r9, sl, fp, pc}

0000b770 <memory_free>:
    b770:	e92d4070 	push	{r4, r5, r6, lr}
    b774:	e3500000 	cmp	r0, #0
    b778:	e2804eff 	add	r4, r0, #4080	; 0xff0
    b77c:	e2415001 	sub	r5, r1, #1
    b780:	e1a02001 	mov	r2, r1
    b784:	e284400f 	add	r4, r4, #15
    b788:	e3a01056 	mov	r1, #86	; 0x56
    b78c:	a1a04000 	movge	r4, r0
    b790:	e1a05625 	lsr	r5, r5, #12
    b794:	eb000392 	bl	c5e4 <memset>
    b798:	e308c774 	movw	ip, #34676	; 0x8774
    b79c:	e2855001 	add	r5, r5, #1
    b7a0:	e1a04644 	asr	r4, r4, #12
    b7a4:	e3a01000 	mov	r1, #0
    b7a8:	e340c002 	movt	ip, #2
    b7ac:	e3a0e001 	mov	lr, #1
    b7b0:	e0813004 	add	r3, r1, r4
    b7b4:	e2811001 	add	r1, r1, #1
    b7b8:	e3530000 	cmp	r3, #0
    b7bc:	e283201f 	add	r2, r3, #31
    b7c0:	a1a02003 	movge	r2, r3
    b7c4:	e203001f 	and	r0, r3, #31
    b7c8:	e2733000 	rsbs	r3, r3, #0
    b7cc:	e1a022c2 	asr	r2, r2, #5
    b7d0:	e203301f 	and	r3, r3, #31
    b7d4:	52630000 	rsbpl	r0, r3, #0
    b7d8:	e79c3102 	ldr	r3, [ip, r2, lsl #2]
    b7dc:	e1550001 	cmp	r5, r1
    b7e0:	e1c3301e 	bic	r3, r3, lr, lsl r0
    b7e4:	e78c3102 	str	r3, [ip, r2, lsl #2]
    b7e8:	cafffff0 	bgt	b7b0 <memory_free+0x40>
    b7ec:	e3a00000 	mov	r0, #0
    b7f0:	e8bd8070 	pop	{r4, r5, r6, pc}

0000b7f4 <memory_get_total>:
    b7f4:	e3083768 	movw	r3, #34664	; 0x8768
    b7f8:	e3403002 	movt	r3, #2
    b7fc:	e5930008 	ldr	r0, [r3, #8]
    b800:	e12fff1e 	bx	lr

0000b804 <memory_hierarchy_init>:
    b804:	e92d4070 	push	{r4, r5, r6, lr}
    b808:	e24dd008 	sub	sp, sp, #8
    b80c:	e1a05000 	mov	r5, r0
    b810:	e28d1004 	add	r1, sp, #4
    b814:	e1a0000d 	mov	r0, sp
    b818:	e3084768 	movw	r4, #34664	; 0x8768
    b81c:	e3404002 	movt	r4, #2
    b820:	ebfff3c9 	bl	874c <hardware_get_memory>
    b824:	e59d6004 	ldr	r6, [sp, #4]
    b828:	e5846008 	str	r6, [r4, #8]
    b82c:	e3560101 	cmp	r6, #1073741824	; 0x40000000
    b830:	8a000041 	bhi	b93c <memory_hierarchy_init+0x138>
    b834:	e30d0948 	movw	r0, #55624	; 0xd948
    b838:	e3a03008 	mov	r3, #8
    b83c:	e1a01a26 	lsr	r1, r6, #20
    b840:	e1a02525 	lsr	r2, r5, #10
    b844:	e3400000 	movt	r0, #0
    b848:	eb000490 	bl	ca90 <printk>
    b84c:	e1b028a6 	lsrs	r2, r6, #17
    b850:	e308e774 	movw	lr, #34676	; 0x8774
    b854:	e340e002 	movt	lr, #2
    b858:	13a01000 	movne	r1, #0
    b85c:	e1a06626 	lsr	r6, r6, #12
    b860:	11a0300e 	movne	r3, lr
    b864:	108e2102 	addne	r2, lr, r2, lsl #2
    b868:	e5846000 	str	r6, [r4]
    b86c:	0a000002 	beq	b87c <memory_hierarchy_init+0x78>
    b870:	e4831004 	str	r1, [r3], #4
    b874:	e1520003 	cmp	r2, r3
    b878:	1afffffc 	bne	b870 <memory_hierarchy_init+0x6c>
    b87c:	e1a00625 	lsr	r0, r5, #12
    b880:	e3a03000 	mov	r3, #0
    b884:	e2800001 	add	r0, r0, #1
    b888:	e3a06001 	mov	r6, #1
    b88c:	e1a0c2c3 	asr	ip, r3, #5
    b890:	e203201f 	and	r2, r3, #31
    b894:	e2833001 	add	r3, r3, #1
    b898:	e79e110c 	ldr	r1, [lr, ip, lsl #2]
    b89c:	e1500003 	cmp	r0, r3
    b8a0:	e1811216 	orr	r1, r1, r6, lsl r2
    b8a4:	e78e110c 	str	r1, [lr, ip, lsl #2]
    b8a8:	1afffff7 	bne	b88c <memory_hierarchy_init+0x88>
    b8ac:	ebfff3a2 	bl	873c <hardware_get_type>
    b8b0:	e3500007 	cmp	r0, #7
    b8b4:	0a000002 	beq	b8c4 <memory_hierarchy_init+0xc0>
    b8b8:	ebfff39f 	bl	873c <hardware_get_type>
    b8bc:	e3500009 	cmp	r0, #9
    b8c0:	1a000008 	bne	b8e8 <memory_hierarchy_init+0xe4>
    b8c4:	e30d0994 	movw	r0, #55700	; 0xd994
    b8c8:	e3400000 	movt	r0, #0
    b8cc:	eb00046f 	bl	ca90 <printk>
    b8d0:	e5941008 	ldr	r1, [r4, #8]
    b8d4:	e1a02005 	mov	r2, r5
    b8d8:	e3a00000 	mov	r0, #0
    b8dc:	eb00001a 	bl	b94c <enable_mmu>
    b8e0:	e28dd008 	add	sp, sp, #8
    b8e4:	e8bd8070 	pop	{r4, r5, r6, pc}
    b8e8:	e30d09c4 	movw	r0, #55748	; 0xd9c4
    b8ec:	e3400000 	movt	r0, #0
    b8f0:	eb000466 	bl	ca90 <printk>
    b8f4:	eb000017 	bl	b958 <enable_l1_icache>
    b8f8:	e30d09d8 	movw	r0, #55768	; 0xd9d8
    b8fc:	e3400000 	movt	r0, #0
    b900:	eb000462 	bl	ca90 <printk>
    b904:	eb000015 	bl	b960 <enable_branch_predictor>
    b908:	e30d0994 	movw	r0, #55700	; 0xd994
    b90c:	e3400000 	movt	r0, #0
    b910:	eb00045e 	bl	ca90 <printk>
    b914:	e5941008 	ldr	r1, [r4, #8]
    b918:	e1a02005 	mov	r2, r5
    b91c:	e3a00000 	mov	r0, #0
    b920:	eb000009 	bl	b94c <enable_mmu>
    b924:	e30d09f4 	movw	r0, #55796	; 0xd9f4
    b928:	e3400000 	movt	r0, #0
    b92c:	eb000457 	bl	ca90 <printk>
    b930:	eb000006 	bl	b950 <enable_l1_dcache>
    b934:	e28dd008 	add	sp, sp, #8
    b938:	e8bd8070 	pop	{r4, r5, r6, pc}
    b93c:	e30d092c 	movw	r0, #55596	; 0xd92c
    b940:	e3400000 	movt	r0, #0
    b944:	eb000451 	bl	ca90 <printk>
    b948:	eaffffd7 	b	b8ac <memory_hierarchy_init+0xa8>

0000b94c <enable_mmu>:
    b94c:	e12fff1e 	bx	lr

0000b950 <enable_l1_dcache>:
    b950:	e12fff1e 	bx	lr

0000b954 <disable_l1_dcache>:
    b954:	e12fff1e 	bx	lr

0000b958 <enable_l1_icache>:
    b958:	e12fff1e 	bx	lr

0000b95c <disable_l1_icache>:
    b95c:	e12fff1e 	bx	lr

0000b960 <enable_branch_predictor>:
    b960:	e12fff1e 	bx	lr

0000b964 <disable_branch_predictor>:
    b964:	e12fff1e 	bx	lr

0000b968 <l1_cache_detect>:
    b968:	e12fff1e 	bx	lr

0000b96c <process_get_totals>:
    b96c:	e3a02000 	mov	r2, #0
    b970:	e3083000 	movw	r3, #32768	; 0x8000
    b974:	e3403003 	movt	r3, #3
    b978:	e1a00002 	mov	r0, r2
    b97c:	e5933000 	ldr	r3, [r3]
    b980:	e5812000 	str	r2, [r1]
    b984:	e5932098 	ldr	r2, [r3, #152]	; 0x98
    b988:	e2800001 	add	r0, r0, #1
    b98c:	e5933084 	ldr	r3, [r3, #132]	; 0x84
    b990:	e3520001 	cmp	r2, #1
    b994:	05912000 	ldreq	r2, [r1]
    b998:	02822001 	addeq	r2, r2, #1
    b99c:	05812000 	streq	r2, [r1]
    b9a0:	e3530000 	cmp	r3, #0
    b9a4:	1afffff6 	bne	b984 <process_get_totals+0x18>
    b9a8:	e12fff1e 	bx	lr

0000b9ac <process_lookup>:
    b9ac:	e3083000 	movw	r3, #32768	; 0x8000
    b9b0:	e1a02000 	mov	r2, r0
    b9b4:	e3403003 	movt	r3, #3
    b9b8:	e5930000 	ldr	r0, [r3]
    b9bc:	e3500000 	cmp	r0, #0
    b9c0:	012fff1e 	bxeq	lr
    b9c4:	e59030a8 	ldr	r3, [r0, #168]	; 0xa8
    b9c8:	e1530002 	cmp	r3, r2
    b9cc:	012fff1e 	bxeq	lr
    b9d0:	e5900084 	ldr	r0, [r0, #132]	; 0x84
    b9d4:	e3500000 	cmp	r0, #0
    b9d8:	1afffff9 	bne	b9c4 <process_lookup+0x18>
    b9dc:	e12fff1e 	bx	lr

0000b9e0 <process_lookup_child>:
    b9e0:	e3082000 	movw	r2, #32768	; 0x8000
    b9e4:	e1a03000 	mov	r3, r0
    b9e8:	e3402003 	movt	r2, #3
    b9ec:	e5920000 	ldr	r0, [r2]
    b9f0:	e3500000 	cmp	r0, #0
    b9f4:	012fff1e 	bxeq	lr
    b9f8:	e1530000 	cmp	r3, r0
    b9fc:	0a000002 	beq	ba0c <process_lookup_child+0x2c>
    ba00:	e59020b0 	ldr	r2, [r0, #176]	; 0xb0
    ba04:	e1520003 	cmp	r2, r3
    ba08:	012fff1e 	bxeq	lr
    ba0c:	e5900084 	ldr	r0, [r0, #132]	; 0x84
    ba10:	e3500000 	cmp	r0, #0
    ba14:	1afffff7 	bne	b9f8 <process_lookup_child+0x18>
    ba18:	e12fff1e 	bx	lr

0000ba1c <process_create>:
    ba1c:	e92d4070 	push	{r4, r5, r6, lr}
    ba20:	e3a00a02 	mov	r0, #8192	; 0x2000
    ba24:	ebffff02 	bl	b634 <memory_allocate>
    ba28:	e2505000 	subs	r5, r0, #0
    ba2c:	0a00002a 	beq	badc <process_create+0xc0>
    ba30:	e3a04000 	mov	r4, #0
    ba34:	e3a02a02 	mov	r2, #8192	; 0x2000
    ba38:	e1a01004 	mov	r1, r4
    ba3c:	eb0002e8 	bl	c5e4 <memset>
    ba40:	e5854094 	str	r4, [r5, #148]	; 0x94
    ba44:	e5854098 	str	r4, [r5, #152]	; 0x98
    ba48:	eb000294 	bl	c4a0 <ticks_since_boot>
    ba4c:	e585009c 	str	r0, [r5, #156]	; 0x9c
    ba50:	e3081000 	movw	r1, #32768	; 0x8000
    ba54:	e3401003 	movt	r1, #3
    ba58:	e2852034 	add	r2, r5, #52	; 0x34
    ba5c:	e58540a4 	str	r4, [r5, #164]	; 0xa4
    ba60:	e5913004 	ldr	r3, [r1, #4]
    ba64:	e58500a0 	str	r0, [r5, #160]	; 0xa0
    ba68:	e58530a8 	str	r3, [r5, #168]	; 0xa8
    ba6c:	e2833001 	add	r3, r3, #1
    ba70:	e5813004 	str	r3, [r1, #4]
    ba74:	e2453004 	sub	r3, r5, #4
    ba78:	e58540b8 	str	r4, [r5, #184]	; 0xb8
    ba7c:	e58540c0 	str	r4, [r5, #192]	; 0xc0
    ba80:	e58540bc 	str	r4, [r5, #188]	; 0xbc
    ba84:	e58540c4 	str	r4, [r5, #196]	; 0xc4
    ba88:	e5a34004 	str	r4, [r3, #4]!
    ba8c:	e1530002 	cmp	r3, r2
    ba90:	1afffffc 	bne	ba88 <process_create+0x6c>
    ba94:	e5913000 	ldr	r3, [r1]
    ba98:	e3a02010 	mov	r2, #16
    ba9c:	e5852040 	str	r2, [r5, #64]	; 0x40
    baa0:	e5854038 	str	r4, [r5, #56]	; 0x38
    baa4:	e3530000 	cmp	r3, #0
    baa8:	05815000 	streq	r5, [r1]
    baac:	05853084 	streq	r3, [r5, #132]	; 0x84
    bab0:	05853088 	streq	r3, [r5, #136]	; 0x88
    bab4:	0a000006 	beq	bad4 <process_create+0xb8>
    bab8:	e1a02003 	mov	r2, r3
    babc:	e5933084 	ldr	r3, [r3, #132]	; 0x84
    bac0:	e3530000 	cmp	r3, #0
    bac4:	1afffffb 	bne	bab8 <process_create+0x9c>
    bac8:	e5825084 	str	r5, [r2, #132]	; 0x84
    bacc:	e5853084 	str	r3, [r5, #132]	; 0x84
    bad0:	e5852088 	str	r2, [r5, #136]	; 0x88
    bad4:	e1a00005 	mov	r0, r5
    bad8:	e8bd8070 	pop	{r4, r5, r6, pc}
    badc:	e30d0a08 	movw	r0, #55816	; 0xda08
    bae0:	e3400000 	movt	r0, #0
    bae4:	eb0003e9 	bl	ca90 <printk>
    bae8:	eafffff9 	b	bad4 <process_create+0xb8>

0000baec <process_destroy>:
    baec:	e92d4070 	push	{r4, r5, r6, lr}
    baf0:	e3085000 	movw	r5, #32768	; 0x8000
    baf4:	e3405003 	movt	r5, #3
    baf8:	e3a02000 	mov	r2, #0
    bafc:	e5802090 	str	r2, [r0, #144]	; 0x90
    bb00:	e1a04000 	mov	r4, r0
    bb04:	e5953000 	ldr	r3, [r5]
    bb08:	e1530002 	cmp	r3, r2
    bb0c:	0a000025 	beq	bba8 <process_destroy+0xbc>
    bb10:	e1500003 	cmp	r0, r3
    bb14:	1a000002 	bne	bb24 <process_destroy+0x38>
    bb18:	ea00001c 	b	bb90 <process_destroy+0xa4>
    bb1c:	e1540003 	cmp	r4, r3
    bb20:	0a000014 	beq	bb78 <process_destroy+0x8c>
    bb24:	e5933084 	ldr	r3, [r3, #132]	; 0x84
    bb28:	e3530000 	cmp	r3, #0
    bb2c:	1afffffa 	bne	bb1c <process_destroy+0x30>
    bb30:	e30d0a6c 	movw	r0, #55916	; 0xda6c
    bb34:	e3400000 	movt	r0, #0
    bb38:	eb0003d4 	bl	ca90 <printk>
    bb3c:	e59400b8 	ldr	r0, [r4, #184]	; 0xb8
    bb40:	e3500000 	cmp	r0, #0
    bb44:	0a000001 	beq	bb50 <process_destroy+0x64>
    bb48:	e59410bc 	ldr	r1, [r4, #188]	; 0xbc
    bb4c:	ebffff07 	bl	b770 <memory_free>
    bb50:	e59400c0 	ldr	r0, [r4, #192]	; 0xc0
    bb54:	e3500000 	cmp	r0, #0
    bb58:	0a000001 	beq	bb64 <process_destroy+0x78>
    bb5c:	e59410c4 	ldr	r1, [r4, #196]	; 0xc4
    bb60:	ebffff02 	bl	b770 <memory_free>
    bb64:	e3a01a02 	mov	r1, #8192	; 0x2000
    bb68:	e1a00004 	mov	r0, r4
    bb6c:	ebfffeff 	bl	b770 <memory_free>
    bb70:	e3a00000 	mov	r0, #0
    bb74:	e8bd8070 	pop	{r4, r5, r6, pc}
    bb78:	e5943084 	ldr	r3, [r4, #132]	; 0x84
    bb7c:	e5942088 	ldr	r2, [r4, #136]	; 0x88
    bb80:	e3530000 	cmp	r3, #0
    bb84:	e5823084 	str	r3, [r2, #132]	; 0x84
    bb88:	15832088 	strne	r2, [r3, #136]	; 0x88
    bb8c:	eaffffea 	b	bb3c <process_destroy+0x50>
    bb90:	e30d0a50 	movw	r0, #55888	; 0xda50
    bb94:	e3400000 	movt	r0, #0
    bb98:	eb0003bc 	bl	ca90 <printk>
    bb9c:	e5943084 	ldr	r3, [r4, #132]	; 0x84
    bba0:	e5853000 	str	r3, [r5]
    bba4:	eaffffe4 	b	bb3c <process_destroy+0x50>
    bba8:	e30d0a28 	movw	r0, #55848	; 0xda28
    bbac:	e3400000 	movt	r0, #0
    bbb0:	eb0003b6 	bl	ca90 <printk>
    bbb4:	eaffffe0 	b	bb3c <process_destroy+0x50>

0000bbb8 <process_save>:
    bbb8:	e2800044 	add	r0, r0, #68	; 0x44
    bbbc:	e1a02000 	mov	r2, r0
    bbc0:	e8827fff 	stm	r2, {r0, r1, r2, r3, r4, r5, r6, r7, r8, r9, sl, fp, ip, sp, lr}
    bbc4:	e2822034 	add	r2, r2, #52	; 0x34
    bbc8:	e5821000 	str	r1, [r2]
    bbcc:	e2822008 	add	r2, r2, #8
    bbd0:	e14f0000 	mrs	r0, SPSR
    bbd4:	e8820001 	stm	r2, {r0}
    bbd8:	e12fff1e 	bx	lr

0000bbdc <process_switch>:
    bbdc:	e2800044 	add	r0, r0, #68	; 0x44
    bbe0:	e1a02000 	mov	r2, r0
    bbe4:	e8827fff 	stm	r2, {r0, r1, r2, r3, r4, r5, r6, r7, r8, r9, sl, fp, ip, sp, lr}
    bbe8:	e282203c 	add	r2, r2, #60	; 0x3c
    bbec:	e14f0000 	mrs	r0, SPSR
    bbf0:	e8820001 	stm	r2, {r0}
    bbf4:	e3083000 	movw	r3, #32768	; 0x8000
    bbf8:	e2812044 	add	r2, r1, #68	; 0x44
    bbfc:	e3403003 	movt	r3, #3
    bc00:	e5831008 	str	r1, [r3, #8]
    bc04:	e1a02002 	mov	r2, r2
    bc08:	e592003c 	ldr	r0, [r2, #60]	; 0x3c
    bc0c:	e169f000 	msr	SPSR_fc, r0
    bc10:	e8927fff 	ldm	r2, {r0, r1, r2, r3, r4, r5, r6, r7, r8, r9, sl, fp, ip, sp, lr}
    bc14:	e1a0f00e 	mov	pc, lr
    bc18:	e3a00000 	mov	r0, #0
    bc1c:	e12fff1e 	bx	lr

0000bc20 <execve>:
    bc20:	e92d4ff0 	push	{r4, r5, r6, r7, r8, r9, sl, fp, lr}
    bc24:	e24dd04c 	sub	sp, sp, #76	; 0x4c
    bc28:	e1a04000 	mov	r4, r0
    bc2c:	e1a06001 	mov	r6, r1
    bc30:	ebfff81c 	bl	9ca8 <get_inode>
    bc34:	e2505000 	subs	r5, r0, #0
    bc38:	ba000064 	blt	bdd0 <execve+0x1b0>
    bc3c:	e28d1014 	add	r1, sp, #20
    bc40:	ebfff8f6 	bl	a020 <romfs_stat>
    bc44:	e3500000 	cmp	r0, #0
    bc48:	b1a05000 	movlt	r5, r0
    bc4c:	ba00005f 	blt	bdd0 <execve+0x1b0>
    bc50:	e59d7030 	ldr	r7, [sp, #48]	; 0x30
    bc54:	e58d7004 	str	r7, [sp, #4]
    bc58:	e1a00007 	mov	r0, r7
    bc5c:	ebfffe74 	bl	b634 <memory_allocate>
    bc60:	e58d0008 	str	r0, [sp, #8]
    bc64:	e1a08000 	mov	r8, r0
    bc68:	e3a00a02 	mov	r0, #8192	; 0x2000
    bc6c:	ebfffe70 	bl	b634 <memory_allocate>
    bc70:	e3500000 	cmp	r0, #0
    bc74:	13580000 	cmpne	r8, #0
    bc78:	e1a02008 	mov	r2, r8
    bc7c:	e58d0000 	str	r0, [sp]
    bc80:	03a08001 	moveq	r8, #1
    bc84:	13a08000 	movne	r8, #0
    bc88:	0a00005f 	beq	be0c <execve+0x1ec>
    bc8c:	e308a008 	movw	sl, #32776	; 0x8008
    bc90:	e1a03007 	mov	r3, r7
    bc94:	e340a003 	movt	sl, #3
    bc98:	e1a01008 	mov	r1, r8
    bc9c:	e1a00005 	mov	r0, r5
    bca0:	ebfff9b1 	bl	a36c <romfs_read_file>
    bca4:	e59a0000 	ldr	r0, [sl]
    bca8:	e1a01004 	mov	r1, r4
    bcac:	e3a02020 	mov	r2, #32
    bcb0:	e28000c8 	add	r0, r0, #200	; 0xc8
    bcb4:	eb0003df 	bl	cc38 <strlcpy>
    bcb8:	e3560000 	cmp	r6, #0
    bcbc:	0a000046 	beq	bddc <execve+0x1bc>
    bcc0:	e5960000 	ldr	r0, [r6]
    bcc4:	e3500000 	cmp	r0, #0
    bcc8:	0a000049 	beq	bdf4 <execve+0x1d4>
    bccc:	e1a05008 	mov	r5, r8
    bcd0:	e1a03006 	mov	r3, r6
    bcd4:	e5b32004 	ldr	r2, [r3, #4]!
    bcd8:	e1a01005 	mov	r1, r5
    bcdc:	e2855001 	add	r5, r5, #1
    bce0:	e3520000 	cmp	r2, #0
    bce4:	e1a08005 	mov	r8, r5
    bce8:	1afffff9 	bne	bcd4 <execve+0xb4>
    bcec:	e2819002 	add	r9, r1, #2
    bcf0:	e1a01101 	lsl	r1, r1, #2
    bcf4:	e1a09109 	lsl	r9, r9, #2
    bcf8:	e281400c 	add	r4, r1, #12
    bcfc:	e7963001 	ldr	r3, [r6, r1]
    bd00:	e2899001 	add	r9, r9, #1
    bd04:	e043b000 	sub	fp, r3, r0
    bd08:	e3a00000 	mov	r0, #0
    bd0c:	eb000409 	bl	cd38 <strlen>
    bd10:	e0899000 	add	r9, r9, r0
    bd14:	e3a02000 	mov	r2, #0
    bd18:	e089000b 	add	r0, r9, fp
    bd1c:	e1500002 	cmp	r0, r2
    bd20:	e2803007 	add	r3, r0, #7
    bd24:	e59d1000 	ldr	r1, [sp]
    bd28:	a1a03000 	movge	r3, r0
    bd2c:	e3c33007 	bic	r3, r3, #7
    bd30:	e1550002 	cmp	r5, r2
    bd34:	e2633d7f 	rsb	r3, r3, #8128	; 0x1fc0
    bd38:	e2833038 	add	r3, r3, #56	; 0x38
    bd3c:	e0813003 	add	r3, r1, r3
    bd40:	e58d300c 	str	r3, [sp, #12]
    bd44:	e7c32004 	strb	r2, [r3, r4]
    bd48:	e0834004 	add	r4, r3, r4
    bd4c:	0a000011 	beq	bd98 <execve+0x178>
    bd50:	e2466004 	sub	r6, r6, #4
    bd54:	e1a0b003 	mov	fp, r3
    bd58:	e0839105 	add	r9, r3, r5, lsl #2
    bd5c:	e5b67004 	ldr	r7, [r6, #4]!
    bd60:	e48b4004 	str	r4, [fp], #4
    bd64:	e1a00007 	mov	r0, r7
    bd68:	eb0003f2 	bl	cd38 <strlen>
    bd6c:	e2802001 	add	r2, r0, #1
    bd70:	e1a01007 	mov	r1, r7
    bd74:	e1a00004 	mov	r0, r4
    bd78:	eb000397 	bl	cbdc <strncpy>
    bd7c:	e1a04000 	mov	r4, r0
    bd80:	e5960000 	ldr	r0, [r6]
    bd84:	eb0003eb 	bl	cd38 <strlen>
    bd88:	e159000b 	cmp	r9, fp
    bd8c:	e2800001 	add	r0, r0, #1
    bd90:	e0844000 	add	r4, r4, r0
    bd94:	1afffff0 	bne	bd5c <execve+0x13c>
    bd98:	e59a3000 	ldr	r3, [sl]
    bd9c:	e59d2000 	ldr	r2, [sp]
    bda0:	e5838000 	str	r8, [r3]
    bda4:	e58320b8 	str	r2, [r3, #184]	; 0xb8
    bda8:	e59d200c 	ldr	r2, [sp, #12]
    bdac:	e5832034 	str	r2, [r3, #52]	; 0x34
    bdb0:	e5832004 	str	r2, [r3, #4]
    bdb4:	e59d2008 	ldr	r2, [sp, #8]
    bdb8:	e583203c 	str	r2, [r3, #60]	; 0x3c
    bdbc:	e58320c0 	str	r2, [r3, #192]	; 0xc0
    bdc0:	e59d2004 	ldr	r2, [sp, #4]
    bdc4:	e58320c4 	str	r2, [r3, #196]	; 0xc4
    bdc8:	e3a02a02 	mov	r2, #8192	; 0x2000
    bdcc:	e58320bc 	str	r2, [r3, #188]	; 0xbc
    bdd0:	e1a00005 	mov	r0, r5
    bdd4:	e28dd04c 	add	sp, sp, #76	; 0x4c
    bdd8:	e8bd8ff0 	pop	{r4, r5, r6, r7, r8, r9, sl, fp, pc}
    bddc:	e59d3000 	ldr	r3, [sp]
    bde0:	e1a08006 	mov	r8, r6
    bde4:	e1a05006 	mov	r5, r6
    bde8:	e2833a02 	add	r3, r3, #8192	; 0x2000
    bdec:	e58d300c 	str	r3, [sp, #12]
    bdf0:	eaffffe8 	b	bd98 <execve+0x178>
    bdf4:	e1a08000 	mov	r8, r0
    bdf8:	e3a04008 	mov	r4, #8
    bdfc:	e3e01003 	mvn	r1, #3
    be00:	e3a09004 	mov	r9, #4
    be04:	e1a05000 	mov	r5, r0
    be08:	eaffffbb 	b	bcfc <execve+0xdc>
    be0c:	e3e0500b 	mvn	r5, #11
    be10:	eaffffee 	b	bdd0 <execve+0x1b0>

0000be14 <idle_task>:
    be14:	e320f003 	wfi
    be18:	eafffffd 	b	be14 <idle_task>

0000be1c <create_idle_task>:
    be1c:	e92d4070 	push	{r4, r5, r6, lr}
    be20:	ebfffefd 	bl	ba1c <process_create>
    be24:	e30b3e14 	movw	r3, #48660	; 0xbe14
    be28:	e3a02000 	mov	r2, #0
    be2c:	e3403000 	movt	r3, #0
    be30:	e3a05001 	mov	r5, #1
    be34:	e58020a4 	str	r2, [r0, #164]	; 0xa4
    be38:	e1a04000 	mov	r4, r0
    be3c:	e58030c0 	str	r3, [r0, #192]	; 0xc0
    be40:	e580303c 	str	r3, [r0, #60]	; 0x3c
    be44:	e5805094 	str	r5, [r0, #148]	; 0x94
    be48:	eb000194 	bl	c4a0 <ticks_since_boot>
    be4c:	e1a03000 	mov	r3, r0
    be50:	e3a00a01 	mov	r0, #4096	; 0x1000
    be54:	e584309c 	str	r3, [r4, #156]	; 0x9c
    be58:	e58430a0 	str	r3, [r4, #160]	; 0xa0
    be5c:	ebfffdf4 	bl	b634 <memory_allocate>
    be60:	e58400b8 	str	r0, [r4, #184]	; 0xb8
    be64:	e30d1a98 	movw	r1, #55960	; 0xda98
    be68:	e3401000 	movt	r1, #0
    be6c:	e2800a01 	add	r0, r0, #4096	; 0x1000
    be70:	e5840034 	str	r0, [r4, #52]	; 0x34
    be74:	e3a02005 	mov	r2, #5
    be78:	e28400c8 	add	r0, r4, #200	; 0xc8
    be7c:	eb000356 	bl	cbdc <strncpy>
    be80:	e59410a8 	ldr	r1, [r4, #168]	; 0xa8
    be84:	e30b3f64 	movw	r3, #48996	; 0xbf64
    be88:	e3403000 	movt	r3, #0
    be8c:	e30d0aa0 	movw	r0, #55968	; 0xdaa0
    be90:	e584307c 	str	r3, [r4, #124]	; 0x7c
    be94:	e5845098 	str	r5, [r4, #152]	; 0x98
    be98:	e3400000 	movt	r0, #0
    be9c:	e8bd4070 	pop	{r4, r5, r6, lr}
    bea0:	ea0002fa 	b	ca90 <printk>

0000bea4 <schedule>:
    bea4:	e92d4070 	push	{r4, r5, r6, lr}
    bea8:	e3083000 	movw	r3, #32768	; 0x8000
    beac:	e3403003 	movt	r3, #3
    beb0:	e3085008 	movw	r5, #32776	; 0x8008
    beb4:	e3405003 	movt	r5, #3
    beb8:	e5934000 	ldr	r4, [r3]
    bebc:	e5950000 	ldr	r0, [r5]
    bec0:	e1540000 	cmp	r4, r0
    bec4:	0a00001e 	beq	bf44 <schedule+0xa0>
    bec8:	e1a03000 	mov	r3, r0
    becc:	ea000004 	b	bee4 <schedule+0x40>
    bed0:	e5932098 	ldr	r2, [r3, #152]	; 0x98
    bed4:	e3520001 	cmp	r2, #1
    bed8:	0a000017 	beq	bf3c <schedule+0x98>
    bedc:	e1530000 	cmp	r3, r0
    bee0:	0a000005 	beq	befc <schedule+0x58>
    bee4:	e5933084 	ldr	r3, [r3, #132]	; 0x84
    bee8:	e3530000 	cmp	r3, #0
    beec:	1afffff7 	bne	bed0 <schedule+0x2c>
    bef0:	e5943084 	ldr	r3, [r4, #132]	; 0x84
    bef4:	e3530000 	cmp	r3, #0
    bef8:	1afffff4 	bne	bed0 <schedule+0x2c>
    befc:	eb000167 	bl	c4a0 <ticks_since_boot>
    bf00:	e5952000 	ldr	r2, [r5]
    bf04:	e59230a4 	ldr	r3, [r2, #164]	; 0xa4
    bf08:	e59210a0 	ldr	r1, [r2, #160]	; 0xa0
    bf0c:	e0433001 	sub	r3, r3, r1
    bf10:	e0833000 	add	r3, r3, r0
    bf14:	e58230a4 	str	r3, [r2, #164]	; 0xa4
    bf18:	eb000160 	bl	c4a0 <ticks_since_boot>
    bf1c:	e5953000 	ldr	r3, [r5]
    bf20:	e58400a0 	str	r0, [r4, #160]	; 0xa0
    bf24:	e1530004 	cmp	r3, r4
    bf28:	08bd8070 	popeq	{r4, r5, r6, pc}
    bf2c:	e1a01004 	mov	r1, r4
    bf30:	e1a00003 	mov	r0, r3
    bf34:	e8bd4070 	pop	{r4, r5, r6, lr}
    bf38:	eaffff27 	b	bbdc <process_switch>
    bf3c:	e1a04003 	mov	r4, r3
    bf40:	eaffffed 	b	befc <schedule+0x58>
    bf44:	e5940084 	ldr	r0, [r4, #132]	; 0x84
    bf48:	e3500000 	cmp	r0, #0
    bf4c:	1affffdd 	bne	bec8 <schedule+0x24>
    bf50:	e8bd8070 	pop	{r4, r5, r6, pc}

0000bf54 <sched_yield>:
    bf54:	e92d4010 	push	{r4, lr}
    bf58:	ebffffd1 	bl	bea4 <schedule>
    bf5c:	e3a00000 	mov	r0, #0
    bf60:	e8bd8010 	pop	{r4, pc}

0000bf64 <enter_userspace>:
    bf64:	e3083008 	movw	r3, #32776	; 0x8008
    bf68:	e3403003 	movt	r3, #3
    bf6c:	e52de004 	push	{lr}		; (str lr, [sp, #-4]!)
    bf70:	e5933000 	ldr	r3, [r3]
    bf74:	e593303c 	ldr	r3, [r3, #60]	; 0x3c
    bf78:	e1a0e003 	mov	lr, r3
    bf7c:	e59fd0ac 	ldr	sp, [pc, #172]	; c030 <start_userspace+0x9c>
    bf80:	e59dd000 	ldr	sp, [sp]
    bf84:	e3a00010 	mov	r0, #16
    bf88:	e16ff000 	msr	SPSR_fsxc, r0
    bf8c:	e1b0f00e 	movs	pc, lr
    bf90:	e49df004 	pop	{pc}		; (ldr pc, [sp], #4)

0000bf94 <start_userspace>:
    bf94:	e92d48f0 	push	{r4, r5, r6, r7, fp, lr}
    bf98:	e28db014 	add	fp, sp, #20
    bf9c:	e1a06000 	mov	r6, r0
    bfa0:	ebfffe9d 	bl	ba1c <process_create>
    bfa4:	e1a04000 	mov	r4, r0
    bfa8:	e3085008 	movw	r5, #32776	; 0x8008
    bfac:	e3405003 	movt	r5, #3
    bfb0:	e30d0064 	movw	r0, #53348	; 0xd064
    bfb4:	e3400000 	movt	r0, #0
    bfb8:	e58440b0 	str	r4, [r4, #176]	; 0xb0
    bfbc:	e5854000 	str	r4, [r5]
    bfc0:	ebfff738 	bl	9ca8 <get_inode>
    bfc4:	e58400b4 	str	r0, [r4, #180]	; 0xb4
    bfc8:	e3a02000 	mov	r2, #0
    bfcc:	e1a01002 	mov	r1, r2
    bfd0:	e1a00006 	mov	r0, r6
    bfd4:	ebffff11 	bl	bc20 <execve>
    bfd8:	e3500000 	cmp	r0, #0
    bfdc:	b8bd88f0 	poplt	{r4, r5, r6, r7, fp, pc}
    bfe0:	e59410a8 	ldr	r1, [r4, #168]	; 0xa8
    bfe4:	e30d0abc 	movw	r0, #55996	; 0xdabc
    bfe8:	e3400000 	movt	r0, #0
    bfec:	e28420c8 	add	r2, r4, #200	; 0xc8
    bff0:	eb0002a6 	bl	ca90 <printk>
    bff4:	e3a03001 	mov	r3, #1
    bff8:	e5843098 	str	r3, [r4, #152]	; 0x98
    bffc:	e5943034 	ldr	r3, [r4, #52]	; 0x34
    c000:	e321f0df 	msr	CPSR_c, #223	; 0xdf
    c004:	e1a0d003 	mov	sp, r3
    c008:	e321f0d3 	msr	CPSR_c, #211	; 0xd3
    c00c:	e5953000 	ldr	r3, [r5]
    c010:	e593303c 	ldr	r3, [r3, #60]	; 0x3c
    c014:	e1a0e003 	mov	lr, r3
    c018:	e59fd010 	ldr	sp, [pc, #16]	; c030 <start_userspace+0x9c>
    c01c:	e59dd000 	ldr	sp, [sp]
    c020:	e3a00010 	mov	r0, #16
    c024:	e16ff000 	msr	SPSR_fsxc, r0
    c028:	e1b0f00e 	movs	pc, lr
    c02c:	e8bd88f0 	pop	{r4, r5, r6, r7, fp, pc}
    c030:	00038008 	andeq	r8, r3, r8

0000c034 <vfork>:
    c034:	e92d47f0 	push	{r4, r5, r6, r7, r8, r9, sl, lr}
    c038:	e59f8090 	ldr	r8, [pc, #144]	; c0d0 <vfork+0x9c>
    c03c:	e5985000 	ldr	r5, [r8]
    c040:	ebfffe75 	bl	ba1c <process_create>
    c044:	e2504000 	subs	r4, r0, #0
    c048:	0a00001c 	beq	c0c0 <vfork+0x8c>
    c04c:	e3a02a02 	mov	r2, #8192	; 0x2000
    c050:	e1a01005 	mov	r1, r5
    c054:	e3a06000 	mov	r6, #0
    c058:	e59470a8 	ldr	r7, [r4, #168]	; 0xa8
    c05c:	e594a088 	ldr	sl, [r4, #136]	; 0x88
    c060:	e5949084 	ldr	r9, [r4, #132]	; 0x84
    c064:	eb000111 	bl	c4b0 <memcpy>
    c068:	e3a03001 	mov	r3, #1
    c06c:	e04d1005 	sub	r1, sp, r5
    c070:	e58470a8 	str	r7, [r4, #168]	; 0xa8
    c074:	e584a088 	str	sl, [r4, #136]	; 0x88
    c078:	e5849084 	str	r9, [r4, #132]	; 0x84
    c07c:	e58450b0 	str	r5, [r4, #176]	; 0xb0
    c080:	e58460b8 	str	r6, [r4, #184]	; 0xb8
    c084:	e58460c0 	str	r6, [r4, #192]	; 0xc0
    c088:	e1a00004 	mov	r0, r4
    c08c:	e5856098 	str	r6, [r5, #152]	; 0x98
    c090:	e0841001 	add	r1, r4, r1
    c094:	e5843098 	str	r3, [r4, #152]	; 0x98
    c098:	ebfffec6 	bl	bbb8 <process_save>
    c09c:	e5983000 	ldr	r3, [r8]
    c0a0:	e1530005 	cmp	r3, r5
    c0a4:	11a07006 	movne	r7, r6
    c0a8:	0a000001 	beq	c0b4 <vfork+0x80>
    c0ac:	e1a00007 	mov	r0, r7
    c0b0:	e8bd87f0 	pop	{r4, r5, r6, r7, r8, r9, sl, pc}
    c0b4:	ebffff7a 	bl	bea4 <schedule>
    c0b8:	e1a00007 	mov	r0, r7
    c0bc:	e8bd87f0 	pop	{r4, r5, r6, r7, r8, r9, sl, pc}
    c0c0:	e59f000c 	ldr	r0, [pc, #12]	; c0d4 <vfork+0xa0>
    c0c4:	eb000271 	bl	ca90 <printk>
    c0c8:	e3e07000 	mvn	r7, #0
    c0cc:	eafffff6 	b	c0ac <vfork+0x78>
    c0d0:	00038008 	andeq	r8, r3, r8
    c0d4:	0000daf0 	strdeq	sp, [r0], -r0

0000c0d8 <waitpid_done>:
    c0d8:	e92d4010 	push	{r4, lr}
    c0dc:	e59f0008 	ldr	r0, [pc, #8]	; c0ec <waitpid_done+0x14>
    c0e0:	eb00004c 	bl	c218 <wait_queue_wake>
    c0e4:	e3a00000 	mov	r0, #0
    c0e8:	e8bd8010 	pop	{r4, pc}
    c0ec:	00038010 	andeq	r8, r3, r0, lsl r0

0000c0f0 <waitpid>:
    c0f0:	e3700001 	cmn	r0, #1
    c0f4:	e92d41f0 	push	{r4, r5, r6, r7, r8, lr}
    c0f8:	e1a05000 	mov	r5, r0
    c0fc:	e1a08001 	mov	r8, r1
    c100:	e1a06002 	mov	r6, r2
    c104:	0a000022 	beq	c194 <waitpid+0xa4>
    c108:	e3500000 	cmp	r0, #0
    c10c:	ba000026 	blt	c1ac <waitpid+0xbc>
    c110:	ebfffe25 	bl	b9ac <process_lookup>
    c114:	e1a04000 	mov	r4, r0
    c118:	e3560001 	cmp	r6, #1
    c11c:	e5943098 	ldr	r3, [r4, #152]	; 0x98
    c120:	0a000010 	beq	c168 <waitpid+0x78>
    c124:	e3530002 	cmp	r3, #2
    c128:	0a000007 	beq	c14c <waitpid+0x5c>
    c12c:	e59f708c 	ldr	r7, [pc, #140]	; c1c0 <waitpid+0xd0>
    c130:	e59f608c 	ldr	r6, [pc, #140]	; c1c4 <waitpid+0xd4>
    c134:	e1a00006 	mov	r0, r6
    c138:	e5971000 	ldr	r1, [r7]
    c13c:	eb000022 	bl	c1cc <wait_queue_add>
    c140:	e5943098 	ldr	r3, [r4, #152]	; 0x98
    c144:	e3530002 	cmp	r3, #2
    c148:	1afffff9 	bne	c134 <waitpid+0x44>
    c14c:	e3580000 	cmp	r8, #0
    c150:	159430ac 	ldrne	r3, [r4, #172]	; 0xac
    c154:	e1a00004 	mov	r0, r4
    c158:	15883000 	strne	r3, [r8]
    c15c:	ebfffe62 	bl	baec <process_destroy>
    c160:	e1a00005 	mov	r0, r5
    c164:	e8bd81f0 	pop	{r4, r5, r6, r7, r8, pc}
    c168:	e3530002 	cmp	r3, #2
    c16c:	13a05000 	movne	r5, #0
    c170:	1afffffa 	bne	c160 <waitpid+0x70>
    c174:	e3580000 	cmp	r8, #0
    c178:	159430ac 	ldrne	r3, [r4, #172]	; 0xac
    c17c:	e1a00004 	mov	r0, r4
    c180:	15883000 	strne	r3, [r8]
    c184:	e59450a8 	ldr	r5, [r4, #168]	; 0xa8
    c188:	ebfffe57 	bl	baec <process_destroy>
    c18c:	e1a00005 	mov	r0, r5
    c190:	e8bd81f0 	pop	{r4, r5, r6, r7, r8, pc}
    c194:	e1a00003 	mov	r0, r3
    c198:	ebfffe10 	bl	b9e0 <process_lookup_child>
    c19c:	e2504000 	subs	r4, r0, #0
    c1a0:	1affffdc 	bne	c118 <waitpid+0x28>
    c1a4:	e3e05009 	mvn	r5, #9
    c1a8:	eaffffec 	b	c160 <waitpid+0x70>
    c1ac:	e1a01000 	mov	r1, r0
    c1b0:	e59f0010 	ldr	r0, [pc, #16]	; c1c8 <waitpid+0xd8>
    c1b4:	eb000235 	bl	ca90 <printk>
    c1b8:	e3e05012 	mvn	r5, #18
    c1bc:	eaffffe7 	b	c160 <waitpid+0x70>
    c1c0:	00038008 	andeq	r8, r3, r8
    c1c4:	00038010 	andeq	r8, r3, r0, lsl r0
    c1c8:	0000db08 	andeq	sp, r0, r8, lsl #22

0000c1cc <wait_queue_add>:
    c1cc:	e5903000 	ldr	r3, [r0]
    c1d0:	e92d4010 	push	{r4, lr}
    c1d4:	e3530000 	cmp	r3, #0
    c1d8:	05801000 	streq	r1, [r0]
    c1dc:	1a000004 	bne	c1f4 <wait_queue_add+0x28>
    c1e0:	ea000005 	b	c1fc <wait_queue_add+0x30>
    c1e4:	e593208c 	ldr	r2, [r3, #140]	; 0x8c
    c1e8:	e3520000 	cmp	r2, #0
    c1ec:	0a000007 	beq	c210 <wait_queue_add+0x44>
    c1f0:	e1a03002 	mov	r3, r2
    c1f4:	e1530001 	cmp	r3, r1
    c1f8:	1afffff9 	bne	c1e4 <wait_queue_add+0x18>
    c1fc:	e3a04000 	mov	r4, #0
    c200:	e5814098 	str	r4, [r1, #152]	; 0x98
    c204:	ebffff26 	bl	bea4 <schedule>
    c208:	e1a00004 	mov	r0, r4
    c20c:	e8bd8010 	pop	{r4, pc}
    c210:	e583108c 	str	r1, [r3, #140]	; 0x8c
    c214:	eafffff8 	b	c1fc <wait_queue_add+0x30>

0000c218 <wait_queue_wake>:
    c218:	e5903000 	ldr	r3, [r0]
    c21c:	e52de004 	push	{lr}		; (str lr, [sp, #-4]!)
    c220:	e3530000 	cmp	r3, #0
    c224:	e1a0e000 	mov	lr, r0
    c228:	0a000007 	beq	c24c <wait_queue_wake+0x34>
    c22c:	e3a0c001 	mov	ip, #1
    c230:	e3a01000 	mov	r1, #0
    c234:	e1a02003 	mov	r2, r3
    c238:	e583c098 	str	ip, [r3, #152]	; 0x98
    c23c:	e593308c 	ldr	r3, [r3, #140]	; 0x8c
    c240:	e582108c 	str	r1, [r2, #140]	; 0x8c
    c244:	e3530000 	cmp	r3, #0
    c248:	1afffff9 	bne	c234 <wait_queue_wake+0x1c>
    c24c:	e3a00000 	mov	r0, #0
    c250:	e58e0000 	str	r0, [lr]
    c254:	e49df004 	pop	{pc}		; (ldr pc, [sp], #4)

0000c258 <dump_saved_user_state>:
    c258:	e92d47f0 	push	{r4, r5, r6, r7, r8, r9, sl, lr}
    c25c:	e1a04000 	mov	r4, r0
    c260:	e30d0b38 	movw	r0, #56120	; 0xdb38
    c264:	e28420c8 	add	r2, r4, #200	; 0xc8
    c268:	e59410a8 	ldr	r1, [r4, #168]	; 0xa8
    c26c:	e30d9b70 	movw	r9, #56176	; 0xdb70
    c270:	e3400000 	movt	r0, #0
    c274:	e30d8aec 	movw	r8, #56044	; 0xdaec
    c278:	e3409000 	movt	r9, #0
    c27c:	eb000203 	bl	ca90 <printk>
    c280:	e594103c 	ldr	r1, [r4, #60]	; 0x3c
    c284:	e30d0b50 	movw	r0, #56144	; 0xdb50
    c288:	e5942040 	ldr	r2, [r4, #64]	; 0x40
    c28c:	e30d7b64 	movw	r7, #56164	; 0xdb64
    c290:	e3400000 	movt	r0, #0
    c294:	e3a05000 	mov	r5, #0
    c298:	e3408000 	movt	r8, #0
    c29c:	eb0001fb 	bl	ca90 <printk>
    c2a0:	e3407000 	movt	r7, #0
    c2a4:	e30d0b64 	movw	r0, #56164	; 0xdb64
    c2a8:	e4942004 	ldr	r2, [r4], #4
    c2ac:	e3a01000 	mov	r1, #0
    c2b0:	e3400000 	movt	r0, #0
    c2b4:	eb0001f5 	bl	ca90 <printk>
    c2b8:	e594201c 	ldr	r2, [r4, #28]
    c2bc:	e2851008 	add	r1, r5, #8
    c2c0:	e1a00009 	mov	r0, r9
    c2c4:	e2855001 	add	r5, r5, #1
    c2c8:	e2844004 	add	r4, r4, #4
    c2cc:	eb0001ef 	bl	ca90 <printk>
    c2d0:	e1a00008 	mov	r0, r8
    c2d4:	eb0001ed 	bl	ca90 <printk>
    c2d8:	e5142004 	ldr	r2, [r4, #-4]
    c2dc:	e1a01005 	mov	r1, r5
    c2e0:	e1a00007 	mov	r0, r7
    c2e4:	eb0001e9 	bl	ca90 <printk>
    c2e8:	e3550007 	cmp	r5, #7
    c2ec:	1afffff1 	bne	c2b8 <dump_saved_user_state+0x60>
    c2f0:	e30d0aec 	movw	r0, #56044	; 0xdaec
    c2f4:	e8bd47f0 	pop	{r4, r5, r6, r7, r8, r9, sl, lr}
    c2f8:	e3400000 	movt	r0, #0
    c2fc:	ea0001e3 	b	ca90 <printk>

0000c300 <dump_saved_kernel_state>:
    c300:	e92d47f0 	push	{r4, r5, r6, r7, r8, r9, sl, lr}
    c304:	e1a05000 	mov	r5, r0
    c308:	e30d0b78 	movw	r0, #56184	; 0xdb78
    c30c:	e28520c8 	add	r2, r5, #200	; 0xc8
    c310:	e59510a8 	ldr	r1, [r5, #168]	; 0xa8
    c314:	e30d9b70 	movw	r9, #56176	; 0xdb70
    c318:	e3400000 	movt	r0, #0
    c31c:	e30d8aec 	movw	r8, #56044	; 0xdaec
    c320:	e3409000 	movt	r9, #0
    c324:	eb0001d9 	bl	ca90 <printk>
    c328:	e3408000 	movt	r8, #0
    c32c:	e30d0b64 	movw	r0, #56164	; 0xdb64
    c330:	e5952044 	ldr	r2, [r5, #68]	; 0x44
    c334:	e30d7b64 	movw	r7, #56164	; 0xdb64
    c338:	e3400000 	movt	r0, #0
    c33c:	e3a01000 	mov	r1, #0
    c340:	e3407000 	movt	r7, #0
    c344:	e2855048 	add	r5, r5, #72	; 0x48
    c348:	e3a04000 	mov	r4, #0
    c34c:	eb0001cf 	bl	ca90 <printk>
    c350:	e595201c 	ldr	r2, [r5, #28]
    c354:	e2841008 	add	r1, r4, #8
    c358:	e1a00009 	mov	r0, r9
    c35c:	e2844001 	add	r4, r4, #1
    c360:	e2855004 	add	r5, r5, #4
    c364:	eb0001c9 	bl	ca90 <printk>
    c368:	e1a00008 	mov	r0, r8
    c36c:	eb0001c7 	bl	ca90 <printk>
    c370:	e5152004 	ldr	r2, [r5, #-4]
    c374:	e1a01004 	mov	r1, r4
    c378:	e1a00007 	mov	r0, r7
    c37c:	eb0001c3 	bl	ca90 <printk>
    c380:	e3540007 	cmp	r4, #7
    c384:	1afffff1 	bne	c350 <dump_saved_kernel_state+0x50>
    c388:	e30d0aec 	movw	r0, #56044	; 0xdaec
    c38c:	e8bd47f0 	pop	{r4, r5, r6, r7, r8, r9, sl, lr}
    c390:	e3400000 	movt	r0, #0
    c394:	ea0001bd 	b	ca90 <printk>

0000c398 <dump_kernel_regs>:
    c398:	e30d0b8c 	movw	r0, #56204	; 0xdb8c
    c39c:	e1a0100e 	mov	r1, lr
    c3a0:	e92d4ff0 	push	{r4, r5, r6, r7, r8, r9, sl, fp, lr}
    c3a4:	e24dd00c 	sub	sp, sp, #12
    c3a8:	e3400000 	movt	r0, #0
    c3ac:	e1a0b00e 	mov	fp, lr
    c3b0:	eb0001b6 	bl	ca90 <printk>
    c3b4:	e58d3000 	str	r3, [sp]
    c3b8:	e1a0c000 	mov	ip, r0
    c3bc:	e1a0e002 	mov	lr, r2
    c3c0:	e30d0bac 	movw	r0, #56236	; 0xdbac
    c3c4:	e3400000 	movt	r0, #0
    c3c8:	e1a0300e 	mov	r3, lr
    c3cc:	e1a02001 	mov	r2, r1
    c3d0:	e1a0100c 	mov	r1, ip
    c3d4:	eb0001ad 	bl	ca90 <printk>
    c3d8:	e58d7000 	str	r7, [sp]
    c3dc:	e30d0bcc 	movw	r0, #56268	; 0xdbcc
    c3e0:	e3400000 	movt	r0, #0
    c3e4:	e1a01004 	mov	r1, r4
    c3e8:	e1a02005 	mov	r2, r5
    c3ec:	e1a03006 	mov	r3, r6
    c3f0:	eb0001a6 	bl	ca90 <printk>
    c3f4:	e58db000 	str	fp, [sp]
    c3f8:	e30d0bec 	movw	r0, #56300	; 0xdbec
    c3fc:	e3400000 	movt	r0, #0
    c400:	e1a01008 	mov	r1, r8
    c404:	e1a02009 	mov	r2, r9
    c408:	e1a0300a 	mov	r3, sl
    c40c:	eb00019f 	bl	ca90 <printk>
    c410:	e30d0c0c 	movw	r0, #56332	; 0xdc0c
    c414:	e1a0100c 	mov	r1, ip
    c418:	e3400000 	movt	r0, #0
    c41c:	e1a0300b 	mov	r3, fp
    c420:	e1a0200d 	mov	r2, sp
    c424:	e28dd00c 	add	sp, sp, #12
    c428:	e8bd4ff0 	pop	{r4, r5, r6, r7, r8, r9, sl, fp, lr}
    c42c:	ea000197 	b	ca90 <printk>

0000c430 <dump_memory>:
    c430:	e92d47f0 	push	{r4, r5, r6, r7, r8, r9, sl, lr}
    c434:	e2516000 	subs	r6, r1, #0
    c438:	08bd87f0 	popeq	{r4, r5, r6, r7, r8, r9, sl, pc}
    c43c:	e30d9c28 	movw	r9, #56360	; 0xdc28
    c440:	e30d8c30 	movw	r8, #56368	; 0xdc30
    c444:	e3409000 	movt	r9, #0
    c448:	e1a07000 	mov	r7, r0
    c44c:	e3408000 	movt	r8, #0
    c450:	e3a04000 	mov	r4, #0
    c454:	ea000004 	b	c46c <dump_memory+0x3c>
    c458:	e5d51000 	ldrb	r1, [r5]
    c45c:	e1a00008 	mov	r0, r8
    c460:	eb00018a 	bl	ca90 <printk>
    c464:	e1560004 	cmp	r6, r4
    c468:	08bd87f0 	popeq	{r4, r5, r6, r7, r8, r9, sl, pc}
    c46c:	e0845007 	add	r5, r4, r7
    c470:	e314000f 	tst	r4, #15
    c474:	e2844001 	add	r4, r4, #1
    c478:	1afffff6 	bne	c458 <dump_memory+0x28>
    c47c:	e1a01005 	mov	r1, r5
    c480:	e1a00009 	mov	r0, r9
    c484:	eb000181 	bl	ca90 <printk>
    c488:	eafffff2 	b	c458 <dump_memory+0x28>

0000c48c <time_since_boot>:
    c48c:	e3083750 	movw	r3, #34640	; 0x8750
    c490:	e3403002 	movt	r3, #2
    c494:	e5930000 	ldr	r0, [r3]
    c498:	e1a00320 	lsr	r0, r0, #6
    c49c:	e12fff1e 	bx	lr

0000c4a0 <ticks_since_boot>:
    c4a0:	e3083750 	movw	r3, #34640	; 0x8750
    c4a4:	e3403002 	movt	r3, #2
    c4a8:	e5930000 	ldr	r0, [r3]
    c4ac:	e12fff1e 	bx	lr

0000c4b0 <memcpy>:
    c4b0:	e3520000 	cmp	r2, #0
    c4b4:	012fff1e 	bxeq	lr
    c4b8:	e080c002 	add	ip, r0, r2
    c4bc:	e2411001 	sub	r1, r1, #1
    c4c0:	e1a03000 	mov	r3, r0
    c4c4:	e5f12001 	ldrb	r2, [r1, #1]!
    c4c8:	e4c32001 	strb	r2, [r3], #1
    c4cc:	e153000c 	cmp	r3, ip
    c4d0:	1afffffb 	bne	c4c4 <memcpy+0x14>
    c4d4:	e12fff1e 	bx	lr

0000c4d8 <memcpy_4byte>:
    c4d8:	e92d4010 	push	{r4, lr}
    c4dc:	e202e003 	and	lr, r2, #3
    c4e0:	e1b04122 	lsrs	r4, r2, #2
    c4e4:	0a000006 	beq	c504 <memcpy_4byte+0x2c>
    c4e8:	e1a03001 	mov	r3, r1
    c4ec:	e2402004 	sub	r2, r0, #4
    c4f0:	e0814104 	add	r4, r1, r4, lsl #2
    c4f4:	e493c004 	ldr	ip, [r3], #4
    c4f8:	e1530004 	cmp	r3, r4
    c4fc:	e5a2c004 	str	ip, [r2, #4]!
    c500:	1afffffb 	bne	c4f4 <memcpy_4byte+0x1c>
    c504:	e35e0000 	cmp	lr, #0
    c508:	08bd8010 	popeq	{r4, pc}
    c50c:	e081200e 	add	r2, r1, lr
    c510:	e2403001 	sub	r3, r0, #1
    c514:	e4d1c001 	ldrb	ip, [r1], #1
    c518:	e1520001 	cmp	r2, r1
    c51c:	e5e3c001 	strb	ip, [r3, #1]!
    c520:	1afffffb 	bne	c514 <memcpy_4byte+0x3c>
    c524:	e8bd8010 	pop	{r4, pc}

0000c528 <memset_byte>:
    c528:	e3520000 	cmp	r2, #0
    c52c:	012fff1e 	bxeq	lr
    c530:	e2422001 	sub	r2, r2, #1
    c534:	e6ef1071 	uxtb	r1, r1
    c538:	e0802002 	add	r2, r0, r2
    c53c:	e2403001 	sub	r3, r0, #1
    c540:	e5e31001 	strb	r1, [r3, #1]!
    c544:	e1530002 	cmp	r3, r2
    c548:	1afffffc 	bne	c540 <memset_byte+0x18>
    c54c:	e12fff1e 	bx	lr

0000c550 <memset_4byte>:
    c550:	e6ef1071 	uxtb	r1, r1
    c554:	e92d4030 	push	{r4, r5, lr}
    c558:	e2105003 	ands	r5, r0, #3
    c55c:	e1a0e801 	lsl	lr, r1, #16
    c560:	e18ee401 	orr	lr, lr, r1, lsl #8
    c564:	e18ee001 	orr	lr, lr, r1
    c568:	e18eec01 	orr	lr, lr, r1, lsl #24
    c56c:	0a000018 	beq	c5d4 <memset_4byte+0x84>
    c570:	e265c004 	rsb	ip, r5, #4
    c574:	e1a03000 	mov	r3, r0
    c578:	e080c00c 	add	ip, r0, ip
    c57c:	e4c31001 	strb	r1, [r3], #1
    c580:	e153000c 	cmp	r3, ip
    c584:	1afffffc 	bne	c57c <memset_4byte+0x2c>
    c588:	e2424001 	sub	r4, r2, #1
    c58c:	e1b04124 	lsrs	r4, r4, #2
    c590:	0a000007 	beq	c5b4 <memset_4byte+0x64>
    c594:	e2433004 	sub	r3, r3, #4
    c598:	e3a0c000 	mov	ip, #0
    c59c:	e5a3e004 	str	lr, [r3, #4]!
    c5a0:	e28cc001 	add	ip, ip, #1
    c5a4:	e15c0004 	cmp	ip, r4
    c5a8:	3afffffb 	bcc	c59c <memset_4byte+0x4c>
    c5ac:	e3550000 	cmp	r5, #0
    c5b0:	08bd8030 	popeq	{r4, r5, pc}
    c5b4:	e0422005 	sub	r2, r2, r5
    c5b8:	e080c002 	add	ip, r0, r2
    c5bc:	e1a0300c 	mov	r3, ip
    c5c0:	e4c31001 	strb	r1, [r3], #1
    c5c4:	e043200c 	sub	r2, r3, ip
    c5c8:	e1520005 	cmp	r2, r5
    c5cc:	3afffffb 	bcc	c5c0 <memset_4byte+0x70>
    c5d0:	e8bd8030 	pop	{r4, r5, pc}
    c5d4:	e1b04122 	lsrs	r4, r2, #2
    c5d8:	08bd8030 	popeq	{r4, r5, pc}
    c5dc:	e1a03000 	mov	r3, r0
    c5e0:	eaffffeb 	b	c594 <memset_4byte+0x44>

0000c5e4 <memset>:
    c5e4:	e92d41f0 	push	{r4, r5, r6, r7, r8, lr}
    c5e8:	e2103003 	ands	r3, r0, #3
    c5ec:	e1a0c000 	mov	ip, r0
    c5f0:	0a000006 	beq	c610 <asm_memset_4bytealigned>
    c5f4:	e2522004 	subs	r2, r2, #4
    c5f8:	ba00001a 	blt	c668 <asm_memset_lessthan4>
    c5fc:	e3530002 	cmp	r3, #2
    c600:	b4cc1001 	strblt	r1, [ip], #1
    c604:	d4cc1001 	strble	r1, [ip], #1
    c608:	e4cc1001 	strb	r1, [ip], #1
    c60c:	e0822003 	add	r2, r2, r3

0000c610 <asm_memset_4bytealigned>:
    c610:	e1811401 	orr	r1, r1, r1, lsl #8
    c614:	e1811801 	orr	r1, r1, r1, lsl #16
    c618:	e1a03001 	mov	r3, r1
    c61c:	e1a04001 	mov	r4, r1
    c620:	e1a05001 	mov	r5, r1
    c624:	e1a06001 	mov	r6, r1
    c628:	e1a07001 	mov	r7, r1
    c62c:	e1a08001 	mov	r8, r1
    c630:	e1a0e001 	mov	lr, r1

0000c634 <asm_memset_loop>:
    c634:	e2522040 	subs	r2, r2, #64	; 0x40
    c638:	a8ac41fa 	stmiage	ip!, {r1, r3, r4, r5, r6, r7, r8, lr}
    c63c:	a8ac41fa 	stmiage	ip!, {r1, r3, r4, r5, r6, r7, r8, lr}
    c640:	cafffffb 	bgt	c634 <asm_memset_loop>
    c644:	0a00000c 	beq	c67c <asm_memset_done>
    c648:	e3120020 	tst	r2, #32
    c64c:	18ac41fa 	stmiane	ip!, {r1, r3, r4, r5, r6, r7, r8, lr}
    c650:	e3120010 	tst	r2, #16
    c654:	18ac00f0 	stmiane	ip!, {r4, r5, r6, r7}
    c658:	e3120008 	tst	r2, #8
    c65c:	18ac000a 	stmiane	ip!, {r1, r3}
    c660:	e3120004 	tst	r2, #4
    c664:	148c1004 	strne	r1, [ip], #4

0000c668 <asm_memset_lessthan4>:
    c668:	e3120002 	tst	r2, #2
    c66c:	14cc1001 	strbne	r1, [ip], #1
    c670:	14cc1001 	strbne	r1, [ip], #1
    c674:	e3120001 	tst	r2, #1
    c678:	14cc1001 	strbne	r1, [ip], #1

0000c67c <asm_memset_done>:
    c67c:	e8bd41f0 	pop	{r4, r5, r6, r7, r8, lr}
    c680:	e12fff1e 	bx	lr

0000c684 <vsprintf>:
    c684:	e5d13000 	ldrb	r3, [r1]
    c688:	e3530000 	cmp	r3, #0
    c68c:	0a0000fd 	beq	ca88 <vsprintf+0x404>
    c690:	e92d4ff0 	push	{r4, r5, r6, r7, r8, r9, sl, fp, lr}
    c694:	e30c9ccd 	movw	r9, #52429	; 0xcccd
    c698:	e34c9ccc 	movt	r9, #52428	; 0xcccc
    c69c:	e1a0b000 	mov	fp, r0
    c6a0:	e24dd024 	sub	sp, sp, #36	; 0x24
    c6a4:	e1a08002 	mov	r8, r2
    c6a8:	e3a00000 	mov	r0, #0
    c6ac:	e3a0a00a 	mov	sl, #10
    c6b0:	ea000009 	b	c6dc <vsprintf+0x58>
    c6b4:	e7cb3000 	strb	r3, [fp, r0]
    c6b8:	e2800001 	add	r0, r0, #1
    c6bc:	e3500c01 	cmp	r0, #256	; 0x100
    c6c0:	0a0000ac 	beq	c978 <vsprintf+0x2f4>
    c6c4:	e2811001 	add	r1, r1, #1
    c6c8:	e35000ff 	cmp	r0, #255	; 0xff
    c6cc:	0a000038 	beq	c7b4 <vsprintf+0x130>
    c6d0:	e5d13000 	ldrb	r3, [r1]
    c6d4:	e3530000 	cmp	r3, #0
    c6d8:	0a000035 	beq	c7b4 <vsprintf+0x130>
    c6dc:	e3530025 	cmp	r3, #37	; 0x25
    c6e0:	1afffff3 	bne	c6b4 <vsprintf+0x30>
    c6e4:	e5d1c001 	ldrb	ip, [r1, #1]
    c6e8:	e24c2030 	sub	r2, ip, #48	; 0x30
    c6ec:	e6ef2072 	uxtb	r2, r2
    c6f0:	e3520009 	cmp	r2, #9
    c6f4:	9a000049 	bls	c820 <vsprintf+0x19c>
    c6f8:	e2811001 	add	r1, r1, #1
    c6fc:	e3a02000 	mov	r2, #0
    c700:	e3a03020 	mov	r3, #32
    c704:	e58d3004 	str	r3, [sp, #4]
    c708:	e35c0069 	cmp	ip, #105	; 0x69
    c70c:	135c0064 	cmpne	ip, #100	; 0x64
    c710:	1a000029 	bne	c7bc <vsprintf+0x138>
    c714:	e498c004 	ldr	ip, [r8], #4
    c718:	e2811001 	add	r1, r1, #1
    c71c:	e35c0000 	cmp	ip, #0
    c720:	a3a07000 	movge	r7, #0
    c724:	ba000050 	blt	c86c <vsprintf+0x1e8>
    c728:	e2877009 	add	r7, r7, #9
    c72c:	e28d6016 	add	r6, sp, #22
    c730:	e3a05009 	mov	r5, #9
    c734:	e0843c99 	umull	r3, r4, r9, ip
    c738:	e1a0e005 	mov	lr, r5
    c73c:	e35c0009 	cmp	ip, #9
    c740:	e1a041a4 	lsr	r4, r4, #3
    c744:	e2455001 	sub	r5, r5, #1
    c748:	e063c49a 	mls	r3, sl, r4, ip
    c74c:	e1a0c004 	mov	ip, r4
    c750:	e0474005 	sub	r4, r7, r5
    c754:	e2833030 	add	r3, r3, #48	; 0x30
    c758:	e6ef3073 	uxtb	r3, r3
    c75c:	e6ef4074 	uxtb	r4, r4
    c760:	e5663001 	strb	r3, [r6, #-1]!
    c764:	8afffff2 	bhi	c734 <vsprintf+0xb0>
    c768:	e1520004 	cmp	r2, r4
    c76c:	8a000046 	bhi	c88c <vsprintf+0x208>
    c770:	e28ec001 	add	ip, lr, #1
    c774:	e2402001 	sub	r2, r0, #1
    c778:	e08b2002 	add	r2, fp, r2
    c77c:	e28d400c 	add	r4, sp, #12
    c780:	e084c00c 	add	ip, r4, ip
    c784:	e26ee00a 	rsb	lr, lr, #10
    c788:	e08ee000 	add	lr, lr, r0
    c78c:	ea000000 	b	c794 <vsprintf+0x110>
    c790:	e4dc3001 	ldrb	r3, [ip], #1
    c794:	e5e23001 	strb	r3, [r2, #1]!
    c798:	e2800001 	add	r0, r0, #1
    c79c:	e3500c01 	cmp	r0, #256	; 0x100
    c7a0:	0affffca 	beq	c6d0 <vsprintf+0x4c>
    c7a4:	e15e0000 	cmp	lr, r0
    c7a8:	1afffff8 	bne	c790 <vsprintf+0x10c>
    c7ac:	e35000ff 	cmp	r0, #255	; 0xff
    c7b0:	1affffc6 	bne	c6d0 <vsprintf+0x4c>
    c7b4:	e28dd024 	add	sp, sp, #36	; 0x24
    c7b8:	e8bd8ff0 	pop	{r4, r5, r6, r7, r8, r9, sl, fp, pc}
    c7bc:	e35c006c 	cmp	ip, #108	; 0x6c
    c7c0:	0a00006f 	beq	c984 <vsprintf+0x300>
    c7c4:	e20c30f7 	and	r3, ip, #247	; 0xf7
    c7c8:	e3530070 	cmp	r3, #112	; 0x70
    c7cc:	0a000041 	beq	c8d8 <vsprintf+0x254>
    c7d0:	e35c0063 	cmp	ip, #99	; 0x63
    c7d4:	0a000061 	beq	c960 <vsprintf+0x2dc>
    c7d8:	e35c0025 	cmp	ip, #37	; 0x25
    c7dc:	0a00008f 	beq	ca20 <vsprintf+0x39c>
    c7e0:	e35c0073 	cmp	ip, #115	; 0x73
    c7e4:	1affffb7 	bne	c6c8 <vsprintf+0x44>
    c7e8:	e498c004 	ldr	ip, [r8], #4
    c7ec:	e2402001 	sub	r2, r0, #1
    c7f0:	e08b2002 	add	r2, fp, r2
    c7f4:	e2811001 	add	r1, r1, #1
    c7f8:	e04cc000 	sub	ip, ip, r0
    c7fc:	ea000003 	b	c810 <vsprintf+0x18c>
    c800:	e5e23001 	strb	r3, [r2, #1]!
    c804:	e2800001 	add	r0, r0, #1
    c808:	e3500c01 	cmp	r0, #256	; 0x100
    c80c:	0affffaf 	beq	c6d0 <vsprintf+0x4c>
    c810:	e7dc3000 	ldrb	r3, [ip, r0]
    c814:	e3530000 	cmp	r3, #0
    c818:	1afffff8 	bne	c800 <vsprintf+0x17c>
    c81c:	eaffffa9 	b	c6c8 <vsprintf+0x44>
    c820:	e35c0030 	cmp	ip, #48	; 0x30
    c824:	e2811002 	add	r1, r1, #2
    c828:	e5d1c000 	ldrb	ip, [r1]
    c82c:	03a0e030 	moveq	lr, #48	; 0x30
    c830:	13a0e020 	movne	lr, #32
    c834:	e58de004 	str	lr, [sp, #4]
    c838:	e24c3030 	sub	r3, ip, #48	; 0x30
    c83c:	e3530009 	cmp	r3, #9
    c840:	8affffb0 	bhi	c708 <vsprintf+0x84>
    c844:	e1a03102 	lsl	r3, r2, #2
    c848:	e0822003 	add	r2, r2, r3
    c84c:	e08c2082 	add	r2, ip, r2, lsl #1
    c850:	e5f1c001 	ldrb	ip, [r1, #1]!
    c854:	e2422030 	sub	r2, r2, #48	; 0x30
    c858:	e20220ff 	and	r2, r2, #255	; 0xff
    c85c:	e24c3030 	sub	r3, ip, #48	; 0x30
    c860:	e3530009 	cmp	r3, #9
    c864:	9afffff6 	bls	c844 <vsprintf+0x1c0>
    c868:	eaffffa6 	b	c708 <vsprintf+0x84>
    c86c:	e3a0302d 	mov	r3, #45	; 0x2d
    c870:	e7cb3000 	strb	r3, [fp, r0]
    c874:	e2800001 	add	r0, r0, #1
    c878:	e3500c01 	cmp	r0, #256	; 0x100
    c87c:	0a00003d 	beq	c978 <vsprintf+0x2f4>
    c880:	e26cc000 	rsb	ip, ip, #0
    c884:	e3a07001 	mov	r7, #1
    c888:	eaffffa6 	b	c728 <vsprintf+0xa4>
    c88c:	e0424004 	sub	r4, r2, r4
    c890:	e3540000 	cmp	r4, #0
    c894:	daffffb5 	ble	c770 <vsprintf+0xec>
    c898:	e59d5004 	ldr	r5, [sp, #4]
    c89c:	e35000ff 	cmp	r0, #255	; 0xff
    c8a0:	e08bc000 	add	ip, fp, r0
    c8a4:	e2802001 	add	r2, r0, #1
    c8a8:	e7cb5000 	strb	r5, [fp, r0]
    c8ac:	0a000007 	beq	c8d0 <vsprintf+0x24c>
    c8b0:	e0840000 	add	r0, r4, r0
    c8b4:	e1a04005 	mov	r4, r5
    c8b8:	e1500002 	cmp	r0, r2
    c8bc:	e2822001 	add	r2, r2, #1
    c8c0:	0affffaa 	beq	c770 <vsprintf+0xec>
    c8c4:	e5ec4001 	strb	r4, [ip, #1]!
    c8c8:	e3520c01 	cmp	r2, #256	; 0x100
    c8cc:	1afffff9 	bne	c8b8 <vsprintf+0x234>
    c8d0:	e3a00c01 	mov	r0, #256	; 0x100
    c8d4:	eaffffa5 	b	c770 <vsprintf+0xec>
    c8d8:	e4983004 	ldr	r3, [r8], #4
    c8dc:	e2811001 	add	r1, r1, #1
    c8e0:	e28d5016 	add	r5, sp, #22
    c8e4:	e3a0c009 	mov	ip, #9
    c8e8:	ea000000 	b	c8f0 <vsprintf+0x26c>
    c8ec:	e1a0c006 	mov	ip, r6
    c8f0:	e203400f 	and	r4, r3, #15
    c8f4:	e24c6001 	sub	r6, ip, #1
    c8f8:	e3540009 	cmp	r4, #9
    c8fc:	e284e057 	add	lr, r4, #87	; 0x57
    c900:	9284e030 	addls	lr, r4, #48	; 0x30
    c904:	e353000f 	cmp	r3, #15
    c908:	e565e001 	strb	lr, [r5, #-1]!
    c90c:	e26c400a 	rsb	r4, ip, #10
    c910:	e1a03223 	lsr	r3, r3, #4
    c914:	e6ef7074 	uxtb	r7, r4
    c918:	8afffff3 	bhi	c8ec <vsprintf+0x268>
    c91c:	e1520007 	cmp	r2, r7
    c920:	8a000044 	bhi	ca38 <vsprintf+0x3b4>
    c924:	e0844000 	add	r4, r4, r0
    c928:	e28d300c 	add	r3, sp, #12
    c92c:	e28cc001 	add	ip, ip, #1
    c930:	e083c00c 	add	ip, r3, ip
    c934:	e2403001 	sub	r3, r0, #1
    c938:	e08b3003 	add	r3, fp, r3
    c93c:	ea000000 	b	c944 <vsprintf+0x2c0>
    c940:	e4dce001 	ldrb	lr, [ip], #1
    c944:	e5e3e001 	strb	lr, [r3, #1]!
    c948:	e2800001 	add	r0, r0, #1
    c94c:	e3500c01 	cmp	r0, #256	; 0x100
    c950:	0affff5e 	beq	c6d0 <vsprintf+0x4c>
    c954:	e1500004 	cmp	r0, r4
    c958:	1afffff8 	bne	c940 <vsprintf+0x2bc>
    c95c:	eaffff59 	b	c6c8 <vsprintf+0x44>
    c960:	e4983004 	ldr	r3, [r8], #4
    c964:	e2811001 	add	r1, r1, #1
    c968:	e7cb3000 	strb	r3, [fp, r0]
    c96c:	e2800001 	add	r0, r0, #1
    c970:	e3500c01 	cmp	r0, #256	; 0x100
    c974:	1affff53 	bne	c6c8 <vsprintf+0x44>
    c978:	e3a00c01 	mov	r0, #256	; 0x100
    c97c:	e28dd024 	add	sp, sp, #36	; 0x24
    c980:	e8bd8ff0 	pop	{r4, r5, r6, r7, r8, r9, sl, fp, pc}
    c984:	e2888007 	add	r8, r8, #7
    c988:	e2811003 	add	r1, r1, #3
    c98c:	e3c88007 	bic	r8, r8, #7
    c990:	e28d501e 	add	r5, sp, #30
    c994:	e3a04011 	mov	r4, #17
    c998:	e5982004 	ldr	r2, [r8, #4]
    c99c:	e4983008 	ldr	r3, [r8], #8
    c9a0:	ea000000 	b	c9a8 <vsprintf+0x324>
    c9a4:	e1a0400e 	mov	r4, lr
    c9a8:	e203e00f 	and	lr, r3, #15
    c9ac:	e3a06000 	mov	r6, #0
    c9b0:	e35e000a 	cmp	lr, #10
    c9b4:	e28ec057 	add	ip, lr, #87	; 0x57
    c9b8:	e2d66000 	sbcs	r6, r6, #0
    c9bc:	328ec030 	addcc	ip, lr, #48	; 0x30
    c9c0:	e3530010 	cmp	r3, #16
    c9c4:	e2d2e000 	sbcs	lr, r2, #0
    c9c8:	e244e001 	sub	lr, r4, #1
    c9cc:	e1a03223 	lsr	r3, r3, #4
    c9d0:	e1833e02 	orr	r3, r3, r2, lsl #28
    c9d4:	e565c001 	strb	ip, [r5, #-1]!
    c9d8:	e1a02222 	lsr	r2, r2, #4
    c9dc:	2afffff0 	bcs	c9a4 <vsprintf+0x320>
    c9e0:	e2842001 	add	r2, r4, #1
    c9e4:	e28de00c 	add	lr, sp, #12
    c9e8:	e08e2002 	add	r2, lr, r2
    c9ec:	e2403001 	sub	r3, r0, #1
    c9f0:	e08b3003 	add	r3, fp, r3
    c9f4:	e280e012 	add	lr, r0, #18
    c9f8:	e04e4004 	sub	r4, lr, r4
    c9fc:	ea000000 	b	ca04 <vsprintf+0x380>
    ca00:	e4d2c001 	ldrb	ip, [r2], #1
    ca04:	e5e3c001 	strb	ip, [r3, #1]!
    ca08:	e2800001 	add	r0, r0, #1
    ca0c:	e3500c01 	cmp	r0, #256	; 0x100
    ca10:	0affff2e 	beq	c6d0 <vsprintf+0x4c>
    ca14:	e1500004 	cmp	r0, r4
    ca18:	1afffff8 	bne	ca00 <vsprintf+0x37c>
    ca1c:	eaffff29 	b	c6c8 <vsprintf+0x44>
    ca20:	e7cbc000 	strb	ip, [fp, r0]
    ca24:	e2800001 	add	r0, r0, #1
    ca28:	e3500c01 	cmp	r0, #256	; 0x100
    ca2c:	e2811001 	add	r1, r1, #1
    ca30:	1affff24 	bne	c6c8 <vsprintf+0x44>
    ca34:	eaffffcf 	b	c978 <vsprintf+0x2f4>
    ca38:	e0422007 	sub	r2, r2, r7
    ca3c:	e3520000 	cmp	r2, #0
    ca40:	daffffb7 	ble	c924 <vsprintf+0x2a0>
    ca44:	e59d6004 	ldr	r6, [sp, #4]
    ca48:	e35000ff 	cmp	r0, #255	; 0xff
    ca4c:	e08b5000 	add	r5, fp, r0
    ca50:	e2803001 	add	r3, r0, #1
    ca54:	e7cb6000 	strb	r6, [fp, r0]
    ca58:	0a000008 	beq	ca80 <vsprintf+0x3fc>
    ca5c:	e0820000 	add	r0, r2, r0
    ca60:	e1a02005 	mov	r2, r5
    ca64:	e1a05006 	mov	r5, r6
    ca68:	e1530000 	cmp	r3, r0
    ca6c:	e2833001 	add	r3, r3, #1
    ca70:	0affffab 	beq	c924 <vsprintf+0x2a0>
    ca74:	e5e25001 	strb	r5, [r2, #1]!
    ca78:	e3530c01 	cmp	r3, #256	; 0x100
    ca7c:	1afffff9 	bne	ca68 <vsprintf+0x3e4>
    ca80:	e3a00c01 	mov	r0, #256	; 0x100
    ca84:	eaffffa6 	b	c924 <vsprintf+0x2a0>
    ca88:	e1a00003 	mov	r0, r3
    ca8c:	e12fff1e 	bx	lr

0000ca90 <printk>:
    ca90:	e92d000f 	push	{r0, r1, r2, r3}
    ca94:	e92d4010 	push	{r4, lr}
    ca98:	e24ddf42 	sub	sp, sp, #264	; 0x108
    ca9c:	e28d2f45 	add	r2, sp, #276	; 0x114
    caa0:	e28d0008 	add	r0, sp, #8
    caa4:	e59d1110 	ldr	r1, [sp, #272]	; 0x110
    caa8:	e58d2004 	str	r2, [sp, #4]
    caac:	ebfffef4 	bl	c684 <vsprintf>
    cab0:	e1a04000 	mov	r4, r0
    cab4:	e28d0008 	add	r0, sp, #8
    cab8:	e1a01004 	mov	r1, r4
    cabc:	ebfff70f 	bl	a700 <console_write>
    cac0:	e1a00004 	mov	r0, r4
    cac4:	e28ddf42 	add	sp, sp, #264	; 0x108
    cac8:	e8bd4010 	pop	{r4, lr}
    cacc:	e28dd010 	add	sp, sp, #16
    cad0:	e12fff1e 	bx	lr

0000cad4 <serial_printk>:
    cad4:	e92d000f 	push	{r0, r1, r2, r3}
    cad8:	e92d4010 	push	{r4, lr}
    cadc:	e24ddf42 	sub	sp, sp, #264	; 0x108
    cae0:	e28d2f45 	add	r2, sp, #276	; 0x114
    cae4:	e28d0008 	add	r0, sp, #8
    cae8:	e59d1110 	ldr	r1, [sp, #272]	; 0x110
    caec:	e58d2004 	str	r2, [sp, #4]
    caf0:	ebfffee3 	bl	c684 <vsprintf>
    caf4:	e1a04000 	mov	r4, r0
    caf8:	e28d0008 	add	r0, sp, #8
    cafc:	e1a01004 	mov	r1, r4
    cb00:	ebfff79b 	bl	a974 <serial_write>
    cb04:	e1a00004 	mov	r0, r4
    cb08:	e28ddf42 	add	sp, sp, #264	; 0x108
    cb0c:	e8bd4010 	pop	{r4, lr}
    cb10:	e28dd010 	add	sp, sp, #16
    cb14:	e12fff1e 	bx	lr

0000cb18 <sprintf>:
    cb18:	e92d000e 	push	{r1, r2, r3}
    cb1c:	e92d4010 	push	{r4, lr}
    cb20:	e24dd00c 	sub	sp, sp, #12
    cb24:	e28d2018 	add	r2, sp, #24
    cb28:	e1a04000 	mov	r4, r0
    cb2c:	e59d1014 	ldr	r1, [sp, #20]
    cb30:	e58d2004 	str	r2, [sp, #4]
    cb34:	ebfffed2 	bl	c684 <vsprintf>
    cb38:	e3a02000 	mov	r2, #0
    cb3c:	e7c42000 	strb	r2, [r4, r0]
    cb40:	e28dd00c 	add	sp, sp, #12
    cb44:	e8bd4010 	pop	{r4, lr}
    cb48:	e28dd00c 	add	sp, sp, #12
    cb4c:	e12fff1e 	bx	lr

0000cb50 <strncmp>:
    cb50:	e3520000 	cmp	r2, #0
    cb54:	0a00000c 	beq	cb8c <strncmp+0x3c>
    cb58:	e080c002 	add	ip, r0, r2
    cb5c:	e2411001 	sub	r1, r1, #1
    cb60:	e2402001 	sub	r2, r0, #1
    cb64:	e24cc001 	sub	ip, ip, #1
    cb68:	e5f23001 	ldrb	r3, [r2, #1]!
    cb6c:	e5f10001 	ldrb	r0, [r1, #1]!
    cb70:	e0530000 	subs	r0, r3, r0
    cb74:	112fff1e 	bxne	lr
    cb78:	e3530000 	cmp	r3, #0
    cb7c:	012fff1e 	bxeq	lr
    cb80:	e152000c 	cmp	r2, ip
    cb84:	1afffff7 	bne	cb68 <strncmp+0x18>
    cb88:	e12fff1e 	bx	lr
    cb8c:	e1a00002 	mov	r0, r2
    cb90:	e12fff1e 	bx	lr

0000cb94 <memcmp>:
    cb94:	e92d4010 	push	{r4, lr}
    cb98:	e2524000 	subs	r4, r2, #0
    cb9c:	0a00000c 	beq	cbd4 <memcmp+0x40>
    cba0:	e1a02000 	mov	r2, r0
    cba4:	e240c001 	sub	ip, r0, #1
    cba8:	e241e001 	sub	lr, r1, #1
    cbac:	e5fe1001 	ldrb	r1, [lr, #1]!
    cbb0:	e1a0300c 	mov	r3, ip
    cbb4:	e5fc0001 	ldrb	r0, [ip, #1]!
    cbb8:	e2833002 	add	r3, r3, #2
    cbbc:	e0433002 	sub	r3, r3, r2
    cbc0:	e0500001 	subs	r0, r0, r1
    cbc4:	18bd8010 	popne	{r4, pc}
    cbc8:	e1540003 	cmp	r4, r3
    cbcc:	1afffff6 	bne	cbac <memcmp+0x18>
    cbd0:	e8bd8010 	pop	{r4, pc}
    cbd4:	e1a00004 	mov	r0, r4
    cbd8:	e8bd8010 	pop	{r4, pc}

0000cbdc <strncpy>:
    cbdc:	e92d4030 	push	{r4, r5, lr}
    cbe0:	e2525000 	subs	r5, r2, #0
    cbe4:	08bd8030 	popeq	{r4, r5, pc}
    cbe8:	e2403001 	sub	r3, r0, #1
    cbec:	e241e001 	sub	lr, r1, #1
    cbf0:	e0832005 	add	r2, r3, r5
    cbf4:	e2604001 	rsb	r4, r0, #1
    cbf8:	ea000001 	b	cc04 <strncpy+0x28>
    cbfc:	e1530002 	cmp	r3, r2
    cc00:	08bd8030 	popeq	{r4, r5, pc}
    cc04:	e5fec001 	ldrb	ip, [lr, #1]!
    cc08:	e0841003 	add	r1, r4, r3
    cc0c:	e5e3c001 	strb	ip, [r3, #1]!
    cc10:	e35c0000 	cmp	ip, #0
    cc14:	1afffff8 	bne	cbfc <strncpy+0x20>
    cc18:	e1550001 	cmp	r5, r1
    cc1c:	98bd8030 	popls	{r4, r5, pc}
    cc20:	e2413001 	sub	r3, r1, #1
    cc24:	e0803003 	add	r3, r0, r3
    cc28:	e5e3c001 	strb	ip, [r3, #1]!
    cc2c:	e1530002 	cmp	r3, r2
    cc30:	1afffffc 	bne	cc28 <strncpy+0x4c>
    cc34:	e8bd8030 	pop	{r4, r5, pc}

0000cc38 <strlcpy>:
    cc38:	e2522001 	subs	r2, r2, #1
    cc3c:	e92d4010 	push	{r4, lr}
    cc40:	e1a04000 	mov	r4, r0
    cc44:	0a000011 	beq	cc90 <strlcpy+0x58>
    cc48:	e1a0e000 	mov	lr, r0
    cc4c:	e241c001 	sub	ip, r1, #1
    cc50:	e3a00000 	mov	r0, #0
    cc54:	ea000002 	b	cc64 <strlcpy+0x2c>
    cc58:	e2800001 	add	r0, r0, #1
    cc5c:	e1500002 	cmp	r0, r2
    cc60:	0a000008 	beq	cc88 <strlcpy+0x50>
    cc64:	e5fc1001 	ldrb	r1, [ip, #1]!
    cc68:	e1a0300e 	mov	r3, lr
    cc6c:	e28ee001 	add	lr, lr, #1
    cc70:	e54e1001 	strb	r1, [lr, #-1]
    cc74:	e3510000 	cmp	r1, #0
    cc78:	1afffff6 	bne	cc58 <strlcpy+0x20>
    cc7c:	e3a02000 	mov	r2, #0
    cc80:	e5c32000 	strb	r2, [r3]
    cc84:	e8bd8010 	pop	{r4, pc}
    cc88:	e0843000 	add	r3, r4, r0
    cc8c:	eafffffa 	b	cc7c <strlcpy+0x44>
    cc90:	e1a03000 	mov	r3, r0
    cc94:	e1a00002 	mov	r0, r2
    cc98:	eafffff7 	b	cc7c <strlcpy+0x44>

0000cc9c <strncat>:
    cc9c:	e92d4030 	push	{r4, r5, lr}
    cca0:	e5d05000 	ldrb	r5, [r0]
    cca4:	e3550000 	cmp	r5, #0
    cca8:	0a000020 	beq	cd30 <strncat+0x94>
    ccac:	e280e001 	add	lr, r0, #1
    ccb0:	e3a03000 	mov	r3, #0
    ccb4:	e5de4000 	ldrb	r4, [lr]
    ccb8:	e2833001 	add	r3, r3, #1
    ccbc:	e1a0c00e 	mov	ip, lr
    ccc0:	e1a05003 	mov	r5, r3
    ccc4:	e3540000 	cmp	r4, #0
    ccc8:	e28ee001 	add	lr, lr, #1
    cccc:	1afffff8 	bne	ccb4 <strncat+0x18>
    ccd0:	e3520000 	cmp	r2, #0
    ccd4:	0a00000f 	beq	cd18 <strncat+0x7c>
    ccd8:	e0814002 	add	r4, r1, r2
    ccdc:	e2412001 	sub	r2, r1, #1
    cce0:	e080e005 	add	lr, r0, r5
    cce4:	e2444001 	sub	r4, r4, #1
    cce8:	ea000001 	b	ccf4 <strncat+0x58>
    ccec:	e1520004 	cmp	r2, r4
    ccf0:	0a00000b 	beq	cd24 <strncat+0x88>
    ccf4:	e1a03002 	mov	r3, r2
    ccf8:	e5f2c001 	ldrb	ip, [r2, #1]!
    ccfc:	e2833002 	add	r3, r3, #2
    cd00:	e0433001 	sub	r3, r3, r1
    cd04:	e5cec000 	strb	ip, [lr]
    cd08:	e35c0000 	cmp	ip, #0
    cd0c:	e1a0c00e 	mov	ip, lr
    cd10:	e28ee001 	add	lr, lr, #1
    cd14:	1afffff4 	bne	ccec <strncat+0x50>
    cd18:	e3a03000 	mov	r3, #0
    cd1c:	e5cc3000 	strb	r3, [ip]
    cd20:	e8bd8030 	pop	{r4, r5, pc}
    cd24:	e0853003 	add	r3, r5, r3
    cd28:	e080c003 	add	ip, r0, r3
    cd2c:	eafffff9 	b	cd18 <strncat+0x7c>
    cd30:	e1a0c000 	mov	ip, r0
    cd34:	eaffffe5 	b	ccd0 <strncat+0x34>

0000cd38 <strlen>:
    cd38:	e1a03000 	mov	r3, r0
    cd3c:	e5d00000 	ldrb	r0, [r0]
    cd40:	e3500000 	cmp	r0, #0
    cd44:	012fff1e 	bxeq	lr
    cd48:	e2631001 	rsb	r1, r3, #1
    cd4c:	e0810003 	add	r0, r1, r3
    cd50:	e5f32001 	ldrb	r2, [r3, #1]!
    cd54:	e3520000 	cmp	r2, #0
    cd58:	1afffffb 	bne	cd4c <strlen+0x14>
    cd5c:	e12fff1e 	bx	lr

Disassembly of section .rodata.str1.4:

0000d000 <__rodata_start>:
    d000:	550a0a0a 	strpl	r0, [sl, #-2570]	; 0xfffff5f6
    d004:	676e6973 			; <UNDEFINED> instruction: 0x676e6973
    d008:	306c7020 	rsbcc	r7, ip, r0, lsr #32
    d00c:	752d3131 	strvc	r3, [sp, #-305]!	; 0xfffffecf
    d010:	0a747261 	beq	1d2999c <__bss_end+0x1cf099c>
    d014:	00000000 	andeq	r0, r0, r0
    d018:	6d6f7246 	sfmvs	f7, 2, [pc, #-280]!	; cf08 <strlen+0x1d0>
    d01c:	6f6f6220 	svcvs	0x006f6220
    d020:	616f6c74 	smcvs	63172	; 0xf6c4
    d024:	3a726564 	bcc	1ca65bc <__bss_end+0x1c6d5bc>
    d028:	3d307220 	lfmcc	f7, 4, [r0, #-128]!	; 0xffffff80
    d02c:	72207825 	eorvc	r7, r0, #2424832	; 0x250000
    d030:	78253d31 	stmdavc	r5!, {r0, r4, r5, r8, sl, fp, ip, sp}
    d034:	3d327220 	lfmcc	f7, 4, [r2, #-128]!	; 0xffffff80
    d038:	000a7825 	andeq	r7, sl, r5, lsr #16
    d03c:	35454345 	strbcc	r4, [r5, #-837]	; 0xfffffcbb
    d040:	4f203133 	svcmi	0x00203133
    d044:	00000a53 	andeq	r0, r0, r3, asr sl
    d048:	00000036 	andeq	r0, r0, r6, lsr r0
    d04c:	73726556 	cmnvc	r2, #360710144	; 0x15800000
    d050:	206e6f69 	rsbcs	r6, lr, r9, ror #30
    d054:	0a0a7325 	beq	2a9cf0 <__bss_end+0x270cf0>
    d058:	00000000 	andeq	r0, r0, r0
    d05c:	666d6f72 	uqsub16vs	r6, sp, r2
    d060:	00000073 	andeq	r0, r0, r3, ror r0
    d064:	0000002f 	andeq	r0, r0, pc, lsr #32
    d068:	7665642f 	strbtvc	r6, [r5], -pc, lsr #8
    d06c:	6d61722f 	sfmvs	f7, 2, [r1, #-188]!	; 0xffffff44
    d070:	6b736964 	blvs	1ce7608 <__bss_end+0x1cae608>
    d074:	00000000 	andeq	r0, r0, r0
    d078:	6e69622f 	cdpvs	2, 6, cr6, cr9, cr15, {1}
    d07c:	6568732f 	strbvs	r7, [r8, #-815]!	; 0xfffffcd1
    d080:	00006c6c 	andeq	r6, r0, ip, ror #24
    d084:	6f727245 	svcvs	0x00727245
    d088:	74732072 	ldrbtvc	r2, [r3], #-114	; 0xffffff8e
    d08c:	69747261 	ldmdbvs	r4!, {r0, r5, r6, r9, ip, sp, lr}^
    d090:	6920676e 	stmdbvs	r0!, {r1, r2, r3, r5, r6, r8, r9, sl, sp, lr}
    d094:	2174696e 	cmncs	r4, lr, ror #18
    d098:	0000000a 	andeq	r0, r0, sl
    d09c:	756e696c 	strbvc	r6, [lr, #-2412]!	; 0xfffff694
    d0a0:	65722c78 	ldrbvs	r2, [r2, #-3192]!	; 0xfffff388
    d0a4:	69736976 	ldmdbvs	r3!, {r1, r2, r4, r5, r6, r8, fp, sp, lr}^
    d0a8:	00006e6f 	andeq	r6, r0, pc, ror #28
    d0ac:	74737973 	ldrbtvc	r7, [r3], #-2419	; 0xfffff68d
    d0b0:	00006d65 	andeq	r6, r0, r5, ror #26
    d0b4:	72614809 	rsbvc	r4, r1, #589824	; 0x90000
    d0b8:	72617764 	rsbvc	r7, r1, #100, 14	; 0x1900000
    d0bc:	65762065 	ldrbvs	r2, [r6, #-101]!	; 0xffffff9b
    d0c0:	6f697372 	svcvs	0x00697372
    d0c4:	25203a6e 	strcs	r3, [r0, #-2670]!	; 0xfffff592
    d0c8:	00002078 	andeq	r2, r0, r8, ror r0
    d0cc:	73615228 	cmnvc	r1, #40, 4	; 0x80000002
    d0d0:	72656270 	rsbvc	r6, r5, #112, 4
    d0d4:	50207972 	eorpl	r7, r0, r2, ror r9
    d0d8:	00002969 	andeq	r2, r0, r9, ror #18
    d0dc:	6b6e5528 	blvs	1ba2584 <__bss_end+0x1b69584>
    d0e0:	6e776f6e 	cdpvs	15, 7, cr6, cr7, cr14, {3}
    d0e4:	72614820 	rsbvc	r4, r1, #32, 16	; 0x200000
    d0e8:	72617764 	rsbvc	r7, r1, #100, 14	; 0x1900000
    d0ec:	00002965 	andeq	r2, r0, r5, ror #18
    d0f0:	65646f6d 	strbvs	r6, [r4, #-3949]!	; 0xfffff093
    d0f4:	0000006c 	andeq	r0, r0, ip, rrx
    d0f8:	76654409 	strbtvc	r4, [r5], -r9, lsl #8
    d0fc:	20656369 	rsbcs	r6, r5, r9, ror #6
    d100:	65657254 	strbvs	r7, [r5, #-596]!	; 0xfffffdac
    d104:	70657220 	rsbvc	r7, r5, r0, lsr #4
    d108:	7374726f 	cmnvc	r4, #-268435450	; 0xf0000006
    d10c:	7325203a 			; <UNDEFINED> instruction: 0x7325203a
    d110:	0000000a 	andeq	r0, r0, sl
    d114:	20655709 	rsbcs	r5, r5, r9, lsl #14
    d118:	65746564 	ldrbvs	r6, [r4, #-1380]!	; 0xfffffa9c
    d11c:	61207463 			; <UNDEFINED> instruction: 0x61207463
    d120:	4d203a73 	vstmdbmi	r0!, {s6-s120}
    d124:	6c65646f 	cfstrdvs	mvd6, [r5], #-444	; 0xfffffe44
    d128:	00000020 	andeq	r0, r0, r0, lsr #32
    d12c:	00000041 	andeq	r0, r0, r1, asr #32
    d130:	00002b41 	andeq	r2, r0, r1, asr #22
    d134:	00000042 	andeq	r0, r0, r2, asr #32
    d138:	00002b42 	andeq	r2, r0, r2, asr #22
    d13c:	00004232 	andeq	r4, r0, r2, lsr r2
    d140:	76204232 			; <UNDEFINED> instruction: 0x76204232
    d144:	00322e31 	eorseq	r2, r2, r1, lsr lr
    d148:	00004233 	andeq	r4, r0, r3, lsr r2
    d14c:	002b4233 	eoreq	r4, fp, r3, lsr r2
    d150:	002b4133 	eoreq	r4, fp, r3, lsr r1
    d154:	6f72655a 	svcvs	0x0072655a
    d158:	00000000 	andeq	r0, r0, r0
    d15c:	6f72655a 	svcvs	0x0072655a
    d160:	00005720 	andeq	r5, r0, r0, lsr #14
    d164:	6f72655a 	svcvs	0x0072655a
    d168:	00573220 	subseq	r3, r7, r0, lsr #4
    d16c:	706d6f43 	rsbvc	r6, sp, r3, asr #30
    d170:	20657475 	rsbcs	r7, r5, r5, ror r4
    d174:	75646f4d 	strbvc	r6, [r4, #-3917]!	; 0xfffff0b3
    d178:	3120656c 			; <UNDEFINED> instruction: 0x3120656c
    d17c:	00000000 	andeq	r0, r0, r0
    d180:	706d6f43 	rsbvc	r6, sp, r3, asr #30
    d184:	20657475 	rsbcs	r7, r5, r5, ror r4
    d188:	75646f4d 	strbvc	r6, [r4, #-3917]!	; 0xfffff0b3
    d18c:	3320656c 			; <UNDEFINED> instruction: 0x3320656c
    d190:	00000000 	andeq	r0, r0, r0
    d194:	00004234 	andeq	r4, r0, r4, lsr r2
    d198:	6e6b6e55 	mcrvs	14, 3, r6, cr11, cr5, {2}
    d19c:	206e776f 	rsbcs	r7, lr, pc, ror #14
    d1a0:	00007825 	andeq	r7, r0, r5, lsr #16
    d1a4:	6d6d6f43 	stclvs	15, cr6, [sp, #-268]!	; 0xfffffef4
    d1a8:	20646e61 	rsbcs	r6, r4, r1, ror #28
    d1ac:	656e696c 	strbvs	r6, [lr, #-2412]!	; 0xfffff694
    d1b0:	6f726620 	svcvs	0x00726620
    d1b4:	6f62206d 	svcvs	0x0062206d
    d1b8:	6f6c746f 	svcvs	0x006c746f
    d1bc:	72656461 	rsbvc	r6, r5, #1627389952	; 0x61000000
    d1c0:	00000a3a 	andeq	r0, r0, sl, lsr sl
    d1c4:	746f6f62 	strbtvc	r6, [pc], #-3938	; d1cc <__rodata_start+0x1cc>
    d1c8:	73677261 	cmnvc	r7, #268435462	; 0x10000006
    d1cc:	00000000 	andeq	r0, r0, r0
    d1d0:	736f6863 	cmnvc	pc, #6488064	; 0x630000
    d1d4:	00006e65 	andeq	r6, r0, r5, ror #28
    d1d8:	4f525245 	svcmi	0x00525245
    d1dc:	64203a52 	strtvs	r3, [r0], #-2642	; 0xfffff5ae
    d1e0:	6e206469 	cdpvs	4, 2, cr6, cr0, cr9, {3}
    d1e4:	6420746f 	strtvs	r7, [r0], #-1135	; 0xfffffb91
    d1e8:	63657465 	cmnvs	r5, #1694498816	; 0x65000000
    d1ec:	656d2074 	strbvs	r2, [sp, #-116]!	; 0xffffff8c
    d1f0:	79726f6d 	ldmdbvc	r2!, {r0, r2, r3, r5, r6, r8, r9, sl, fp, sp, lr}^
    d1f4:	7361202c 	cmnvc	r1, #44	; 0x2c
    d1f8:	696d7573 	stmdbvs	sp!, {r0, r1, r4, r5, r6, r8, sl, ip, sp, lr}^
    d1fc:	3220676e 	eorcc	r6, r0, #28835840	; 0x1b80000
    d200:	424d3635 	submi	r3, sp, #55574528	; 0x3500000
    d204:	0000000a 	andeq	r0, r0, sl
    d208:	65707845 	ldrbvs	r7, [r0, #-2117]!	; 0xfffff7bb
    d20c:	64657463 	strbtvs	r7, [r5], #-1123	; 0xfffffb9d
    d210:	54444620 	strbpl	r4, [r4], #-1568	; 0xfffff9e0
    d214:	4745425f 	smlsldmi	r4, r5, pc, r2	; <UNPREDICTABLE>
    d218:	4e5f4e49 	cdpmi	14, 5, cr4, cr15, cr9, {2}
    d21c:	2c45444f 	cfstrdcs	mvd4, [r5], {79}	; 0x4f
    d220:	746f6720 	strbtvc	r6, [pc], #-1824	; d228 <__rodata_start+0x228>
    d224:	0a782520 	beq	1e166ac <__bss_end+0x1ddd6ac>
    d228:	00000000 	andeq	r0, r0, r0
    d22c:	58454e55 	stmdapl	r5, {r0, r2, r4, r6, r9, sl, fp, lr}^
    d230:	54434550 	strbpl	r4, [r3], #-1360	; 0xfffffab0
    d234:	25204445 	strcs	r4, [r0, #-1093]!	; 0xfffffbbb
    d238:	00000a78 	andeq	r0, r0, r8, ror sl
    d23c:	6e726157 	mrcvs	1, 3, r6, cr2, cr7, {2}
    d240:	21676e69 	cmncs	r7, r9, ror #28
    d244:	6b734120 	blvs	1cdd6cc <__bss_end+0x1ca46cc>
    d248:	20676e69 	rsbcs	r6, r7, r9, ror #28
    d24c:	20726f66 	rsbscs	r6, r2, r6, ror #30
    d250:	33746e69 	cmncc	r4, #1680	; 0x690
    d254:	75622032 	strbvc	r2, [r2, #-50]!	; 0xffffffce
    d258:	656c2074 	strbvs	r2, [ip, #-116]!	; 0xffffff8c
    d25c:	6874676e 	ldmdavs	r4!, {r1, r2, r3, r5, r6, r8, r9, sl, sp, lr}^
    d260:	20736920 	rsbscs	r6, r3, r0, lsr #18
    d264:	000a6425 	andeq	r6, sl, r5, lsr #8
    d268:	69766544 	ldmdbvs	r6!, {r2, r6, r8, sl, sp, lr}^
    d26c:	74206563 	strtvc	r6, [r0], #-1379	; 0xfffffa9d
    d270:	3a656572 	bcc	1966840 <__bss_end+0x192d840>
    d274:	0000000a 	andeq	r0, r0, sl
    d278:	67614d09 	strbvs	r4, [r1, -r9, lsl #26]!
    d27c:	203a6369 	eorscs	r6, sl, r9, ror #6
    d280:	78257830 	stmdavc	r5!, {r4, r5, fp, ip, sp, lr}
    d284:	0000000a 	andeq	r0, r0, sl
    d288:	746f5409 	strbtvc	r5, [pc], #-1033	; d290 <__rodata_start+0x290>
    d28c:	69736c61 	ldmdbvs	r3!, {r0, r5, r6, sl, fp, sp, lr}^
    d290:	203a657a 	eorscs	r6, sl, sl, ror r5
    d294:	0a642520 	beq	191671c <__bss_end+0x18dd71c>
    d298:	00000000 	andeq	r0, r0, r0
    d29c:	66664f09 	strbtvs	r4, [r6], -r9, lsl #30
    d2a0:	72745320 	rsbsvc	r5, r4, #32, 6	; 0x80000000
    d2a4:	3a746375 	bcc	1d26080 <__bss_end+0x1ced080>
    d2a8:	25783020 	ldrbcs	r3, [r8, #-32]!	; 0xffffffe0
    d2ac:	00000a78 	andeq	r0, r0, r8, ror sl
    d2b0:	66664f09 	strbtvs	r4, [r6], -r9, lsl #30
    d2b4:	72747320 	rsbsvc	r7, r4, #32, 6	; 0x80000000
    d2b8:	20203a73 	eorcs	r3, r0, r3, ror sl
    d2bc:	25783020 	ldrbcs	r3, [r8, #-32]!	; 0xffffffe0
    d2c0:	00000a78 	andeq	r0, r0, r8, ror sl
    d2c4:	66664f09 	strbtvs	r4, [r6], -r9, lsl #30
    d2c8:	76737220 	ldrbtvc	r7, [r3], -r0, lsr #4
    d2cc:	3a70616d 	bcc	1c25888 <__bss_end+0x1bec888>
    d2d0:	25783020 	ldrbcs	r3, [r8, #-32]!	; 0xffffffe0
    d2d4:	00000a78 	andeq	r0, r0, r8, ror sl
    d2d8:	72655609 	rsbvc	r5, r5, #9437184	; 0x900000
    d2dc:	6e6f6973 			; <UNDEFINED> instruction: 0x6e6f6973
    d2e0:	2020203a 	eorcs	r2, r0, sl, lsr r0
    d2e4:	0a642520 	beq	191676c <__bss_end+0x18dd76c>
    d2e8:	00000000 	andeq	r0, r0, r0
    d2ec:	73614c09 	cmnvc	r1, #2304	; 0x900
    d2f0:	6d6f4374 	stclvs	3, cr4, [pc, #-464]!	; d128 <__rodata_start+0x128>
    d2f4:	72655670 	rsbvc	r5, r5, #112, 12	; 0x7000000
    d2f8:	0a64253a 	beq	19167e8 <__bss_end+0x18dd7e8>
    d2fc:	00000000 	andeq	r0, r0, r0
    d300:	6f6f4209 	svcvs	0x006f4209
    d304:	75704374 	ldrbvc	r4, [r0, #-884]!	; 0xfffffc8c
    d308:	203a4449 	eorscs	r4, sl, r9, asr #8
    d30c:	000a6425 	andeq	r6, sl, r5, lsr #8
    d310:	7a695309 	bvc	1a61f3c <__bss_end+0x1a28f3c>
    d314:	72745365 	rsbsvc	r5, r4, #-1811939327	; 0x94000001
    d318:	25203a73 	strcs	r3, [r0, #-2675]!	; 0xfffff58d
    d31c:	00000a64 	andeq	r0, r0, r4, ror #20
    d320:	65736552 	ldrbvs	r6, [r3, #-1362]!	; 0xfffffaae
    d324:	64657672 	strbtvs	r7, [r5], #-1650	; 0xfffff98e
    d328:	6d656d20 	stclvs	13, cr6, [r5, #-128]!	; 0xffffff80
    d32c:	3a79726f 	bcc	1e69cf0 <__bss_end+0x1e30cf0>
    d330:	0000000a 	andeq	r0, r0, sl
    d334:	25783009 	ldrbcs	r3, [r8, #-9]!
    d338:	786c6c25 	stmdavc	ip!, {r0, r2, r5, sl, fp, sp, lr}^
    d33c:	74796220 	ldrbtvc	r6, [r9], #-544	; 0xfffffde0
    d340:	73207365 			; <UNDEFINED> instruction: 0x73207365
    d344:	74726174 	ldrbtvc	r6, [r2], #-372	; 0xfffffe8c
    d348:	20676e69 	rsbcs	r6, r7, r9, ror #28
    d34c:	61207461 			; <UNDEFINED> instruction: 0x61207461
    d350:	65726464 	ldrbvs	r6, [r2, #-1124]!	; 0xfffffb9c
    d354:	30207373 	eorcc	r7, r0, r3, ror r3
    d358:	6c252578 	cfstr32vs	mvfx2, [r5], #-480	; 0xfffffe20
    d35c:	000a786c 	andeq	r7, sl, ip, ror #16
    d360:	6e726157 	mrcvs	1, 3, r6, cr2, cr7, {2}
    d364:	21676e69 	cmncs	r7, r9, ror #28
    d368:	6b734120 	blvs	1cdd7f0 <__bss_end+0x1ca47f0>
    d36c:	20676e69 	rsbcs	r6, r7, r9, ror #28
    d370:	20726f66 	rsbscs	r6, r2, r6, ror #30
    d374:	36746e69 	ldrbtcc	r6, [r4], -r9, ror #28
    d378:	75622034 	strbvc	r2, [r2, #-52]!	; 0xffffffcc
    d37c:	656c2074 	strbvs	r2, [ip, #-116]!	; 0xffffff8c
    d380:	6874676e 	ldmdavs	r4!, {r1, r2, r3, r5, r6, r8, r9, sl, sp, lr}^
    d384:	20736920 	rsbscs	r6, r3, r0, lsr #18
    d388:	000a6425 	andeq	r6, sl, r5, lsr #8
    d38c:	64646123 	strbtvs	r6, [r4], #-291	; 0xfffffedd
    d390:	73736572 	cmnvc	r3, #478150656	; 0x1c800000
    d394:	6c65632d 	stclvs	3, cr6, [r5], #-180	; 0xffffff4c
    d398:	0000736c 	andeq	r7, r0, ip, ror #6
    d39c:	3a6d656d 	bcc	1b66958 <__bss_end+0x1b2d958>
    d3a0:	756f6620 	strbvc	r6, [pc, #-1568]!	; cd88 <strlen+0x50>
    d3a4:	6120646e 			; <UNDEFINED> instruction: 0x6120646e
    d3a8:	20726464 	rsbscs	r6, r2, r4, ror #8
    d3ac:	6c6c6563 	cfstr64vs	mvdx6, [ip], #-396	; 0xfffffe74
    d3b0:	25203a73 	strcs	r3, [r0, #-2675]!	; 0xfffff58d
    d3b4:	00000a64 	andeq	r0, r0, r4, ror #20
    d3b8:	7a697323 	bvc	1a6a04c <__bss_end+0x1a3104c>
    d3bc:	65632d65 	strbvs	r2, [r3, #-3429]!	; 0xfffff29b
    d3c0:	00736c6c 	rsbseq	r6, r3, ip, ror #24
    d3c4:	3a6d656d 	bcc	1b66980 <__bss_end+0x1b2d980>
    d3c8:	756f6620 	strbvc	r6, [pc, #-1568]!	; cdb0 <strlen+0x78>
    d3cc:	7320646e 			; <UNDEFINED> instruction: 0x7320646e
    d3d0:	20657a69 	rsbcs	r7, r5, r9, ror #20
    d3d4:	6c6c6563 	cfstr64vs	mvdx6, [ip], #-396	; 0xfffffe74
    d3d8:	25203a73 	strcs	r3, [r0, #-2675]!	; 0xfffff58d
    d3dc:	00000a64 	andeq	r0, r0, r4, ror #20
    d3e0:	00676572 	rsbeq	r6, r7, r2, ror r5
    d3e4:	6f6d656d 	svcvs	0x006d656d
    d3e8:	00007972 	andeq	r7, r0, r2, ror r9
    d3ec:	6e726157 	mrcvs	1, 3, r6, cr2, cr7, {2}
    d3f0:	21676e69 	cmncs	r7, r9, ror #28
    d3f4:	6c4f2020 	mcrrvs	0, 2, r2, pc, cr0
    d3f8:	65642064 	strbvs	r2, [r4, #-100]!	; 0xffffff9c
    d3fc:	74636574 	strbtvc	r6, [r3], #-1396	; 0xfffffa8c
    d400:	6e55203a 	mrcvs	0, 2, r2, cr5, cr10, {1}
    d404:	65707865 	ldrbvs	r7, [r0, #-2149]!	; 0xfffff79b
    d408:	64657463 	strbtvs	r7, [r5], #-1123	; 0xfffffb9d
    d40c:	6d756e20 	ldclvs	14, cr6, [r5, #-128]!	; 0xffffff80
    d410:	20726562 	rsbscs	r6, r2, r2, ror #10
    d414:	6d20666f 	stcvs	6, cr6, [r0, #-444]!	; 0xfffffe44
    d418:	726f6d65 	rsbvc	r6, pc, #6464	; 0x1940
    d41c:	6e652079 	mcrvs	0, 3, r2, cr5, cr9, {3}
    d420:	65697274 	strbvs	r7, [r9, #-628]!	; 0xfffffd8c
    d424:	00000a73 	andeq	r0, r0, r3, ror sl
    d428:	6f727245 	svcvs	0x00727245
    d42c:	55202172 	strpl	r2, [r0, #-370]!	; 0xfffffe8e
    d430:	6f6e6b6e 	svcvs	0x006e6b6e
    d434:	61206e77 			; <UNDEFINED> instruction: 0x61206e77
    d438:	20726464 	rsbscs	r6, r2, r4, ror #8
    d43c:	6c6c6563 	cfstr64vs	mvdx6, [ip], #-396	; 0xfffffe74
    d440:	7a697320 	bvc	1a6a0c8 <__bss_end+0x1a310c8>
    d444:	00000a65 	andeq	r0, r0, r5, ror #20
    d448:	6f727245 	svcvs	0x00727245
    d44c:	55202172 	strpl	r2, [r0, #-370]!	; 0xfffffe8e
    d450:	6f6e6b6e 	svcvs	0x006e6b6e
    d454:	73206e77 			; <UNDEFINED> instruction: 0x73206e77
    d458:	20657a69 	rsbcs	r7, r5, r9, ror #20
    d45c:	6c6c6563 	cfstr64vs	mvdx6, [ip], #-396	; 0xfffffe74
    d460:	7a697320 	bvc	1a6a0e8 <__bss_end+0x1a310e8>
    d464:	00000a65 	andeq	r0, r0, r5, ror #20
    d468:	6f6d656d 	svcvs	0x006d656d
    d46c:	30407972 	subcc	r7, r0, r2, ror r9
    d470:	00000000 	andeq	r0, r0, r0
    d474:	20726f46 	rsbscs	r6, r2, r6, asr #30
    d478:	20776f6e 	rsbscs	r6, r7, lr, ror #30
    d47c:	6f6e6769 	svcvs	0x006e6769
    d480:	676e6972 			; <UNDEFINED> instruction: 0x676e6972
    d484:	63657320 	cmnvs	r5, #32, 6	; 0x80000000
    d488:	61646e6f 	cmnvs	r4, pc, ror #28
    d48c:	6d207972 			; <UNDEFINED> instruction: 0x6d207972
    d490:	726f6d65 	rsbvc	r6, pc, #6464	; 0x1940
    d494:	61722079 	cmnvs	r2, r9, ror r0
    d498:	2065676e 	rsbcs	r6, r5, lr, ror #14
    d49c:	3020666f 	eorcc	r6, r0, pc, ror #12
    d4a0:	6c6c2578 	cfstr64vs	mvdx2, [ip], #-480	; 0xfffffe20
    d4a4:	74612078 	strbtvc	r2, [r1], #-120	; 0xffffff88
    d4a8:	25783020 	ldrbcs	r3, [r8, #-32]!	; 0xffffffe0
    d4ac:	20786c6c 	rsbscs	r6, r8, ip, ror #24
    d4b0:	20642528 	rsbcs	r2, r4, r8, lsr #10
    d4b4:	0a29424d 	beq	a5ddf0 <__bss_end+0xa24df0>
    d4b8:	00000000 	andeq	r0, r0, r0
    d4bc:	4f525245 	svcmi	0x00525245
    d4c0:	20202152 	eorcs	r2, r0, r2, asr r1
    d4c4:	78656e55 	stmdavc	r5!, {r0, r2, r4, r6, r9, sl, fp, sp, lr}^
    d4c8:	74636570 	strbtvc	r6, [r3], #-1392	; 0xfffffa90
    d4cc:	6d206465 	cfstrsvs	mvf6, [r0, #-404]!	; 0xfffffe6c
    d4d0:	726f6d65 	rsbvc	r6, pc, #6464	; 0x1940
    d4d4:	20304079 	eorscs	r4, r0, r9, ror r0
    d4d8:	20676572 	rsbcs	r6, r7, r2, ror r5
    d4dc:	657a6973 	ldrbvs	r6, [sl, #-2419]!	; 0xfffff68d
    d4e0:	0a642520 	beq	1916968 <__bss_end+0x18dd968>
    d4e4:	00000000 	andeq	r0, r0, r0
    d4e8:	25783009 	ldrbcs	r3, [r8, #-9]!
    d4ec:	0a786c6c 	beq	1e286a4 <__bss_end+0x1def6a4>
    d4f0:	00000000 	andeq	r0, r0, r0
    d4f4:	4f525245 	svcmi	0x00525245
    d4f8:	20202152 	eorcs	r2, r0, r2, asr r1
    d4fc:	65746564 	ldrbvs	r6, [r4, #-1380]!	; 0xfffffa9c
    d500:	64657463 	strbtvs	r7, [r5], #-1123	; 0xfffffb9d
    d504:	6d656d20 	stclvs	13, cr6, [r5, #-128]!	; 0xffffff80
    d508:	2079726f 	rsbscs	r7, r9, pc, ror #4
    d50c:	206f6f74 	rsbcs	r6, pc, r4, ror pc	; <UNPREDICTABLE>
    d510:	6c616d73 	stclvs	13, cr6, [r1], #-460	; 0xfffffe34
    d514:	75202c6c 	strvc	r2, [r0, #-3180]!	; 0xfffff394
    d518:	676e6973 			; <UNDEFINED> instruction: 0x676e6973
    d51c:	36353220 	ldrtcc	r3, [r5], -r0, lsr #4
    d520:	6920424d 	stmdbvs	r0!, {r0, r2, r3, r6, r9, lr}
    d524:	6574736e 	ldrbvs	r7, [r4, #-878]!	; 0xfffffc92
    d528:	000a6461 	andeq	r6, sl, r1, ror #8
    d52c:	6f6d654d 	svcvs	0x006d654d
    d530:	66207972 			; <UNDEFINED> instruction: 0x66207972
    d534:	646e756f 	strbtvs	r7, [lr], #-1391	; 0xfffffa91
    d538:	7830202c 	ldmdavc	r0!, {r2, r3, r5, sp}
    d53c:	786c6c25 	stmdavc	ip!, {r0, r2, r5, sl, fp, sp, lr}^
    d540:	74796220 	ldrbtvc	r6, [r9], #-544	; 0xfffffde0
    d544:	61207365 			; <UNDEFINED> instruction: 0x61207365
    d548:	64612074 	strbtvs	r2, [r1], #-116	; 0xffffff8c
    d54c:	73657264 	cmnvc	r5, #100, 4	; 0x40000006
    d550:	78302073 	ldmdavc	r0!, {r0, r1, r4, r5, r6, sp}
    d554:	786c6c25 	stmdavc	ip!, {r0, r2, r5, sl, fp, sp, lr}^
    d558:	64252820 	strtvs	r2, [r5], #-2080	; 0xfffff7e0
    d55c:	0a29424d 	beq	a5de98 <__bss_end+0xa24e98>
    d560:	00000000 	andeq	r0, r0, r0
    d564:	62616e45 	rsbvs	r6, r1, #1104	; 0x450
    d568:	676e696c 	strbvs	r6, [lr, -ip, ror #18]!
    d56c:	43494720 	movtmi	r4, #38688	; 0x9720
    d570:	3030342d 	eorscc	r3, r0, sp, lsr #8
    d574:	206e6f20 	rsbcs	r6, lr, r0, lsr #30
    d578:	42346950 	eorsmi	r6, r4, #80, 18	; 0x140000
    d57c:	0000000a 	andeq	r0, r0, sl
    d580:	25515249 	ldrbcs	r5, [r1, #-585]	; 0xfffffdb7
    d584:	6f742064 	svcvs	0x00742064
    d588:	6962206f 	stmdbvs	r2!, {r0, r1, r2, r3, r5, r6, sp}^
    d58c:	00000a67 	andeq	r0, r0, r7, ror #20
    d590:	6e6b6e55 	mcrvs	14, 3, r6, cr11, cr5, {2}
    d594:	206e776f 	rsbcs	r7, lr, pc, ror #14
    d598:	65746e69 	ldrbvs	r6, [r4, #-3689]!	; 0xfffff197
    d59c:	70757272 	rsbsvc	r7, r5, r2, ror r2
    d5a0:	61682074 	smcvs	33284	; 0x8204
    d5a4:	6e657070 	mcrvs	0, 3, r7, cr5, cr0, {3}
    d5a8:	25206465 	strcs	r6, [r0, #-1125]!	; 0xfffffb9b
    d5ac:	78252078 	stmdavc	r5!, {r3, r4, r5, r6, sp}
    d5b0:	21782520 	cmncs	r8, r0, lsr #10
    d5b4:	0000000a 	andeq	r0, r0, sl
    d5b8:	6e6b6e55 	mcrvs	14, 3, r6, cr11, cr5, {2}
    d5bc:	206e776f 	rsbcs	r7, lr, pc, ror #14
    d5c0:	65746e69 	ldrbvs	r6, [r4, #-3689]!	; 0xfffff197
    d5c4:	70757272 	rsbsvc	r7, r5, r2, ror r2
    d5c8:	61682074 	smcvs	33284	; 0x8204
    d5cc:	6e657070 	mcrvs	0, 3, r7, cr5, cr0, {3}
    d5d0:	25206465 	strcs	r6, [r0, #-1125]!	; 0xfffffb9b
    d5d4:	000a2178 	andeq	r2, sl, r8, ror r1
    d5d8:	41484e55 	cmpmi	r8, r5, asr lr
    d5dc:	454c444e 	strbmi	r4, [ip, #-1102]	; 0xfffffbb2
    d5e0:	49462044 	stmdbmi	r6, {r2, r6, sp}^
    d5e4:	00000a51 	andeq	r0, r0, r1, asr sl
    d5e8:	41484e55 	cmpmi	r8, r5, asr lr
    d5ec:	454c444e 	strbmi	r4, [ip, #-1102]	; 0xfffffbb2
    d5f0:	42412044 	submi	r2, r1, #68	; 0x44
    d5f4:	0a54524f 	beq	1521f38 <__bss_end+0x14e8f38>
    d5f8:	00000000 	andeq	r0, r0, r0
    d5fc:	41484e55 	cmpmi	r8, r5, asr lr
    d600:	454c444e 	strbmi	r4, [ip, #-1102]	; 0xfffffbb2
    d604:	4e552044 	cdpmi	0, 5, cr2, cr5, cr4, {2}
    d608:	20464544 	subcs	r4, r6, r4, asr #10
    d60c:	000a7825 	andeq	r7, sl, r5, lsr #16
    d610:	4d494e55 	stclmi	14, cr4, [r9, #-340]	; 0xfffffeac
    d614:	4d454c50 	stclmi	12, cr4, [r5, #-320]	; 0xfffffec0
    d618:	45544e45 	ldrbmi	r4, [r4, #-3653]	; 0xfffff1bb
    d61c:	59532044 	ldmdbpl	r3, {r2, r6, sp}^
    d620:	4c414353 	mcrrmi	3, 5, r4, r1, cr3
    d624:	49203a4c 	stmdbmi	r0!, {r2, r3, r6, r9, fp, ip, sp}
    d628:	4c54434f 	mrrcmi	3, 4, r4, r4, cr15	; <UNPREDICTABLE>
    d62c:	20782520 	rsbscs	r2, r8, r0, lsr #10
    d630:	25207825 	strcs	r7, [r0, #-2085]!	; 0xfffff7db
    d634:	00000a78 	andeq	r0, r0, r8, ror sl
    d638:	41534944 	cmpmi	r3, r4, asr #18
    d63c:	4e494c42 	cdpmi	12, 4, cr4, cr9, cr2, {2}
    d640:	4c422047 	mcrrmi	0, 4, r2, r2, cr7
    d644:	0a4b4e49 	beq	12e0f70 <__bss_end+0x12a7f70>
    d648:	00000000 	andeq	r0, r0, r0
    d64c:	42414e45 	submi	r4, r1, #1104	; 0x450
    d650:	474e494c 	strbmi	r4, [lr, -ip, asr #18]
    d654:	494c425f 	stmdbmi	ip, {r0, r1, r2, r3, r4, r6, r9, lr}^
    d658:	000a4b4e 	andeq	r4, sl, lr, asr #22
    d65c:	6e6b6e55 	mcrvs	14, 3, r6, cr11, cr5, {2}
    d660:	206e776f 	rsbcs	r7, lr, pc, ror #14
    d664:	63737973 	cmnvs	r3, #1884160	; 0x1cc000
    d668:	206c6c61 	rsbcs	r6, ip, r1, ror #24
    d66c:	000a6425 	andeq	r6, sl, r5, lsr #8
    d670:	4f776d76 	svcmi	0x00776d76
    d674:	00000053 	andeq	r0, r0, r3, asr r0
    d678:	00006970 	andeq	r6, r0, r0, ror r9
    d67c:	206e6f4d 	rsbcs	r6, lr, sp, asr #30
    d680:	20766f4e 	rsbscs	r6, r6, lr, asr #30
    d684:	31203331 			; <UNDEFINED> instruction: 0x31203331
    d688:	38343a31 	ldmdacc	r4!, {r0, r4, r5, r9, fp, ip, sp}
    d68c:	2038323a 	eorscs	r3, r8, sl, lsr r2
    d690:	20545345 	subscs	r5, r4, r5, asr #6
    d694:	33323032 	teqcc	r2, #50	; 0x32
    d698:	00000000 	andeq	r0, r0, r0
    d69c:	766d7261 	strbtvc	r7, [sp], -r1, ror #4
    d6a0:	00000037 	andeq	r0, r0, r7, lsr r0
    d6a4:	656e6f6e 	strbvs	r6, [lr, #-3950]!	; 0xfffff092
    d6a8:	00000000 	andeq	r0, r0, r0
    d6ac:	65747441 	ldrbvs	r7, [r4, #-1089]!	; 0xfffffbbf
    d6b0:	6974706d 	ldmdbvs	r4!, {r0, r2, r3, r5, r6, ip, sp, lr}^
    d6b4:	7420676e 	strtvc	r6, [r0], #-1902	; 0xfffff892
    d6b8:	6572206f 	ldrbvs	r2, [r2, #-111]!	; 0xffffff91
    d6bc:	66206461 	strtvs	r6, [r0], -r1, ror #8
    d6c0:	206d6f72 	rsbcs	r6, sp, r2, ror pc
    d6c4:	75736e75 	ldrbvc	r6, [r3, #-3701]!	; 0xfffff18b
    d6c8:	726f7070 	rsbvc	r7, pc, #112	; 0x70
    d6cc:	20646574 	rsbcs	r6, r4, r4, ror r5
    d6d0:	25206466 	strcs	r6, [r0, #-1126]!	; 0xfffffb9a
    d6d4:	00000a64 	andeq	r0, r0, r4, ror #20
    d6d8:	65747441 	ldrbvs	r7, [r4, #-1089]!	; 0xfffffbbf
    d6dc:	6974706d 	ldmdbvs	r4!, {r0, r2, r3, r5, r6, ip, sp, lr}^
    d6e0:	7420676e 	strtvc	r6, [r0], #-1902	; 0xfffff892
    d6e4:	7277206f 	rsbsvc	r2, r7, #111	; 0x6f
    d6e8:	20657469 	rsbcs	r7, r5, r9, ror #8
    d6ec:	75736e75 	ldrbvc	r6, [r3, #-3701]!	; 0xfffff18b
    d6f0:	726f7070 	rsbvc	r7, pc, #112	; 0x70
    d6f4:	20646574 	rsbcs	r6, r4, r4, ror r5
    d6f8:	25206466 	strcs	r6, [r0, #-1126]!	; 0xfffffb9a
    d6fc:	00000a64 	andeq	r0, r0, r4, ror #20
    d700:	65747441 	ldrbvs	r7, [r4, #-1089]!	; 0xfffffbbf
    d704:	6974706d 	ldmdbvs	r4!, {r0, r2, r3, r5, r6, ip, sp, lr}^
    d708:	7420676e 	strtvc	r6, [r0], #-1902	; 0xfffff892
    d70c:	6567206f 	strbvs	r2, [r7, #-111]!	; 0xffffff91
    d710:	6e656474 	mcrvs	4, 3, r6, cr5, cr4, {3}
    d714:	66207374 			; <UNDEFINED> instruction: 0x66207374
    d718:	206d6f72 	rsbcs	r6, sp, r2, ror pc
    d71c:	75736e75 	ldrbvc	r6, [r3, #-3701]!	; 0xfffff18b
    d720:	726f7070 	rsbvc	r7, pc, #112	; 0x70
    d724:	20646574 	rsbcs	r6, r4, r4, ror r5
    d728:	25206466 	strcs	r6, [r0, #-1126]!	; 0xfffffb9a
    d72c:	00000a64 	andeq	r0, r0, r4, ror #20
    d730:	4b4f5242 	blmi	13e2040 <__bss_end+0x13a9040>
    d734:	00004e45 	andeq	r4, r0, r5, asr #28
    d738:	6d6f722d 	sfmvs	f7, 2, [pc, #-180]!	; d68c <__rodata_start+0x68c>
    d73c:	2d736631 	ldclcs	6, cr6, [r3, #-196]!	; 0xffffff3c
    d740:	00000000 	andeq	r0, r0, r0
    d744:	6e6f7257 	mcrvs	2, 3, r7, cr15, cr7, {2}
    d748:	616d2067 	cmnvs	sp, r7, rrx
    d74c:	20636967 	rsbcs	r6, r3, r7, ror #18
    d750:	626d756e 	rsbvs	r7, sp, #461373440	; 0x1b800000
    d754:	0a217265 	beq	86a0f0 <__bss_end+0x8310f0>
    d758:	00000000 	andeq	r0, r0, r0
    d75c:	666d6f72 	uqsub16vs	r6, sp, r2
    d760:	65675f73 	strbvs	r5, [r7, #-3955]!	; 0xfffff08d
    d764:	6e656474 	mcrvs	4, 3, r6, cr5, cr4, {3}
    d768:	203a7374 	eorscs	r7, sl, r4, ror r3
    d76c:	7366666f 	cmnvc	r6, #116391936	; 0x6f00000
    d770:	25207465 	strcs	r7, [r0, #-1125]!	; 0xfffffb9b
    d774:	6e692078 	mcrvs	0, 3, r2, cr9, cr8, {3}
    d778:	2065646f 	rsbcs	r6, r5, pc, ror #8
    d77c:	6e207825 	cdpvs	8, 2, cr7, cr0, cr5, {1}
    d780:	6120746f 			; <UNDEFINED> instruction: 0x6120746f
    d784:	72696420 	rsbvc	r6, r9, #32, 8	; 0x20000000
    d788:	6f746365 	svcvs	0x00746365
    d78c:	0a217972 	beq	86bd5c <__bss_end+0x832d5c>
    d790:	00000000 	andeq	r0, r0, r0
    d794:	646d6172 	strbtvs	r6, [sp], #-370	; 0xfffffe8e
    d798:	3a6b7369 	bcc	1aea544 <__bss_end+0x1ab1544>
    d79c:	63636120 	cmnvs	r3, #32, 2
    d7a0:	20737365 	rsbscs	r7, r3, r5, ror #6
    d7a4:	2074756f 	rsbscs	r7, r4, pc, ror #10
    d7a8:	7220666f 	eorvc	r6, r0, #116391936	; 0x6f00000
    d7ac:	65676e61 	strbvs	r6, [r7, #-3681]!	; 0xfffff19f
    d7b0:	20642520 	rsbcs	r2, r4, r0, lsr #10
    d7b4:	6425203e 	strtvs	r2, [r5], #-62	; 0xffffffc2
    d7b8:	0000000a 	andeq	r0, r0, sl
    d7bc:	74696e49 	strbtvc	r6, [r9], #-3657	; 0xfffff1b7
    d7c0:	696c6169 	stmdbvs	ip!, {r0, r3, r5, r6, r8, sp, lr}^
    d7c4:	676e697a 			; <UNDEFINED> instruction: 0x676e697a
    d7c8:	6d617220 	sfmvs	f7, 2, [r1, #-128]!	; 0xffffff80
    d7cc:	6b736964 	blvs	1ce7d64 <__bss_end+0x1caed64>
    d7d0:	20666f20 	rsbcs	r6, r6, r0, lsr #30
    d7d4:	657a6973 	ldrbvs	r6, [sl, #-2419]!	; 0xfffff68d
    d7d8:	20642520 	rsbcs	r2, r4, r0, lsr #10
    d7dc:	61207461 			; <UNDEFINED> instruction: 0x61207461
    d7e0:	65726464 	ldrbvs	r6, [r2, #-1124]!	; 0xfffffb9c
    d7e4:	25207373 	strcs	r7, [r0, #-883]!	; 0xfffffc8d
    d7e8:	00000a78 	andeq	r0, r0, r8, ror sl
    d7ec:	6e6b6e55 	mcrvs	14, 3, r6, cr11, cr5, {2}
    d7f0:	206e776f 	rsbcs	r7, lr, pc, ror #14
    d7f4:	64726168 	ldrbtvs	r6, [r2], #-360	; 0xfffffe98
    d7f8:	65726177 	ldrbvs	r6, [r2, #-375]!	; 0xfffffe89
    d7fc:	70797420 	rsbsvc	r7, r9, r0, lsr #8
    d800:	6e202c65 	cdpvs	12, 2, cr2, cr0, cr5, {3}
    d804:	6520746f 	strvs	r7, [r0, #-1135]!	; 0xfffffb91
    d808:	6c62616e 	stfvse	f6, [r2], #-440	; 0xfffffe48
    d80c:	20676e69 	rsbcs	r6, r7, r9, ror #28
    d810:	0a44454c 	beq	111ed48 <__bss_end+0x10e5d48>
    d814:	00000000 	andeq	r0, r0, r0
    d818:	5f746361 	svcpl	0x00746361
    d81c:	0064656c 	rsbeq	r6, r4, ip, ror #10
    d820:	72617453 	rsbvc	r7, r1, #1392508928	; 0x53000000
    d824:	676e6974 			; <UNDEFINED> instruction: 0x676e6974
    d828:	61656820 	cmnvs	r5, r0, lsr #16
    d82c:	65627472 	strbvs	r7, [r2, #-1138]!	; 0xfffffb8e
    d830:	4c207461 	cfstrsmi	mvf7, [r0], #-388	; 0xfffffe7c
    d834:	6f204445 	svcvs	0x00204445
    d838:	5047206e 	subpl	r2, r7, lr, rrx
    d83c:	64254f49 	strtvs	r4, [r5], #-3913	; 0xfffff0b7
    d840:	0000000a 	andeq	r0, r0, sl
    d844:	61766e49 	cmnvs	r6, r9, asr #28
    d848:	2064696c 	rsbcs	r6, r4, ip, ror #18
    d84c:	4f495047 	svcmi	0x00495047
    d850:	000a6425 	andeq	r6, sl, r5, lsr #8
    d854:	4f495047 	svcmi	0x00495047
    d858:	61206425 			; <UNDEFINED> instruction: 0x61206425
    d85c:	6165726c 	cmnvs	r5, ip, ror #4
    d860:	69207964 	stmdbvs	r0!, {r2, r5, r6, r8, fp, ip, sp, lr}
    d864:	7375206e 	cmnvc	r5, #110	; 0x6e
    d868:	00000a65 	andeq	r0, r0, r5, ror #20
    d86c:	6f6c6c41 	svcvs	0x006c6c41
    d870:	69746163 	ldmdbvs	r4!, {r0, r1, r5, r6, r8, sp, lr}^
    d874:	4720676e 	strmi	r6, [r0, -lr, ror #14]!
    d878:	254f4950 	strbcs	r4, [pc, #-2384]	; cf30 <strlen+0x1f8>
    d87c:	73612064 	cmnvc	r1, #100	; 0x64
    d880:	0a732520 	beq	1cd6d08 <__bss_end+0x1c9dd08>
    d884:	00000000 	andeq	r0, r0, r0
    d888:	65657246 	strbvs	r7, [r5, #-582]!	; 0xfffffdba
    d88c:	20676e69 	rsbcs	r6, r7, r9, ror #28
    d890:	4f495047 	svcmi	0x00495047
    d894:	000a6425 	andeq	r6, sl, r5, lsr #8
    d898:	4f495047 	svcmi	0x00495047
    d89c:	74206425 	strtvc	r6, [r0], #-1061	; 0xfffffbdb
    d8a0:	62206f6f 	eorvs	r6, r0, #444	; 0x1bc
    d8a4:	000a6769 	andeq	r6, sl, r9, ror #14
    d8a8:	61766e49 	cmnvs	r6, r9, asr #28
    d8ac:	2064696c 	rsbcs	r6, r4, ip, ror #18
    d8b0:	4f495047 	svcmi	0x00495047
    d8b4:	6c617620 	stclvs	6, cr7, [r1], #-128	; 0xffffff80
    d8b8:	25206575 	strcs	r6, [r0, #-1397]!	; 0xfffffa8b
    d8bc:	00000a64 	andeq	r0, r0, r4, ror #20
    d8c0:	74726175 	ldrbtvc	r6, [r2], #-373	; 0xfffffe8b
    d8c4:	7270203a 	rsbsvc	r2, r0, #58	; 0x3a
    d8c8:	6f697665 	svcvs	0x00697665
    d8cc:	49207375 	stmdbmi	r0!, {r0, r2, r4, r5, r6, r8, r9, ip, sp, lr}
    d8d0:	3a43534d 	bcc	10e260c <__bss_end+0x10a960c>
    d8d4:	0a782520 	beq	1e16d5c <__bss_end+0x1dddd5c>
    d8d8:	00000000 	andeq	r0, r0, r0
    d8dc:	74726175 	ldrbtvc	r6, [r2], #-373	; 0xfffffe8b
    d8e0:	656e203a 	strbvs	r2, [lr, #-58]!	; 0xffffffc6
    d8e4:	4d492077 	stclmi	0, cr2, [r9, #-476]	; 0xfffffe24
    d8e8:	203a4353 	eorscs	r4, sl, r3, asr r3
    d8ec:	000a7825 	andeq	r7, sl, r5, lsr #16
    d8f0:	74726175 	ldrbtvc	r6, [r2], #-373	; 0xfffffe8b
    d8f4:	0078745f 	rsbseq	r7, r8, pc, asr r4
    d8f8:	74726175 	ldrbtvc	r6, [r2], #-373	; 0xfffffe8b
    d8fc:	0078725f 	rsbseq	r7, r8, pc, asr r2
    d900:	6f727245 	svcvs	0x00727245
    d904:	20202172 	eorcs	r2, r0, r2, ror r1
    d908:	6c756f43 	ldclvs	15, cr6, [r5], #-268	; 0xfffffef4
    d90c:	6f6e2064 	svcvs	0x006e2064
    d910:	6c612074 	stclvs	0, cr2, [r1], #-464	; 0xfffffe30
    d914:	61636f6c 	cmnvs	r3, ip, ror #30
    d918:	25206574 	strcs	r6, [r0, #-1396]!	; 0xfffffa8c
    d91c:	666f2064 	strbtvs	r2, [pc], -r4, rrx
    d920:	6d656d20 	stclvs	13, cr6, [r5, #-128]!	; 0xffffff80
    d924:	2179726f 	cmncs	r9, pc, ror #4
    d928:	0000000a 	andeq	r0, r0, sl
    d92c:	6f727245 	svcvs	0x00727245
    d930:	20202172 	eorcs	r2, r0, r2, ror r1
    d934:	206f6f54 	rsbcs	r6, pc, r4, asr pc	; <UNPREDICTABLE>
    d938:	6863756d 	stmdavs	r3!, {r0, r2, r3, r5, r6, r8, sl, ip, sp, lr}^
    d93c:	6d656d20 	stclvs	13, cr6, [r5, #-128]!	; 0xffffff80
    d940:	2179726f 	cmncs	r9, pc, ror #4
    d944:	0000000a 	andeq	r0, r0, sl
    d948:	74696e49 	strbtvc	r6, [r9], #-3657	; 0xfffff1b7
    d94c:	696c6169 	stmdbvs	ip!, {r0, r3, r5, r6, r8, sp, lr}^
    d950:	676e697a 			; <UNDEFINED> instruction: 0x676e697a
    d954:	4d642520 	cfstr64mi	mvdx2, [r4, #-128]!	; 0xffffff80
    d958:	666f2042 	strbtvs	r2, [pc], -r2, asr #32
    d95c:	6d656d20 	stclvs	13, cr6, [r5, #-128]!	; 0xffffff80
    d960:	2e79726f 	cdpcs	2, 7, cr7, cr9, cr15, {3}
    d964:	64252020 	strtvs	r2, [r5], #-32	; 0xffffffe0
    d968:	7520426b 	strvc	r4, [r0, #-619]!	; 0xfffffd95
    d96c:	20646573 	rsbcs	r6, r4, r3, ror r5
    d970:	6b207962 	blvs	82bf00 <__bss_end+0x7f2f00>
    d974:	656e7265 	strbvs	r7, [lr, #-613]!	; 0xfffffd9b
    d978:	25202c6c 	strcs	r2, [r0, #-3180]!	; 0xfffff394
    d97c:	20426b64 	subcs	r6, r2, r4, ror #22
    d980:	64657375 	strbtvs	r7, [r5], #-885	; 0xfffffc8b
    d984:	20796220 	rsbscs	r6, r9, r0, lsr #4
    d988:	6f6d656d 	svcvs	0x006d656d
    d98c:	6d207972 			; <UNDEFINED> instruction: 0x6d207972
    d990:	000a7061 	andeq	r7, sl, r1, rrx
    d994:	62616e45 	rsbvs	r6, r1, #1104	; 0x450
    d998:	676e696c 	strbvs	r6, [lr, -ip, ror #18]!
    d99c:	554d4d20 	strbpl	r4, [sp, #-3360]	; 0xfffff2e0
    d9a0:	74697720 	strbtvc	r7, [r9], #-1824	; 0xfffff8e0
    d9a4:	3a312068 	bcc	c55b4c <__bss_end+0xc1cb4c>
    d9a8:	69562031 	ldmdbvs	r6, {r0, r4, r5, sp}^
    d9ac:	502f7472 	eorpl	r7, pc, r2, ror r4	; <UNPREDICTABLE>
    d9b0:	20737968 	rsbscs	r7, r3, r8, ror #18
    d9b4:	65676170 	strbvs	r6, [r7, #-368]!	; 0xfffffe90
    d9b8:	70616d20 	rsbvc	r6, r1, r0, lsr #26
    d9bc:	676e6970 			; <UNDEFINED> instruction: 0x676e6970
    d9c0:	0000000a 	andeq	r0, r0, sl
    d9c4:	62616e45 	rsbvs	r6, r1, #1104	; 0x450
    d9c8:	676e696c 	strbvs	r6, [lr, -ip, ror #18]!
    d9cc:	20314c20 	eorscs	r4, r1, r0, lsr #24
    d9d0:	63616369 	cmnvs	r1, #-1543503871	; 0xa4000001
    d9d4:	000a6568 	andeq	r6, sl, r8, ror #10
    d9d8:	62616e45 	rsbvs	r6, r1, #1104	; 0x450
    d9dc:	676e696c 	strbvs	r6, [lr, -ip, ror #18]!
    d9e0:	61726220 	cmnvs	r2, r0, lsr #4
    d9e4:	2068636e 	rsbcs	r6, r8, lr, ror #6
    d9e8:	64657270 	strbtvs	r7, [r5], #-624	; 0xfffffd90
    d9ec:	6f746369 	svcvs	0x00746369
    d9f0:	00000a72 	andeq	r0, r0, r2, ror sl
    d9f4:	62616e45 	rsbvs	r6, r1, #1104	; 0x450
    d9f8:	676e696c 	strbvs	r6, [lr, -ip, ror #18]!
    d9fc:	20314c20 	eorscs	r4, r1, r0, lsr #24
    da00:	63616364 	cmnvs	r1, #100, 6	; 0x90000001
    da04:	000a6568 	andeq	r6, sl, r8, ror #10
    da08:	636f7270 	cmnvs	pc, #112, 4
    da0c:	5f737365 	svcpl	0x00737365
    da10:	61657263 	cmnvs	r5, r3, ror #4
    da14:	203a6574 	eorscs	r6, sl, r4, ror r5
    da18:	2074756f 	rsbscs	r7, r4, pc, ror #10
    da1c:	6d20666f 	stcvs	6, cr6, [r0, #-444]!	; 0xfffffe44
    da20:	726f6d65 	rsbvc	r6, pc, #6464	; 0x1940
    da24:	00000a79 	andeq	r0, r0, r9, ror sl
    da28:	65747441 	ldrbvs	r7, [r4, #-1089]!	; 0xfffffbbf
    da2c:	6974706d 	ldmdbvs	r4!, {r0, r2, r3, r5, r6, ip, sp, lr}^
    da30:	7420676e 	strtvc	r6, [r0], #-1902	; 0xfffff892
    da34:	6564206f 	strbvs	r2, [r4, #-111]!	; 0xffffff91
    da38:	6574656c 	ldrbvs	r6, [r4, #-1388]!	; 0xfffffa94
    da3c:	6f726620 	svcvs	0x00726620
    da40:	6d65206d 	stclvs	0, cr2, [r5, #-436]!	; 0xfffffe4c
    da44:	20797470 	rsbscs	r7, r9, r0, ror r4
    da48:	7473696c 	ldrbtvc	r6, [r3], #-2412	; 0xfffff694
    da4c:	00000a21 	andeq	r0, r0, r1, lsr #20
    da50:	656c6544 	strbvs	r6, [ip, #-1348]!	; 0xfffffabc
    da54:	676e6974 			; <UNDEFINED> instruction: 0x676e6974
    da58:	72696620 	rsbvc	r6, r9, #32, 12	; 0x2000000
    da5c:	70207473 	eorvc	r7, r0, r3, ror r4
    da60:	65636f72 	strbvs	r6, [r3, #-3954]!	; 0xfffff08e
    da64:	0a217373 	beq	86a838 <__bss_end+0x831838>
    da68:	00000000 	andeq	r0, r0, r0
    da6c:	636f7270 	cmnvs	pc, #112, 4
    da70:	5f737365 	svcpl	0x00737365
    da74:	6f6d6572 	svcvs	0x006d6572
    da78:	203a6576 	eorscs	r6, sl, r6, ror r5
    da7c:	4f525245 	svcmi	0x00525245
    da80:	6f632052 	svcvs	0x00632052
    da84:	20646c75 	rsbcs	r6, r4, r5, ror ip
    da88:	20746f6e 	rsbscs	r6, r4, lr, ror #30
    da8c:	6f6d6572 	svcvs	0x006d6572
    da90:	0a216576 	beq	867070 <__bss_end+0x82e070>
    da94:	00000000 	andeq	r0, r0, r0
    da98:	656c6469 	strbvs	r6, [ip, #-1129]!	; 0xfffffb97
    da9c:	00000000 	andeq	r0, r0, r0
    daa0:	61657243 	cmnvs	r5, r3, asr #4
    daa4:	20646574 	rsbcs	r6, r4, r4, ror r5
    daa8:	656c6469 	strbvs	r6, [ip, #-1129]!	; 0xfffffb97
    daac:	72687420 	rsbvc	r7, r8, #32, 8	; 0x20000000
    dab0:	3a646165 	bcc	192604c <__bss_end+0x18ed04c>
    dab4:	0a642520 	beq	1916f3c <__bss_end+0x18ddf3c>
    dab8:	00000000 	andeq	r0, r0, r0
    dabc:	746e450a 	strbtvc	r4, [lr], #-1290	; 0xfffffaf6
    dac0:	6e697265 	cdpvs	2, 6, cr7, cr9, cr5, {3}
    dac4:	73752067 	cmnvc	r5, #103	; 0x67
    dac8:	70737265 	rsbsvc	r7, r3, r5, ror #4
    dacc:	20656361 	rsbcs	r6, r5, r1, ror #6
    dad0:	73207962 			; <UNDEFINED> instruction: 0x73207962
    dad4:	74726174 	ldrbtvc	r6, [r2], #-372	; 0xfffffe8c
    dad8:	20676e69 	rsbcs	r6, r7, r9, ror #28
    dadc:	636f7270 	cmnvs	pc, #112, 4
    dae0:	20737365 	rsbscs	r7, r3, r5, ror #6
    dae4:	28206425 	stmdacs	r0!, {r0, r2, r5, sl, sp, lr}
    dae8:	21297325 			; <UNDEFINED> instruction: 0x21297325
    daec:	0000000a 	andeq	r0, r0, sl
    daf0:	6e72656b 	cdpvs	5, 7, cr6, cr2, cr11, {3}
    daf4:	203a6c65 	eorscs	r6, sl, r5, ror #24
    daf8:	6f727265 	svcvs	0x00727265
    dafc:	6f662072 	svcvs	0x00662072
    db00:	6e696b72 	vmovvs.8	d9[7], r6
    db04:	00000a67 	andeq	r0, r0, r7, ror #20
    db08:	54494157 	strbpl	r4, [r9], #-343	; 0xfffffea9
    db0c:	3a444950 	bcc	1120054 <__bss_end+0x10e7054>
    db10:	52524520 	subspl	r4, r2, #32, 10	; 0x8000000
    db14:	203a524f 	eorscs	r5, sl, pc, asr #4
    db18:	55534e55 	ldrbpl	r4, [r3, #-3669]	; 0xfffff1ab
    db1c:	524f5050 	subpl	r5, pc, #80	; 0x50
    db20:	20444554 	subcs	r4, r4, r4, asr r5
    db24:	4147454e 	cmpmi	r7, lr, asr #10
    db28:	45564954 	ldrbmi	r4, [r6, #-2388]	; 0xfffff6ac
    db2c:	44495020 	strbmi	r5, [r9], #-32	; 0xffffffe0
    db30:	0a642520 	beq	1916fb8 <__bss_end+0x18ddfb8>
    db34:	00000000 	andeq	r0, r0, r0
    db38:	636f7250 	cmnvs	pc, #80, 4
    db3c:	20737365 	rsbscs	r7, r3, r5, ror #6
    db40:	64206425 	strtvs	r6, [r0], #-1061	; 0xfffffbdb
    db44:	21706d75 	cmncs	r0, r5, ror sp
    db48:	0a732520 	beq	1cd6fd0 <__bss_end+0x1c9dfd0>
    db4c:	00000000 	andeq	r0, r0, r0
    db50:	203a6370 	eorscs	r6, sl, r0, ror r3
    db54:	63097825 	movwvs	r7, #38949	; 0x9825
    db58:	3a727370 	bcc	1caa920 <__bss_end+0x1c71920>
    db5c:	0a782520 	beq	1e16fe4 <__bss_end+0x1dddfe4>
    db60:	00000000 	andeq	r0, r0, r0
    db64:	3a642572 	bcc	1917134 <__bss_end+0x18de134>
    db68:	09782520 	ldmdbeq	r8!, {r5, r8, sl, sp}^
    db6c:	00000000 	andeq	r0, r0, r0
    db70:	3a642572 	bcc	1917140 <__bss_end+0x18de140>
    db74:	00782520 	rsbseq	r2, r8, r0, lsr #10
    db78:	6e72654b 	cdpvs	5, 7, cr6, cr2, cr11, {2}
    db7c:	25206c65 	strcs	r6, [r0, #-3173]!	; 0xfffff39b
    db80:	75642064 	strbvc	r2, [r4, #-100]!	; 0xffffff9c
    db84:	2021706d 	eorcs	r7, r1, sp, rrx
    db88:	000a7325 	andeq	r7, sl, r5, lsr #6
    db8c:	6e72654b 	cdpvs	5, 7, cr6, cr2, cr11, {2}
    db90:	72206c65 	eorvc	r6, r0, #25856	; 0x6500
    db94:	73696765 	cmnvc	r9, #26476544	; 0x1940000
    db98:	20726574 	rsbscs	r6, r2, r4, ror r5
    db9c:	706d7564 	rsbvc	r7, sp, r4, ror #10
    dba0:	4350203a 	cmpmi	r0, #58	; 0x3a
    dba4:	0a78253d 	beq	1e170a0 <__bss_end+0x1dde0a0>
    dba8:	00000000 	andeq	r0, r0, r0
    dbac:	203a3072 	eorscs	r3, sl, r2, ror r0
    dbb0:	72207825 	eorvc	r7, r0, #2424832	; 0x250000
    dbb4:	25203a31 	strcs	r3, [r0, #-2609]!	; 0xfffff5cf
    dbb8:	32722078 	rsbscc	r2, r2, #120	; 0x78
    dbbc:	7825203a 	stmdavc	r5!, {r1, r3, r4, r5, sp}
    dbc0:	3a337220 	bcc	cea448 <__bss_end+0xcb1448>
    dbc4:	0a782520 	beq	1e1704c <__bss_end+0x1dde04c>
    dbc8:	00000000 	andeq	r0, r0, r0
    dbcc:	203a3472 	eorscs	r3, sl, r2, ror r4
    dbd0:	72207825 	eorvc	r7, r0, #2424832	; 0x250000
    dbd4:	25203a35 	strcs	r3, [r0, #-2613]!	; 0xfffff5cb
    dbd8:	36722078 			; <UNDEFINED> instruction: 0x36722078
    dbdc:	7825203a 	stmdavc	r5!, {r1, r3, r4, r5, sp}
    dbe0:	3a377220 	bcc	dea468 <__bss_end+0xdb1468>
    dbe4:	0a782520 	beq	1e1706c <__bss_end+0x1dde06c>
    dbe8:	00000000 	andeq	r0, r0, r0
    dbec:	203a3872 	eorscs	r3, sl, r2, ror r8
    dbf0:	72207825 	eorvc	r7, r0, #2424832	; 0x250000
    dbf4:	25203a39 	strcs	r3, [r0, #-2617]!	; 0xfffff5c7
    dbf8:	31722078 	cmncc	r2, r8, ror r0
    dbfc:	25203a30 	strcs	r3, [r0, #-2608]!	; 0xfffff5d0
    dc00:	31722078 	cmncc	r2, r8, ror r0
    dc04:	25203a31 	strcs	r3, [r0, #-2609]!	; 0xfffff5cf
    dc08:	00000a78 	andeq	r0, r0, r8, ror sl
    dc0c:	3a323172 	bcc	c9a1dc <__bss_end+0xc611dc>
    dc10:	20782520 	rsbscs	r2, r8, r0, lsr #10
    dc14:	3a333172 	bcc	cda1e4 <__bss_end+0xca11e4>
    dc18:	20782520 	rsbscs	r2, r8, r0, lsr #10
    dc1c:	3a343172 	bcc	d1a1ec <__bss_end+0xce11ec>
    dc20:	0a782520 	beq	1e170a8 <__bss_end+0x1dde0a8>
    dc24:	00000000 	andeq	r0, r0, r0
    dc28:	3a78250a 	bcc	1e17058 <__bss_end+0x1dde058>
    dc2c:	00000020 	andeq	r0, r0, r0, lsr #32
    dc30:	00207825 	eoreq	r7, r0, r5, lsr #16

Disassembly of section .data:

0000e000 <initrd_image>:
    e000:	6d6f722d 	sfmvs	f7, 2, [pc, #-180]!	; df54 <__rodata_start+0xf54>
    e004:	2d736631 	ldclcs	6, cr6, [r3, #-196]!	; 0xffffff3c
    e008:	a0710100 	rsbsge	r0, r1, r0, lsl #2
    e00c:	ac06751e 	cfstr32ge	mvfx7, [r6], {30}
    e010:	6f574d56 	svcvs	0x00574d56
    e014:	00000073 	andeq	r0, r0, r3, ror r0
	...
    e020:	49000000 	stmdbmi	r0, {}	; <UNPREDICTABLE>
    e024:	20000000 	andcs	r0, r0, r0
    e028:	00000000 	andeq	r0, r0, r0
    e02c:	97ffffd1 	ubfxls	pc, r1, #31, #32
    e030:	0000002e 	andeq	r0, r0, lr, lsr #32
	...
    e040:	60000000 	andvs	r0, r0, r0
    e044:	20000000 	andcs	r0, r0, r0
    e048:	00000000 	andeq	r0, r0, r0
    e04c:	80ffd1d1 	ldrsbthi	sp, [pc], #17
    e050:	00002e2e 	andeq	r2, r0, lr, lsr #28
	...
    e060:	89700100 	ldmdbhi	r0!, {r8}^
    e064:	80000000 	andhi	r0, r0, r0
    e068:	00000000 	andeq	r0, r0, r0
    e06c:	f720959d 			; <UNDEFINED> instruction: 0xf720959d
    e070:	006e6962 	rsbeq	r6, lr, r2, ror #18
	...
    e080:	a0000000 	andge	r0, r0, r0
    e084:	60000000 	andvs	r0, r0, r0
    e088:	00000000 	andeq	r0, r0, r0
    e08c:	00ffffd1 	ldrsbteq	pc, [pc], #241	; <UNPREDICTABLE>
    e090:	0000002e 	andeq	r0, r0, lr, lsr #32
	...
    e0a0:	c0000000 	andgt	r0, r0, r0
    e0a4:	20000000 	andcs	r0, r0, r0
    e0a8:	00000000 	andeq	r0, r0, r0
    e0ac:	20ffd1d1 	ldrsbtcs	sp, [pc], #17
    e0b0:	00002e2e 	andeq	r2, r0, lr, lsr #28
	...
    e0c0:	0a110000 	beq	44e0c8 <__bss_end+0x4150c8>
    e0c4:	00000000 	andeq	r0, r0, r0
    e0c8:	12100000 	andsne	r0, r0, #0
    e0cc:	e46a9e9c 	strbt	r9, [sl], #-3740	; 0xfffff164
    e0d0:	00746163 	rsbseq	r6, r4, r3, ror #2
	...
    e0e0:	e92d4010 	push	{r4, lr}
    e0e4:	eb000186 	bl	e704 <initrd_image+0x704>
    e0e8:	e8bd4010 	pop	{r4, lr}
    e0ec:	ea00011b 	b	e560 <initrd_image+0x560>
    e0f0:	e5d13000 	ldrb	r3, [r1]
    e0f4:	e3530000 	cmp	r3, #0
    e0f8:	0a0000f4 	beq	e4d0 <initrd_image+0x4d0>
    e0fc:	e92d4ff0 	push	{r4, r5, r6, r7, r8, r9, sl, fp, lr}
    e100:	e24dd024 	sub	sp, sp, #36	; 0x24
    e104:	e1a08002 	mov	r8, r2
    e108:	e28d200c 	add	r2, sp, #12
    e10c:	e1a0a000 	mov	sl, r0
    e110:	e59f93c0 	ldr	r9, [pc, #960]	; e4d8 <initrd_image+0x4d8>
    e114:	e3a00000 	mov	r0, #0
    e118:	e58d2004 	str	r2, [sp, #4]
    e11c:	ea000009 	b	e148 <initrd_image+0x148>
    e120:	e7ca3000 	strb	r3, [sl, r0]
    e124:	e2800001 	add	r0, r0, #1
    e128:	e3500c01 	cmp	r0, #256	; 0x100
    e12c:	0a0000a6 	beq	e3cc <initrd_image+0x3cc>
    e130:	e2811001 	add	r1, r1, #1
    e134:	e35000ff 	cmp	r0, #255	; 0xff
    e138:	0a000037 	beq	e21c <initrd_image+0x21c>
    e13c:	e5d13000 	ldrb	r3, [r1]
    e140:	e3530000 	cmp	r3, #0
    e144:	0a000034 	beq	e21c <initrd_image+0x21c>
    e148:	e3530025 	cmp	r3, #37	; 0x25
    e14c:	1afffff3 	bne	e120 <initrd_image+0x120>
    e150:	e5d13001 	ldrb	r3, [r1, #1]
    e154:	e243c030 	sub	ip, r3, #48	; 0x30
    e158:	e6efc07c 	uxtb	ip, ip
    e15c:	e35c0009 	cmp	ip, #9
    e160:	83a0c000 	movhi	ip, #0
    e164:	83a0b020 	movhi	fp, #32
    e168:	82811001 	addhi	r1, r1, #1
    e16c:	9a000045 	bls	e288 <initrd_image+0x288>
    e170:	e3530069 	cmp	r3, #105	; 0x69
    e174:	13530064 	cmpne	r3, #100	; 0x64
    e178:	1a000029 	bne	e224 <initrd_image+0x224>
    e17c:	e4983004 	ldr	r3, [r8], #4
    e180:	e2811001 	add	r1, r1, #1
    e184:	e3530000 	cmp	r3, #0
    e188:	a3a07000 	movge	r7, #0
    e18c:	ba00004e 	blt	e2cc <initrd_image+0x2cc>
    e190:	e3a05009 	mov	r5, #9
    e194:	e2877009 	add	r7, r7, #9
    e198:	e28d6016 	add	r6, sp, #22
    e19c:	e0842399 	umull	r2, r4, r9, r3
    e1a0:	e1a041a4 	lsr	r4, r4, #3
    e1a4:	e0842104 	add	r2, r4, r4, lsl #2
    e1a8:	e0432082 	sub	r2, r3, r2, lsl #1
    e1ac:	e1a0e005 	mov	lr, r5
    e1b0:	e2822030 	add	r2, r2, #48	; 0x30
    e1b4:	e2455001 	sub	r5, r5, #1
    e1b8:	e3530009 	cmp	r3, #9
    e1bc:	e6ef2072 	uxtb	r2, r2
    e1c0:	e1a03004 	mov	r3, r4
    e1c4:	e0474005 	sub	r4, r7, r5
    e1c8:	e5662001 	strb	r2, [r6, #-1]!
    e1cc:	e6ef4074 	uxtb	r4, r4
    e1d0:	8afffff1 	bhi	e19c <initrd_image+0x19c>
    e1d4:	e15c0004 	cmp	ip, r4
    e1d8:	8a000043 	bhi	e2ec <initrd_image+0x2ec>
    e1dc:	e59d4004 	ldr	r4, [sp, #4]
    e1e0:	e26ec00a 	rsb	ip, lr, #10
    e1e4:	e2403001 	sub	r3, r0, #1
    e1e8:	e08a3003 	add	r3, sl, r3
    e1ec:	e084e00e 	add	lr, r4, lr
    e1f0:	e08cc000 	add	ip, ip, r0
    e1f4:	ea000000 	b	e1fc <initrd_image+0x1fc>
    e1f8:	e5fe2001 	ldrb	r2, [lr, #1]!
    e1fc:	e2800001 	add	r0, r0, #1
    e200:	e3500c01 	cmp	r0, #256	; 0x100
    e204:	e5e32001 	strb	r2, [r3, #1]!
    e208:	0affffcb 	beq	e13c <initrd_image+0x13c>
    e20c:	e15c0000 	cmp	ip, r0
    e210:	1afffff8 	bne	e1f8 <initrd_image+0x1f8>
    e214:	e35000ff 	cmp	r0, #255	; 0xff
    e218:	1affffc7 	bne	e13c <initrd_image+0x13c>
    e21c:	e28dd024 	add	sp, sp, #36	; 0x24
    e220:	e8bd8ff0 	pop	{r4, r5, r6, r7, r8, r9, sl, fp, pc}
    e224:	e353006c 	cmp	r3, #108	; 0x6c
    e228:	0a00006a 	beq	e3d8 <initrd_image+0x3d8>
    e22c:	e20320f7 	and	r2, r3, #247	; 0xf7
    e230:	e3520070 	cmp	r2, #112	; 0x70
    e234:	0a00003d 	beq	e330 <initrd_image+0x330>
    e238:	e3530063 	cmp	r3, #99	; 0x63
    e23c:	0a00005c 	beq	e3b4 <initrd_image+0x3b4>
    e240:	e3530025 	cmp	r3, #37	; 0x25
    e244:	0a000089 	beq	e470 <initrd_image+0x470>
    e248:	e3530073 	cmp	r3, #115	; 0x73
    e24c:	1affffb8 	bne	e134 <initrd_image+0x134>
    e250:	e498c004 	ldr	ip, [r8], #4
    e254:	e2402001 	sub	r2, r0, #1
    e258:	e2811001 	add	r1, r1, #1
    e25c:	e08a2002 	add	r2, sl, r2
    e260:	e04cc000 	sub	ip, ip, r0
    e264:	ea000003 	b	e278 <initrd_image+0x278>
    e268:	e2800001 	add	r0, r0, #1
    e26c:	e3500c01 	cmp	r0, #256	; 0x100
    e270:	e5e23001 	strb	r3, [r2, #1]!
    e274:	0affffb0 	beq	e13c <initrd_image+0x13c>
    e278:	e7dc3000 	ldrb	r3, [ip, r0]
    e27c:	e3530000 	cmp	r3, #0
    e280:	1afffff8 	bne	e268 <initrd_image+0x268>
    e284:	eaffffaa 	b	e134 <initrd_image+0x134>
    e288:	e3530030 	cmp	r3, #48	; 0x30
    e28c:	e5d13002 	ldrb	r3, [r1, #2]
    e290:	03a0b030 	moveq	fp, #48	; 0x30
    e294:	e2432030 	sub	r2, r3, #48	; 0x30
    e298:	13a0b020 	movne	fp, #32
    e29c:	e3520009 	cmp	r2, #9
    e2a0:	e2811002 	add	r1, r1, #2
    e2a4:	8affffb1 	bhi	e170 <initrd_image+0x170>
    e2a8:	e08cc10c 	add	ip, ip, ip, lsl #2
    e2ac:	e083c08c 	add	ip, r3, ip, lsl #1
    e2b0:	e5f13001 	ldrb	r3, [r1, #1]!
    e2b4:	e24cc030 	sub	ip, ip, #48	; 0x30
    e2b8:	e2432030 	sub	r2, r3, #48	; 0x30
    e2bc:	e3520009 	cmp	r2, #9
    e2c0:	e20cc0ff 	and	ip, ip, #255	; 0xff
    e2c4:	9afffff7 	bls	e2a8 <initrd_image+0x2a8>
    e2c8:	eaffffa8 	b	e170 <initrd_image+0x170>
    e2cc:	e3a0202d 	mov	r2, #45	; 0x2d
    e2d0:	e7ca2000 	strb	r2, [sl, r0]
    e2d4:	e2800001 	add	r0, r0, #1
    e2d8:	e3500c01 	cmp	r0, #256	; 0x100
    e2dc:	0a00003a 	beq	e3cc <initrd_image+0x3cc>
    e2e0:	e3a07001 	mov	r7, #1
    e2e4:	e2633000 	rsb	r3, r3, #0
    e2e8:	eaffffa8 	b	e190 <initrd_image+0x190>
    e2ec:	e04c4004 	sub	r4, ip, r4
    e2f0:	e3540000 	cmp	r4, #0
    e2f4:	daffffb8 	ble	e1dc <initrd_image+0x1dc>
    e2f8:	e35000ff 	cmp	r0, #255	; 0xff
    e2fc:	e7cab000 	strb	fp, [sl, r0]
    e300:	e08ac000 	add	ip, sl, r0
    e304:	e2803001 	add	r3, r0, #1
    e308:	0a000006 	beq	e328 <initrd_image+0x328>
    e30c:	e0840000 	add	r0, r4, r0
    e310:	e1500003 	cmp	r0, r3
    e314:	e2833001 	add	r3, r3, #1
    e318:	0affffaf 	beq	e1dc <initrd_image+0x1dc>
    e31c:	e3530c01 	cmp	r3, #256	; 0x100
    e320:	e5ecb001 	strb	fp, [ip, #1]!
    e324:	1afffff9 	bne	e310 <initrd_image+0x310>
    e328:	e3a00c01 	mov	r0, #256	; 0x100
    e32c:	eaffffaa 	b	e1dc <initrd_image+0x1dc>
    e330:	e3a0e009 	mov	lr, #9
    e334:	e4982004 	ldr	r2, [r8], #4
    e338:	e2811001 	add	r1, r1, #1
    e33c:	e28d5016 	add	r5, sp, #22
    e340:	ea000000 	b	e348 <initrd_image+0x348>
    e344:	e1a0e006 	mov	lr, r6
    e348:	e202300f 	and	r3, r2, #15
    e34c:	e3530009 	cmp	r3, #9
    e350:	92833030 	addls	r3, r3, #48	; 0x30
    e354:	82833057 	addhi	r3, r3, #87	; 0x57
    e358:	e26e400a 	rsb	r4, lr, #10
    e35c:	e352000f 	cmp	r2, #15
    e360:	e24e6001 	sub	r6, lr, #1
    e364:	e1a02222 	lsr	r2, r2, #4
    e368:	e5653001 	strb	r3, [r5, #-1]!
    e36c:	e6ef7074 	uxtb	r7, r4
    e370:	8afffff3 	bhi	e344 <initrd_image+0x344>
    e374:	e15c0007 	cmp	ip, r7
    e378:	8a000042 	bhi	e488 <initrd_image+0x488>
    e37c:	e59d2004 	ldr	r2, [sp, #4]
    e380:	e0844000 	add	r4, r4, r0
    e384:	e082e00e 	add	lr, r2, lr
    e388:	e2402001 	sub	r2, r0, #1
    e38c:	e08a2002 	add	r2, sl, r2
    e390:	ea000000 	b	e398 <initrd_image+0x398>
    e394:	e5fe3001 	ldrb	r3, [lr, #1]!
    e398:	e2800001 	add	r0, r0, #1
    e39c:	e3500c01 	cmp	r0, #256	; 0x100
    e3a0:	e5e23001 	strb	r3, [r2, #1]!
    e3a4:	0affff64 	beq	e13c <initrd_image+0x13c>
    e3a8:	e1500004 	cmp	r0, r4
    e3ac:	1afffff8 	bne	e394 <initrd_image+0x394>
    e3b0:	eaffff5f 	b	e134 <initrd_image+0x134>
    e3b4:	e4983004 	ldr	r3, [r8], #4
    e3b8:	e2811001 	add	r1, r1, #1
    e3bc:	e7ca3000 	strb	r3, [sl, r0]
    e3c0:	e2800001 	add	r0, r0, #1
    e3c4:	e3500c01 	cmp	r0, #256	; 0x100
    e3c8:	1affff59 	bne	e134 <initrd_image+0x134>
    e3cc:	e3a00c01 	mov	r0, #256	; 0x100
    e3d0:	e28dd024 	add	sp, sp, #36	; 0x24
    e3d4:	e8bd8ff0 	pop	{r4, r5, r6, r7, r8, r9, sl, fp, pc}
    e3d8:	e2888007 	add	r8, r8, #7
    e3dc:	e3c88007 	bic	r8, r8, #7
    e3e0:	e598c004 	ldr	ip, [r8, #4]
    e3e4:	e3a0e011 	mov	lr, #17
    e3e8:	e4983008 	ldr	r3, [r8], #8
    e3ec:	e2811003 	add	r1, r1, #3
    e3f0:	e28d401e 	add	r4, sp, #30
    e3f4:	ea000000 	b	e3fc <initrd_image+0x3fc>
    e3f8:	e1a0e005 	mov	lr, r5
    e3fc:	e3a05000 	mov	r5, #0
    e400:	e203200f 	and	r2, r3, #15
    e404:	e352000a 	cmp	r2, #10
    e408:	e2d55000 	sbcs	r5, r5, #0
    e40c:	32822030 	addcc	r2, r2, #48	; 0x30
    e410:	22822057 	addcs	r2, r2, #87	; 0x57
    e414:	e3530010 	cmp	r3, #16
    e418:	e2dc5000 	sbcs	r5, ip, #0
    e41c:	e1a03223 	lsr	r3, r3, #4
    e420:	e1833e0c 	orr	r3, r3, ip, lsl #28
    e424:	e24e5001 	sub	r5, lr, #1
    e428:	e1a0c22c 	lsr	ip, ip, #4
    e42c:	e5642001 	strb	r2, [r4, #-1]!
    e430:	2afffff0 	bcs	e3f8 <initrd_image+0x3f8>
    e434:	e59d3004 	ldr	r3, [sp, #4]
    e438:	e240c001 	sub	ip, r0, #1
    e43c:	e2804012 	add	r4, r0, #18
    e440:	e08ac00c 	add	ip, sl, ip
    e444:	e044400e 	sub	r4, r4, lr
    e448:	e083300e 	add	r3, r3, lr
    e44c:	ea000000 	b	e454 <initrd_image+0x454>
    e450:	e5f32001 	ldrb	r2, [r3, #1]!
    e454:	e2800001 	add	r0, r0, #1
    e458:	e3500c01 	cmp	r0, #256	; 0x100
    e45c:	e5ec2001 	strb	r2, [ip, #1]!
    e460:	0affff35 	beq	e13c <initrd_image+0x13c>
    e464:	e1500004 	cmp	r0, r4
    e468:	1afffff8 	bne	e450 <initrd_image+0x450>
    e46c:	eaffff30 	b	e134 <initrd_image+0x134>
    e470:	e7ca3000 	strb	r3, [sl, r0]
    e474:	e2800001 	add	r0, r0, #1
    e478:	e3500c01 	cmp	r0, #256	; 0x100
    e47c:	e2811001 	add	r1, r1, #1
    e480:	1affff2b 	bne	e134 <initrd_image+0x134>
    e484:	eaffffd0 	b	e3cc <initrd_image+0x3cc>
    e488:	e04cc007 	sub	ip, ip, r7
    e48c:	e35c0000 	cmp	ip, #0
    e490:	daffffb9 	ble	e37c <initrd_image+0x37c>
    e494:	e35000ff 	cmp	r0, #255	; 0xff
    e498:	e7cab000 	strb	fp, [sl, r0]
    e49c:	e08a5000 	add	r5, sl, r0
    e4a0:	e2802001 	add	r2, r0, #1
    e4a4:	0a000007 	beq	e4c8 <initrd_image+0x4c8>
    e4a8:	e08c0000 	add	r0, ip, r0
    e4ac:	e1a0c005 	mov	ip, r5
    e4b0:	e1520000 	cmp	r2, r0
    e4b4:	e2822001 	add	r2, r2, #1
    e4b8:	0affffaf 	beq	e37c <initrd_image+0x37c>
    e4bc:	e3520c01 	cmp	r2, #256	; 0x100
    e4c0:	e5ecb001 	strb	fp, [ip, #1]!
    e4c4:	1afffff9 	bne	e4b0 <initrd_image+0x4b0>
    e4c8:	e3a00c01 	mov	r0, #256	; 0x100
    e4cc:	eaffffaa 	b	e37c <initrd_image+0x37c>
    e4d0:	e1a00003 	mov	r0, r3
    e4d4:	e12fff1e 	bx	lr
    e4d8:	cccccccd 	stclgt	12, cr12, [ip], {205}	; 0xcd
    e4dc:	e92d000f 	push	{r0, r1, r2, r3}
    e4e0:	e92d4030 	push	{r4, r5, lr}
    e4e4:	e24ddf43 	sub	sp, sp, #268	; 0x10c
    e4e8:	e28d5008 	add	r5, sp, #8
    e4ec:	e28d2f47 	add	r2, sp, #284	; 0x11c
    e4f0:	e59d1118 	ldr	r1, [sp, #280]	; 0x118
    e4f4:	e1a00005 	mov	r0, r5
    e4f8:	e58d2004 	str	r2, [sp, #4]
    e4fc:	ebfffefb 	bl	e0f0 <initrd_image+0xf0>
    e500:	e1a04000 	mov	r4, r0
    e504:	e1a01005 	mov	r1, r5
    e508:	e1a02004 	mov	r2, r4
    e50c:	e3a00001 	mov	r0, #1
    e510:	eb00001c 	bl	e588 <initrd_image+0x588>
    e514:	e1a00004 	mov	r0, r4
    e518:	e28ddf43 	add	sp, sp, #268	; 0x10c
    e51c:	e8bd4030 	pop	{r4, r5, lr}
    e520:	e28dd010 	add	sp, sp, #16
    e524:	e12fff1e 	bx	lr
    e528:	e92d000e 	push	{r1, r2, r3}
    e52c:	e92d4010 	push	{r4, lr}
    e530:	e24dd00c 	sub	sp, sp, #12
    e534:	e28d2018 	add	r2, sp, #24
    e538:	e59d1014 	ldr	r1, [sp, #20]
    e53c:	e1a04000 	mov	r4, r0
    e540:	e58d2004 	str	r2, [sp, #4]
    e544:	ebfffee9 	bl	e0f0 <initrd_image+0xf0>
    e548:	e3a02000 	mov	r2, #0
    e54c:	e7c42000 	strb	r2, [r4, r0]
    e550:	e28dd00c 	add	sp, sp, #12
    e554:	e8bd4010 	pop	{r4, lr}
    e558:	e28dd00c 	add	sp, sp, #12
    e55c:	e12fff1e 	bx	lr
    e560:	e52d7004 	push	{r7}		; (str r7, [sp, #-4]!)
    e564:	e3a07001 	mov	r7, #1
    e568:	ef000000 	svc	0x00000000
    e56c:	e49d7004 	pop	{r7}		; (ldr r7, [sp], #4)
    e570:	e12fff1e 	bx	lr
    e574:	e52d7004 	push	{r7}		; (str r7, [sp, #-4]!)
    e578:	e3a07003 	mov	r7, #3
    e57c:	ef000000 	svc	0x00000000
    e580:	e49d7004 	pop	{r7}		; (ldr r7, [sp], #4)
    e584:	e12fff1e 	bx	lr
    e588:	e52d7004 	push	{r7}		; (str r7, [sp, #-4]!)
    e58c:	e3a07004 	mov	r7, #4
    e590:	ef000000 	svc	0x00000000
    e594:	e49d7004 	pop	{r7}		; (ldr r7, [sp], #4)
    e598:	e12fff1e 	bx	lr
    e59c:	e52d7004 	push	{r7}		; (str r7, [sp, #-4]!)
    e5a0:	e3a07005 	mov	r7, #5
    e5a4:	ef000000 	svc	0x00000000
    e5a8:	e49d7004 	pop	{r7}		; (ldr r7, [sp], #4)
    e5ac:	e12fff1e 	bx	lr
    e5b0:	e52d7004 	push	{r7}		; (str r7, [sp, #-4]!)
    e5b4:	e3a07006 	mov	r7, #6
    e5b8:	ef000000 	svc	0x00000000
    e5bc:	e49d7004 	pop	{r7}		; (ldr r7, [sp], #4)
    e5c0:	e12fff1e 	bx	lr
    e5c4:	e52d7004 	push	{r7}		; (str r7, [sp, #-4]!)
    e5c8:	e3a07007 	mov	r7, #7
    e5cc:	ef000000 	svc	0x00000000
    e5d0:	e49d7004 	pop	{r7}		; (ldr r7, [sp], #4)
    e5d4:	e12fff1e 	bx	lr
    e5d8:	e52d7004 	push	{r7}		; (str r7, [sp, #-4]!)
    e5dc:	e3a0700b 	mov	r7, #11
    e5e0:	ef000000 	svc	0x00000000
    e5e4:	e49d7004 	pop	{r7}		; (ldr r7, [sp], #4)
    e5e8:	e12fff1e 	bx	lr
    e5ec:	e52d7004 	push	{r7}		; (str r7, [sp, #-4]!)
    e5f0:	e3a0700c 	mov	r7, #12
    e5f4:	ef000000 	svc	0x00000000
    e5f8:	e49d7004 	pop	{r7}		; (ldr r7, [sp], #4)
    e5fc:	e12fff1e 	bx	lr
    e600:	e52d7004 	push	{r7}		; (str r7, [sp, #-4]!)
    e604:	e3a070b7 	mov	r7, #183	; 0xb7
    e608:	ef000000 	svc	0x00000000
    e60c:	e49d7004 	pop	{r7}		; (ldr r7, [sp], #4)
    e610:	e12fff1e 	bx	lr
    e614:	e52d7004 	push	{r7}		; (str r7, [sp, #-4]!)
    e618:	e3a07014 	mov	r7, #20
    e61c:	ef000000 	svc	0x00000000
    e620:	e49d7004 	pop	{r7}		; (ldr r7, [sp], #4)
    e624:	e12fff1e 	bx	lr
    e628:	e52d7004 	push	{r7}		; (str r7, [sp, #-4]!)
    e62c:	e3a0702b 	mov	r7, #43	; 0x2b
    e630:	ef000000 	svc	0x00000000
    e634:	e49d7004 	pop	{r7}		; (ldr r7, [sp], #4)
    e638:	e12fff1e 	bx	lr
    e63c:	e52d7004 	push	{r7}		; (str r7, [sp, #-4]!)
    e640:	e3a0706a 	mov	r7, #106	; 0x6a
    e644:	ef000000 	svc	0x00000000
    e648:	e49d7004 	pop	{r7}		; (ldr r7, [sp], #4)
    e64c:	e12fff1e 	bx	lr
    e650:	e52d7004 	push	{r7}		; (str r7, [sp, #-4]!)
    e654:	e3a07074 	mov	r7, #116	; 0x74
    e658:	ef000000 	svc	0x00000000
    e65c:	e49d7004 	pop	{r7}		; (ldr r7, [sp], #4)
    e660:	e12fff1e 	bx	lr
    e664:	e52d7004 	push	{r7}		; (str r7, [sp, #-4]!)
    e668:	e3a0707a 	mov	r7, #122	; 0x7a
    e66c:	ef000000 	svc	0x00000000
    e670:	e49d7004 	pop	{r7}		; (ldr r7, [sp], #4)
    e674:	e12fff1e 	bx	lr
    e678:	e52d7004 	push	{r7}		; (str r7, [sp, #-4]!)
    e67c:	e3a0708d 	mov	r7, #141	; 0x8d
    e680:	ef000000 	svc	0x00000000
    e684:	e49d7004 	pop	{r7}		; (ldr r7, [sp], #4)
    e688:	e12fff1e 	bx	lr
    e68c:	e52d7004 	push	{r7}		; (str r7, [sp, #-4]!)
    e690:	e3a070a2 	mov	r7, #162	; 0xa2
    e694:	ef000000 	svc	0x00000000
    e698:	e49d7004 	pop	{r7}		; (ldr r7, [sp], #4)
    e69c:	e12fff1e 	bx	lr
    e6a0:	e52d7004 	push	{r7}		; (str r7, [sp, #-4]!)
    e6a4:	e3a070be 	mov	r7, #190	; 0xbe
    e6a8:	ef000000 	svc	0x00000000
    e6ac:	e49d7004 	pop	{r7}		; (ldr r7, [sp], #4)
    e6b0:	e12fff1e 	bx	lr
    e6b4:	e52d7004 	push	{r7}		; (str r7, [sp, #-4]!)
    e6b8:	e3a07036 	mov	r7, #54	; 0x36
    e6bc:	ef000000 	svc	0x00000000
    e6c0:	e49d7004 	pop	{r7}		; (ldr r7, [sp], #4)
    e6c4:	e12fff1e 	bx	lr
    e6c8:	e52d7004 	push	{r7}		; (str r7, [sp, #-4]!)
    e6cc:	e3a07036 	mov	r7, #54	; 0x36
    e6d0:	ef000000 	svc	0x00000000
    e6d4:	e49d7004 	pop	{r7}		; (ldr r7, [sp], #4)
    e6d8:	e12fff1e 	bx	lr
    e6dc:	e52d7004 	push	{r7}		; (str r7, [sp, #-4]!)
    e6e0:	e3a0700d 	mov	r7, #13
    e6e4:	ef000000 	svc	0x00000000
    e6e8:	e49d7004 	pop	{r7}		; (ldr r7, [sp], #4)
    e6ec:	e12fff1e 	bx	lr
    e6f0:	e52d7004 	push	{r7}		; (str r7, [sp, #-4]!)
    e6f4:	e3a07058 	mov	r7, #88	; 0x58
    e6f8:	ef000000 	svc	0x00000000
    e6fc:	e49d7004 	pop	{r7}		; (ldr r7, [sp], #4)
    e700:	e12fff1e 	bx	lr
    e704:	e92d43f0 	push	{r4, r5, r6, r7, r8, r9, lr}
    e708:	e3500001 	cmp	r0, #1
    e70c:	e24dd084 	sub	sp, sp, #132	; 0x84
    e710:	da000025 	ble	e7ac <initrd_image+0x7ac>
    e714:	e1a08000 	mov	r8, r0
    e718:	e3a07001 	mov	r7, #1
    e71c:	e1a0400d 	mov	r4, sp
    e720:	e2816004 	add	r6, r1, #4
    e724:	e1a09006 	mov	r9, r6
    e728:	e3a02000 	mov	r2, #0
    e72c:	e5990000 	ldr	r0, [r9]
    e730:	e1a01002 	mov	r1, r2
    e734:	ebffff98 	bl	e59c <initrd_image+0x59c>
    e738:	e2505000 	subs	r5, r0, #0
    e73c:	e2866004 	add	r6, r6, #4
    e740:	aa000005 	bge	e75c <initrd_image+0x75c>
    e744:	ea000012 	b	e794 <initrd_image+0x794>
    e748:	e1a01004 	mov	r1, r4
    e74c:	e3a00001 	mov	r0, #1
    e750:	ebffff8c 	bl	e588 <initrd_image+0x588>
    e754:	e3500000 	cmp	r0, #0
    e758:	da000005 	ble	e774 <initrd_image+0x774>
    e75c:	e3a02080 	mov	r2, #128	; 0x80
    e760:	e1a01004 	mov	r1, r4
    e764:	e1a00005 	mov	r0, r5
    e768:	ebffff81 	bl	e574 <initrd_image+0x574>
    e76c:	e2502000 	subs	r2, r0, #0
    e770:	cafffff4 	bgt	e748 <initrd_image+0x748>
    e774:	e1a00005 	mov	r0, r5
    e778:	e2877001 	add	r7, r7, #1
    e77c:	ebffff8b 	bl	e5b0 <initrd_image+0x5b0>
    e780:	e1580007 	cmp	r8, r7
    e784:	1affffe6 	bne	e724 <initrd_image+0x724>
    e788:	e3a00000 	mov	r0, #0
    e78c:	e28dd084 	add	sp, sp, #132	; 0x84
    e790:	e8bd83f0 	pop	{r4, r5, r6, r7, r8, r9, pc}
    e794:	e59f0048 	ldr	r0, [pc, #72]	; e7e4 <initrd_image+0x7e4>
    e798:	e5991000 	ldr	r1, [r9]
    e79c:	e08f0000 	add	r0, pc, r0
    e7a0:	ebffff4d 	bl	e4dc <initrd_image+0x4dc>
    e7a4:	e3e00000 	mvn	r0, #0
    e7a8:	eafffff7 	b	e78c <initrd_image+0x78c>
    e7ac:	e1a0400d 	mov	r4, sp
    e7b0:	ea000004 	b	e7c8 <initrd_image+0x7c8>
    e7b4:	e1a01004 	mov	r1, r4
    e7b8:	e3a00001 	mov	r0, #1
    e7bc:	ebffff71 	bl	e588 <initrd_image+0x588>
    e7c0:	e3500000 	cmp	r0, #0
    e7c4:	daffffef 	ble	e788 <initrd_image+0x788>
    e7c8:	e3a02080 	mov	r2, #128	; 0x80
    e7cc:	e1a01004 	mov	r1, r4
    e7d0:	e3a00000 	mov	r0, #0
    e7d4:	ebffff66 	bl	e574 <initrd_image+0x574>
    e7d8:	e2502000 	subs	r2, r0, #0
    e7dc:	cafffff4 	bgt	e7b4 <initrd_image+0x7b4>
    e7e0:	eaffffe8 	b	e788 <initrd_image+0x788>
    e7e4:	0000093c 	andeq	r0, r0, ip, lsr r9
	...
    f0e0:	6f727245 	svcvs	0x00727245
    f0e4:	706f2072 	rsbvc	r2, pc, r2, ror r0	; <UNPREDICTABLE>
    f0e8:	6e696e65 	cdpvs	14, 6, cr6, cr9, cr5, {3}
    f0ec:	73252067 			; <UNDEFINED> instruction: 0x73252067
    f0f0:	0000000a 	andeq	r0, r0, sl
	...
    f100:	3a310000 	bcc	c4f108 <__bss_end+0xc16108>
    f104:	00000000 	andeq	r0, r0, r0
    f108:	10200000 	eorne	r0, r0, r0
    f10c:	e9c42ec5 	stmib	r4, {r0, r2, r6, r7, r9, sl, fp, sp}^
    f110:	5f746163 	svcpl	0x00746163
    f114:	6e756f63 	cdpvs	15, 7, cr6, cr5, cr3, {3}
    f118:	00000074 	andeq	r0, r0, r4, ror r0
    f11c:	00000000 	andeq	r0, r0, r0
    f120:	e92d4010 	push	{r4, lr}
    f124:	eb0001d8 	bl	f88c <initrd_image+0x188c>
    f128:	e8bd4010 	pop	{r4, lr}
    f12c:	ea00016d 	b	f6e8 <initrd_image+0x16e8>
    f130:	e5d13000 	ldrb	r3, [r1]
    f134:	e3530000 	cmp	r3, #0
    f138:	0a0000f4 	beq	f510 <initrd_image+0x1510>
    f13c:	e92d4ff0 	push	{r4, r5, r6, r7, r8, r9, sl, fp, lr}
    f140:	e24dd024 	sub	sp, sp, #36	; 0x24
    f144:	e1a08002 	mov	r8, r2
    f148:	e28d200c 	add	r2, sp, #12
    f14c:	e1a0a000 	mov	sl, r0
    f150:	e59f93c0 	ldr	r9, [pc, #960]	; f518 <initrd_image+0x1518>
    f154:	e3a00000 	mov	r0, #0
    f158:	e58d2004 	str	r2, [sp, #4]
    f15c:	ea000009 	b	f188 <initrd_image+0x1188>
    f160:	e7ca3000 	strb	r3, [sl, r0]
    f164:	e2800001 	add	r0, r0, #1
    f168:	e3500c01 	cmp	r0, #256	; 0x100
    f16c:	0a0000a6 	beq	f40c <initrd_image+0x140c>
    f170:	e2811001 	add	r1, r1, #1
    f174:	e35000ff 	cmp	r0, #255	; 0xff
    f178:	0a000037 	beq	f25c <initrd_image+0x125c>
    f17c:	e5d13000 	ldrb	r3, [r1]
    f180:	e3530000 	cmp	r3, #0
    f184:	0a000034 	beq	f25c <initrd_image+0x125c>
    f188:	e3530025 	cmp	r3, #37	; 0x25
    f18c:	1afffff3 	bne	f160 <initrd_image+0x1160>
    f190:	e5d13001 	ldrb	r3, [r1, #1]
    f194:	e243c030 	sub	ip, r3, #48	; 0x30
    f198:	e6efc07c 	uxtb	ip, ip
    f19c:	e35c0009 	cmp	ip, #9
    f1a0:	83a0c000 	movhi	ip, #0
    f1a4:	83a0b020 	movhi	fp, #32
    f1a8:	82811001 	addhi	r1, r1, #1
    f1ac:	9a000045 	bls	f2c8 <initrd_image+0x12c8>
    f1b0:	e3530069 	cmp	r3, #105	; 0x69
    f1b4:	13530064 	cmpne	r3, #100	; 0x64
    f1b8:	1a000029 	bne	f264 <initrd_image+0x1264>
    f1bc:	e4983004 	ldr	r3, [r8], #4
    f1c0:	e2811001 	add	r1, r1, #1
    f1c4:	e3530000 	cmp	r3, #0
    f1c8:	a3a07000 	movge	r7, #0
    f1cc:	ba00004e 	blt	f30c <initrd_image+0x130c>
    f1d0:	e3a05009 	mov	r5, #9
    f1d4:	e2877009 	add	r7, r7, #9
    f1d8:	e28d6016 	add	r6, sp, #22
    f1dc:	e0842399 	umull	r2, r4, r9, r3
    f1e0:	e1a041a4 	lsr	r4, r4, #3
    f1e4:	e0842104 	add	r2, r4, r4, lsl #2
    f1e8:	e0432082 	sub	r2, r3, r2, lsl #1
    f1ec:	e1a0e005 	mov	lr, r5
    f1f0:	e2822030 	add	r2, r2, #48	; 0x30
    f1f4:	e2455001 	sub	r5, r5, #1
    f1f8:	e3530009 	cmp	r3, #9
    f1fc:	e6ef2072 	uxtb	r2, r2
    f200:	e1a03004 	mov	r3, r4
    f204:	e0474005 	sub	r4, r7, r5
    f208:	e5662001 	strb	r2, [r6, #-1]!
    f20c:	e6ef4074 	uxtb	r4, r4
    f210:	8afffff1 	bhi	f1dc <initrd_image+0x11dc>
    f214:	e15c0004 	cmp	ip, r4
    f218:	8a000043 	bhi	f32c <initrd_image+0x132c>
    f21c:	e59d4004 	ldr	r4, [sp, #4]
    f220:	e26ec00a 	rsb	ip, lr, #10
    f224:	e2403001 	sub	r3, r0, #1
    f228:	e08a3003 	add	r3, sl, r3
    f22c:	e084e00e 	add	lr, r4, lr
    f230:	e08cc000 	add	ip, ip, r0
    f234:	ea000000 	b	f23c <initrd_image+0x123c>
    f238:	e5fe2001 	ldrb	r2, [lr, #1]!
    f23c:	e2800001 	add	r0, r0, #1
    f240:	e3500c01 	cmp	r0, #256	; 0x100
    f244:	e5e32001 	strb	r2, [r3, #1]!
    f248:	0affffcb 	beq	f17c <initrd_image+0x117c>
    f24c:	e15c0000 	cmp	ip, r0
    f250:	1afffff8 	bne	f238 <initrd_image+0x1238>
    f254:	e35000ff 	cmp	r0, #255	; 0xff
    f258:	1affffc7 	bne	f17c <initrd_image+0x117c>
    f25c:	e28dd024 	add	sp, sp, #36	; 0x24
    f260:	e8bd8ff0 	pop	{r4, r5, r6, r7, r8, r9, sl, fp, pc}
    f264:	e353006c 	cmp	r3, #108	; 0x6c
    f268:	0a00006a 	beq	f418 <initrd_image+0x1418>
    f26c:	e20320f7 	and	r2, r3, #247	; 0xf7
    f270:	e3520070 	cmp	r2, #112	; 0x70
    f274:	0a00003d 	beq	f370 <initrd_image+0x1370>
    f278:	e3530063 	cmp	r3, #99	; 0x63
    f27c:	0a00005c 	beq	f3f4 <initrd_image+0x13f4>
    f280:	e3530025 	cmp	r3, #37	; 0x25
    f284:	0a000089 	beq	f4b0 <initrd_image+0x14b0>
    f288:	e3530073 	cmp	r3, #115	; 0x73
    f28c:	1affffb8 	bne	f174 <initrd_image+0x1174>
    f290:	e498c004 	ldr	ip, [r8], #4
    f294:	e2402001 	sub	r2, r0, #1
    f298:	e2811001 	add	r1, r1, #1
    f29c:	e08a2002 	add	r2, sl, r2
    f2a0:	e04cc000 	sub	ip, ip, r0
    f2a4:	ea000003 	b	f2b8 <initrd_image+0x12b8>
    f2a8:	e2800001 	add	r0, r0, #1
    f2ac:	e3500c01 	cmp	r0, #256	; 0x100
    f2b0:	e5e23001 	strb	r3, [r2, #1]!
    f2b4:	0affffb0 	beq	f17c <initrd_image+0x117c>
    f2b8:	e7dc3000 	ldrb	r3, [ip, r0]
    f2bc:	e3530000 	cmp	r3, #0
    f2c0:	1afffff8 	bne	f2a8 <initrd_image+0x12a8>
    f2c4:	eaffffaa 	b	f174 <initrd_image+0x1174>
    f2c8:	e3530030 	cmp	r3, #48	; 0x30
    f2cc:	e5d13002 	ldrb	r3, [r1, #2]
    f2d0:	03a0b030 	moveq	fp, #48	; 0x30
    f2d4:	e2432030 	sub	r2, r3, #48	; 0x30
    f2d8:	13a0b020 	movne	fp, #32
    f2dc:	e3520009 	cmp	r2, #9
    f2e0:	e2811002 	add	r1, r1, #2
    f2e4:	8affffb1 	bhi	f1b0 <initrd_image+0x11b0>
    f2e8:	e08cc10c 	add	ip, ip, ip, lsl #2
    f2ec:	e083c08c 	add	ip, r3, ip, lsl #1
    f2f0:	e5f13001 	ldrb	r3, [r1, #1]!
    f2f4:	e24cc030 	sub	ip, ip, #48	; 0x30
    f2f8:	e2432030 	sub	r2, r3, #48	; 0x30
    f2fc:	e3520009 	cmp	r2, #9
    f300:	e20cc0ff 	and	ip, ip, #255	; 0xff
    f304:	9afffff7 	bls	f2e8 <initrd_image+0x12e8>
    f308:	eaffffa8 	b	f1b0 <initrd_image+0x11b0>
    f30c:	e3a0202d 	mov	r2, #45	; 0x2d
    f310:	e7ca2000 	strb	r2, [sl, r0]
    f314:	e2800001 	add	r0, r0, #1
    f318:	e3500c01 	cmp	r0, #256	; 0x100
    f31c:	0a00003a 	beq	f40c <initrd_image+0x140c>
    f320:	e3a07001 	mov	r7, #1
    f324:	e2633000 	rsb	r3, r3, #0
    f328:	eaffffa8 	b	f1d0 <initrd_image+0x11d0>
    f32c:	e04c4004 	sub	r4, ip, r4
    f330:	e3540000 	cmp	r4, #0
    f334:	daffffb8 	ble	f21c <initrd_image+0x121c>
    f338:	e35000ff 	cmp	r0, #255	; 0xff
    f33c:	e7cab000 	strb	fp, [sl, r0]
    f340:	e08ac000 	add	ip, sl, r0
    f344:	e2803001 	add	r3, r0, #1
    f348:	0a000006 	beq	f368 <initrd_image+0x1368>
    f34c:	e0840000 	add	r0, r4, r0
    f350:	e1500003 	cmp	r0, r3
    f354:	e2833001 	add	r3, r3, #1
    f358:	0affffaf 	beq	f21c <initrd_image+0x121c>
    f35c:	e3530c01 	cmp	r3, #256	; 0x100
    f360:	e5ecb001 	strb	fp, [ip, #1]!
    f364:	1afffff9 	bne	f350 <initrd_image+0x1350>
    f368:	e3a00c01 	mov	r0, #256	; 0x100
    f36c:	eaffffaa 	b	f21c <initrd_image+0x121c>
    f370:	e3a0e009 	mov	lr, #9
    f374:	e4982004 	ldr	r2, [r8], #4
    f378:	e2811001 	add	r1, r1, #1
    f37c:	e28d5016 	add	r5, sp, #22
    f380:	ea000000 	b	f388 <initrd_image+0x1388>
    f384:	e1a0e006 	mov	lr, r6
    f388:	e202300f 	and	r3, r2, #15
    f38c:	e3530009 	cmp	r3, #9
    f390:	92833030 	addls	r3, r3, #48	; 0x30
    f394:	82833057 	addhi	r3, r3, #87	; 0x57
    f398:	e26e400a 	rsb	r4, lr, #10
    f39c:	e352000f 	cmp	r2, #15
    f3a0:	e24e6001 	sub	r6, lr, #1
    f3a4:	e1a02222 	lsr	r2, r2, #4
    f3a8:	e5653001 	strb	r3, [r5, #-1]!
    f3ac:	e6ef7074 	uxtb	r7, r4
    f3b0:	8afffff3 	bhi	f384 <initrd_image+0x1384>
    f3b4:	e15c0007 	cmp	ip, r7
    f3b8:	8a000042 	bhi	f4c8 <initrd_image+0x14c8>
    f3bc:	e59d2004 	ldr	r2, [sp, #4]
    f3c0:	e0844000 	add	r4, r4, r0
    f3c4:	e082e00e 	add	lr, r2, lr
    f3c8:	e2402001 	sub	r2, r0, #1
    f3cc:	e08a2002 	add	r2, sl, r2
    f3d0:	ea000000 	b	f3d8 <initrd_image+0x13d8>
    f3d4:	e5fe3001 	ldrb	r3, [lr, #1]!
    f3d8:	e2800001 	add	r0, r0, #1
    f3dc:	e3500c01 	cmp	r0, #256	; 0x100
    f3e0:	e5e23001 	strb	r3, [r2, #1]!
    f3e4:	0affff64 	beq	f17c <initrd_image+0x117c>
    f3e8:	e1500004 	cmp	r0, r4
    f3ec:	1afffff8 	bne	f3d4 <initrd_image+0x13d4>
    f3f0:	eaffff5f 	b	f174 <initrd_image+0x1174>
    f3f4:	e4983004 	ldr	r3, [r8], #4
    f3f8:	e2811001 	add	r1, r1, #1
    f3fc:	e7ca3000 	strb	r3, [sl, r0]
    f400:	e2800001 	add	r0, r0, #1
    f404:	e3500c01 	cmp	r0, #256	; 0x100
    f408:	1affff59 	bne	f174 <initrd_image+0x1174>
    f40c:	e3a00c01 	mov	r0, #256	; 0x100
    f410:	e28dd024 	add	sp, sp, #36	; 0x24
    f414:	e8bd8ff0 	pop	{r4, r5, r6, r7, r8, r9, sl, fp, pc}
    f418:	e2888007 	add	r8, r8, #7
    f41c:	e3c88007 	bic	r8, r8, #7
    f420:	e598c004 	ldr	ip, [r8, #4]
    f424:	e3a0e011 	mov	lr, #17
    f428:	e4983008 	ldr	r3, [r8], #8
    f42c:	e2811003 	add	r1, r1, #3
    f430:	e28d401e 	add	r4, sp, #30
    f434:	ea000000 	b	f43c <initrd_image+0x143c>
    f438:	e1a0e005 	mov	lr, r5
    f43c:	e3a05000 	mov	r5, #0
    f440:	e203200f 	and	r2, r3, #15
    f444:	e352000a 	cmp	r2, #10
    f448:	e2d55000 	sbcs	r5, r5, #0
    f44c:	32822030 	addcc	r2, r2, #48	; 0x30
    f450:	22822057 	addcs	r2, r2, #87	; 0x57
    f454:	e3530010 	cmp	r3, #16
    f458:	e2dc5000 	sbcs	r5, ip, #0
    f45c:	e1a03223 	lsr	r3, r3, #4
    f460:	e1833e0c 	orr	r3, r3, ip, lsl #28
    f464:	e24e5001 	sub	r5, lr, #1
    f468:	e1a0c22c 	lsr	ip, ip, #4
    f46c:	e5642001 	strb	r2, [r4, #-1]!
    f470:	2afffff0 	bcs	f438 <initrd_image+0x1438>
    f474:	e59d3004 	ldr	r3, [sp, #4]
    f478:	e240c001 	sub	ip, r0, #1
    f47c:	e2804012 	add	r4, r0, #18
    f480:	e08ac00c 	add	ip, sl, ip
    f484:	e044400e 	sub	r4, r4, lr
    f488:	e083300e 	add	r3, r3, lr
    f48c:	ea000000 	b	f494 <initrd_image+0x1494>
    f490:	e5f32001 	ldrb	r2, [r3, #1]!
    f494:	e2800001 	add	r0, r0, #1
    f498:	e3500c01 	cmp	r0, #256	; 0x100
    f49c:	e5ec2001 	strb	r2, [ip, #1]!
    f4a0:	0affff35 	beq	f17c <initrd_image+0x117c>
    f4a4:	e1500004 	cmp	r0, r4
    f4a8:	1afffff8 	bne	f490 <initrd_image+0x1490>
    f4ac:	eaffff30 	b	f174 <initrd_image+0x1174>
    f4b0:	e7ca3000 	strb	r3, [sl, r0]
    f4b4:	e2800001 	add	r0, r0, #1
    f4b8:	e3500c01 	cmp	r0, #256	; 0x100
    f4bc:	e2811001 	add	r1, r1, #1
    f4c0:	1affff2b 	bne	f174 <initrd_image+0x1174>
    f4c4:	eaffffd0 	b	f40c <initrd_image+0x140c>
    f4c8:	e04cc007 	sub	ip, ip, r7
    f4cc:	e35c0000 	cmp	ip, #0
    f4d0:	daffffb9 	ble	f3bc <initrd_image+0x13bc>
    f4d4:	e35000ff 	cmp	r0, #255	; 0xff
    f4d8:	e7cab000 	strb	fp, [sl, r0]
    f4dc:	e08a5000 	add	r5, sl, r0
    f4e0:	e2802001 	add	r2, r0, #1
    f4e4:	0a000007 	beq	f508 <initrd_image+0x1508>
    f4e8:	e08c0000 	add	r0, ip, r0
    f4ec:	e1a0c005 	mov	ip, r5
    f4f0:	e1520000 	cmp	r2, r0
    f4f4:	e2822001 	add	r2, r2, #1
    f4f8:	0affffaf 	beq	f3bc <initrd_image+0x13bc>
    f4fc:	e3520c01 	cmp	r2, #256	; 0x100
    f500:	e5ecb001 	strb	fp, [ip, #1]!
    f504:	1afffff9 	bne	f4f0 <initrd_image+0x14f0>
    f508:	e3a00c01 	mov	r0, #256	; 0x100
    f50c:	eaffffaa 	b	f3bc <initrd_image+0x13bc>
    f510:	e1a00003 	mov	r0, r3
    f514:	e12fff1e 	bx	lr
    f518:	cccccccd 	stclgt	12, cr12, [ip], {205}	; 0xcd
    f51c:	e92d000f 	push	{r0, r1, r2, r3}
    f520:	e92d4030 	push	{r4, r5, lr}
    f524:	e24ddf43 	sub	sp, sp, #268	; 0x10c
    f528:	e28d5008 	add	r5, sp, #8
    f52c:	e28d2f47 	add	r2, sp, #284	; 0x11c
    f530:	e59d1118 	ldr	r1, [sp, #280]	; 0x118
    f534:	e1a00005 	mov	r0, r5
    f538:	e58d2004 	str	r2, [sp, #4]
    f53c:	ebfffefb 	bl	f130 <initrd_image+0x1130>
    f540:	e1a04000 	mov	r4, r0
    f544:	e1a01005 	mov	r1, r5
    f548:	e1a02004 	mov	r2, r4
    f54c:	e3a00001 	mov	r0, #1
    f550:	eb00006e 	bl	f710 <initrd_image+0x1710>
    f554:	e1a00004 	mov	r0, r4
    f558:	e28ddf43 	add	sp, sp, #268	; 0x10c
    f55c:	e8bd4030 	pop	{r4, r5, lr}
    f560:	e28dd010 	add	sp, sp, #16
    f564:	e12fff1e 	bx	lr
    f568:	e92d000e 	push	{r1, r2, r3}
    f56c:	e92d4010 	push	{r4, lr}
    f570:	e24dd00c 	sub	sp, sp, #12
    f574:	e28d2018 	add	r2, sp, #24
    f578:	e59d1014 	ldr	r1, [sp, #20]
    f57c:	e1a04000 	mov	r4, r0
    f580:	e58d2004 	str	r2, [sp, #4]
    f584:	ebfffee9 	bl	f130 <initrd_image+0x1130>
    f588:	e3a02000 	mov	r2, #0
    f58c:	e7c42000 	strb	r2, [r4, r0]
    f590:	e28dd00c 	add	sp, sp, #12
    f594:	e8bd4010 	pop	{r4, lr}
    f598:	e28dd00c 	add	sp, sp, #12
    f59c:	e12fff1e 	bx	lr
    f5a0:	e3520000 	cmp	r2, #0
    f5a4:	0a00000d 	beq	f5e0 <initrd_image+0x15e0>
    f5a8:	e92d4010 	push	{r4, lr}
    f5ac:	e1a04000 	mov	r4, r0
    f5b0:	e240c001 	sub	ip, r0, #1
    f5b4:	e241e001 	sub	lr, r1, #1
    f5b8:	e1a0300c 	mov	r3, ip
    f5bc:	e5fe1001 	ldrb	r1, [lr, #1]!
    f5c0:	e5fc0001 	ldrb	r0, [ip, #1]!
    f5c4:	e0500001 	subs	r0, r0, r1
    f5c8:	18bd8010 	popne	{r4, pc}
    f5cc:	e2833002 	add	r3, r3, #2
    f5d0:	e0433004 	sub	r3, r3, r4
    f5d4:	e1520003 	cmp	r2, r3
    f5d8:	1afffff6 	bne	f5b8 <initrd_image+0x15b8>
    f5dc:	e8bd8010 	pop	{r4, pc}
    f5e0:	e1a00002 	mov	r0, r2
    f5e4:	e12fff1e 	bx	lr
    f5e8:	e1a03000 	mov	r3, r0
    f5ec:	e5d00000 	ldrb	r0, [r0]
    f5f0:	e3500000 	cmp	r0, #0
    f5f4:	012fff1e 	bxeq	lr
    f5f8:	e2631001 	rsb	r1, r3, #1
    f5fc:	e0810003 	add	r0, r1, r3
    f600:	e5f32001 	ldrb	r2, [r3, #1]!
    f604:	e3520000 	cmp	r2, #0
    f608:	1afffffb 	bne	f5fc <initrd_image+0x15fc>
    f60c:	e12fff1e 	bx	lr
    f610:	e5d03000 	ldrb	r3, [r0]
    f614:	e1a02000 	mov	r2, r0
    f618:	e3530000 	cmp	r3, #0
    f61c:	0a000007 	beq	f640 <initrd_image+0x1640>
    f620:	e3a00000 	mov	r0, #0
    f624:	e2431030 	sub	r1, r3, #48	; 0x30
    f628:	e5f23001 	ldrb	r3, [r2, #1]!
    f62c:	e0800100 	add	r0, r0, r0, lsl #2
    f630:	e3530000 	cmp	r3, #0
    f634:	e0810080 	add	r0, r1, r0, lsl #1
    f638:	1afffff9 	bne	f624 <initrd_image+0x1624>
    f63c:	e12fff1e 	bx	lr
    f640:	e1a00003 	mov	r0, r3
    f644:	e12fff1e 	bx	lr
    f648:	e92d41f0 	push	{r4, r5, r6, r7, r8, lr}
    f64c:	e2103003 	ands	r3, r0, #3
    f650:	e1a0c000 	mov	ip, r0
    f654:	0a000006 	beq	f674 <initrd_image+0x1674>
    f658:	e2522004 	subs	r2, r2, #4
    f65c:	ba00001a 	blt	f6cc <initrd_image+0x16cc>
    f660:	e3530002 	cmp	r3, #2
    f664:	b4cc1001 	strblt	r1, [ip], #1
    f668:	d4cc1001 	strble	r1, [ip], #1
    f66c:	e4cc1001 	strb	r1, [ip], #1
    f670:	e0822003 	add	r2, r2, r3
    f674:	e1811401 	orr	r1, r1, r1, lsl #8
    f678:	e1811801 	orr	r1, r1, r1, lsl #16
    f67c:	e1a03001 	mov	r3, r1
    f680:	e1a04001 	mov	r4, r1
    f684:	e1a05001 	mov	r5, r1
    f688:	e1a06001 	mov	r6, r1
    f68c:	e1a07001 	mov	r7, r1
    f690:	e1a08001 	mov	r8, r1
    f694:	e1a0e001 	mov	lr, r1
    f698:	e2522040 	subs	r2, r2, #64	; 0x40
    f69c:	a8ac41fa 	stmiage	ip!, {r1, r3, r4, r5, r6, r7, r8, lr}
    f6a0:	a8ac41fa 	stmiage	ip!, {r1, r3, r4, r5, r6, r7, r8, lr}
    f6a4:	cafffffb 	bgt	f698 <initrd_image+0x1698>
    f6a8:	0a00000c 	beq	f6e0 <initrd_image+0x16e0>
    f6ac:	e3120020 	tst	r2, #32
    f6b0:	18ac41fa 	stmiane	ip!, {r1, r3, r4, r5, r6, r7, r8, lr}
    f6b4:	e3120010 	tst	r2, #16
    f6b8:	18ac00f0 	stmiane	ip!, {r4, r5, r6, r7}
    f6bc:	e3120008 	tst	r2, #8
    f6c0:	18ac000a 	stmiane	ip!, {r1, r3}
    f6c4:	e3120004 	tst	r2, #4
    f6c8:	148c1004 	strne	r1, [ip], #4
    f6cc:	e3120002 	tst	r2, #2
    f6d0:	14cc1001 	strbne	r1, [ip], #1
    f6d4:	14cc1001 	strbne	r1, [ip], #1
    f6d8:	e3120001 	tst	r2, #1
    f6dc:	14cc1001 	strbne	r1, [ip], #1
    f6e0:	e8bd41f0 	pop	{r4, r5, r6, r7, r8, lr}
    f6e4:	e12fff1e 	bx	lr
    f6e8:	e52d7004 	push	{r7}		; (str r7, [sp, #-4]!)
    f6ec:	e3a07001 	mov	r7, #1
    f6f0:	ef000000 	svc	0x00000000
    f6f4:	e49d7004 	pop	{r7}		; (ldr r7, [sp], #4)
    f6f8:	e12fff1e 	bx	lr
    f6fc:	e52d7004 	push	{r7}		; (str r7, [sp, #-4]!)
    f700:	e3a07003 	mov	r7, #3
    f704:	ef000000 	svc	0x00000000
    f708:	e49d7004 	pop	{r7}		; (ldr r7, [sp], #4)
    f70c:	e12fff1e 	bx	lr
    f710:	e52d7004 	push	{r7}		; (str r7, [sp, #-4]!)
    f714:	e3a07004 	mov	r7, #4
    f718:	ef000000 	svc	0x00000000
    f71c:	e49d7004 	pop	{r7}		; (ldr r7, [sp], #4)
    f720:	e12fff1e 	bx	lr
    f724:	e52d7004 	push	{r7}		; (str r7, [sp, #-4]!)
    f728:	e3a07005 	mov	r7, #5
    f72c:	ef000000 	svc	0x00000000
    f730:	e49d7004 	pop	{r7}		; (ldr r7, [sp], #4)
    f734:	e12fff1e 	bx	lr
    f738:	e52d7004 	push	{r7}		; (str r7, [sp, #-4]!)
    f73c:	e3a07006 	mov	r7, #6
    f740:	ef000000 	svc	0x00000000
    f744:	e49d7004 	pop	{r7}		; (ldr r7, [sp], #4)
    f748:	e12fff1e 	bx	lr
    f74c:	e52d7004 	push	{r7}		; (str r7, [sp, #-4]!)
    f750:	e3a07007 	mov	r7, #7
    f754:	ef000000 	svc	0x00000000
    f758:	e49d7004 	pop	{r7}		; (ldr r7, [sp], #4)
    f75c:	e12fff1e 	bx	lr
    f760:	e52d7004 	push	{r7}		; (str r7, [sp, #-4]!)
    f764:	e3a0700b 	mov	r7, #11
    f768:	ef000000 	svc	0x00000000
    f76c:	e49d7004 	pop	{r7}		; (ldr r7, [sp], #4)
    f770:	e12fff1e 	bx	lr
    f774:	e52d7004 	push	{r7}		; (str r7, [sp, #-4]!)
    f778:	e3a0700c 	mov	r7, #12
    f77c:	ef000000 	svc	0x00000000
    f780:	e49d7004 	pop	{r7}		; (ldr r7, [sp], #4)
    f784:	e12fff1e 	bx	lr
    f788:	e52d7004 	push	{r7}		; (str r7, [sp, #-4]!)
    f78c:	e3a070b7 	mov	r7, #183	; 0xb7
    f790:	ef000000 	svc	0x00000000
    f794:	e49d7004 	pop	{r7}		; (ldr r7, [sp], #4)
    f798:	e12fff1e 	bx	lr
    f79c:	e52d7004 	push	{r7}		; (str r7, [sp, #-4]!)
    f7a0:	e3a07014 	mov	r7, #20
    f7a4:	ef000000 	svc	0x00000000
    f7a8:	e49d7004 	pop	{r7}		; (ldr r7, [sp], #4)
    f7ac:	e12fff1e 	bx	lr
    f7b0:	e52d7004 	push	{r7}		; (str r7, [sp, #-4]!)
    f7b4:	e3a0702b 	mov	r7, #43	; 0x2b
    f7b8:	ef000000 	svc	0x00000000
    f7bc:	e49d7004 	pop	{r7}		; (ldr r7, [sp], #4)
    f7c0:	e12fff1e 	bx	lr
    f7c4:	e52d7004 	push	{r7}		; (str r7, [sp, #-4]!)
    f7c8:	e3a0706a 	mov	r7, #106	; 0x6a
    f7cc:	ef000000 	svc	0x00000000
    f7d0:	e49d7004 	pop	{r7}		; (ldr r7, [sp], #4)
    f7d4:	e12fff1e 	bx	lr
    f7d8:	e52d7004 	push	{r7}		; (str r7, [sp, #-4]!)
    f7dc:	e3a07074 	mov	r7, #116	; 0x74
    f7e0:	ef000000 	svc	0x00000000
    f7e4:	e49d7004 	pop	{r7}		; (ldr r7, [sp], #4)
    f7e8:	e12fff1e 	bx	lr
    f7ec:	e52d7004 	push	{r7}		; (str r7, [sp, #-4]!)
    f7f0:	e3a0707a 	mov	r7, #122	; 0x7a
    f7f4:	ef000000 	svc	0x00000000
    f7f8:	e49d7004 	pop	{r7}		; (ldr r7, [sp], #4)
    f7fc:	e12fff1e 	bx	lr
    f800:	e52d7004 	push	{r7}		; (str r7, [sp, #-4]!)
    f804:	e3a0708d 	mov	r7, #141	; 0x8d
    f808:	ef000000 	svc	0x00000000
    f80c:	e49d7004 	pop	{r7}		; (ldr r7, [sp], #4)
    f810:	e12fff1e 	bx	lr
    f814:	e52d7004 	push	{r7}		; (str r7, [sp, #-4]!)
    f818:	e3a070a2 	mov	r7, #162	; 0xa2
    f81c:	ef000000 	svc	0x00000000
    f820:	e49d7004 	pop	{r7}		; (ldr r7, [sp], #4)
    f824:	e12fff1e 	bx	lr
    f828:	e52d7004 	push	{r7}		; (str r7, [sp, #-4]!)
    f82c:	e3a070be 	mov	r7, #190	; 0xbe
    f830:	ef000000 	svc	0x00000000
    f834:	e49d7004 	pop	{r7}		; (ldr r7, [sp], #4)
    f838:	e12fff1e 	bx	lr
    f83c:	e52d7004 	push	{r7}		; (str r7, [sp, #-4]!)
    f840:	e3a07036 	mov	r7, #54	; 0x36
    f844:	ef000000 	svc	0x00000000
    f848:	e49d7004 	pop	{r7}		; (ldr r7, [sp], #4)
    f84c:	e12fff1e 	bx	lr
    f850:	e52d7004 	push	{r7}		; (str r7, [sp, #-4]!)
    f854:	e3a07036 	mov	r7, #54	; 0x36
    f858:	ef000000 	svc	0x00000000
    f85c:	e49d7004 	pop	{r7}		; (ldr r7, [sp], #4)
    f860:	e12fff1e 	bx	lr
    f864:	e52d7004 	push	{r7}		; (str r7, [sp, #-4]!)
    f868:	e3a0700d 	mov	r7, #13
    f86c:	ef000000 	svc	0x00000000
    f870:	e49d7004 	pop	{r7}		; (ldr r7, [sp], #4)
    f874:	e12fff1e 	bx	lr
    f878:	e52d7004 	push	{r7}		; (str r7, [sp, #-4]!)
    f87c:	e3a07058 	mov	r7, #88	; 0x58
    f880:	ef000000 	svc	0x00000000
    f884:	e49d7004 	pop	{r7}		; (ldr r7, [sp], #4)
    f888:	e12fff1e 	bx	lr
    f88c:	e92d41f0 	push	{r4, r5, r6, r7, r8, lr}
    f890:	e59f60a8 	ldr	r6, [pc, #168]	; f940 <initrd_image+0x1940>
    f894:	e3500003 	cmp	r0, #3
    f898:	e08f6006 	add	r6, pc, r6
    f89c:	e1a04001 	mov	r4, r1
    f8a0:	1a00001a 	bne	f910 <initrd_image+0x1910>
    f8a4:	e5910008 	ldr	r0, [r1, #8]
    f8a8:	ebffff58 	bl	f610 <initrd_image+0x1610>
    f8ac:	e1a05000 	mov	r5, r0
    f8b0:	e59f008c 	ldr	r0, [pc, #140]	; f944 <initrd_image+0x1944>
    f8b4:	e1a01005 	mov	r1, r5
    f8b8:	e08f0000 	add	r0, pc, r0
    f8bc:	ebffff16 	bl	f51c <initrd_image+0x151c>
    f8c0:	e3a02000 	mov	r2, #0
    f8c4:	e5940004 	ldr	r0, [r4, #4]
    f8c8:	e1a01002 	mov	r1, r2
    f8cc:	ebffff94 	bl	f724 <initrd_image+0x1724>
    f8d0:	e2507000 	subs	r7, r0, #0
    f8d4:	ba000013 	blt	f928 <initrd_image+0x1928>
    f8d8:	e59f3068 	ldr	r3, [pc, #104]	; f948 <initrd_image+0x1948>
    f8dc:	e1a02005 	mov	r2, r5
    f8e0:	e7964003 	ldr	r4, [r6, r3]
    f8e4:	e1a01004 	mov	r1, r4
    f8e8:	ebffff83 	bl	f6fc <initrd_image+0x16fc>
    f8ec:	e2502000 	subs	r2, r0, #0
    f8f0:	da000002 	ble	f900 <initrd_image+0x1900>
    f8f4:	e1a01004 	mov	r1, r4
    f8f8:	e3a00001 	mov	r0, #1
    f8fc:	ebffff83 	bl	f710 <initrd_image+0x1710>
    f900:	e1a00007 	mov	r0, r7
    f904:	ebffff8b 	bl	f738 <initrd_image+0x1738>
    f908:	e3a00000 	mov	r0, #0
    f90c:	e8bd81f0 	pop	{r4, r5, r6, r7, r8, pc}
    f910:	e59f0034 	ldr	r0, [pc, #52]	; f94c <initrd_image+0x194c>
    f914:	e5911000 	ldr	r1, [r1]
    f918:	e08f0000 	add	r0, pc, r0
    f91c:	ebfffefe 	bl	f51c <initrd_image+0x151c>
    f920:	e3e00000 	mvn	r0, #0
    f924:	e8bd81f0 	pop	{r4, r5, r6, r7, r8, pc}
    f928:	e59f0020 	ldr	r0, [pc, #32]	; f950 <initrd_image+0x1950>
    f92c:	e5941004 	ldr	r1, [r4, #4]
    f930:	e08f0000 	add	r0, pc, r0
    f934:	ebfffef8 	bl	f51c <initrd_image+0x151c>
    f938:	e3e00000 	mvn	r0, #0
    f93c:	e8bd81f0 	pop	{r4, r5, r6, r7, r8, pc}
    f940:	00001880 	andeq	r1, r0, r0, lsl #17
    f944:	0000087c 	andeq	r0, r0, ip, ror r8
    f948:	00000000 	andeq	r0, r0, r0
    f94c:	00000800 	andeq	r0, r0, r0, lsl #16
    f950:	0000081c 	andeq	r0, r0, ip, lsl r8
	...
   10120:	67617355 			; <UNDEFINED> instruction: 0x67617355
   10124:	090a3a65 	stmdbeq	sl, {r0, r2, r5, r6, r9, fp, ip, sp}
   10128:	46207325 	strtmi	r7, [r0], -r5, lsr #6
   1012c:	4e454c49 	cdpmi	12, 4, cr4, cr5, cr9, {2}
   10130:	20454d41 	subcs	r4, r5, r1, asr #26
   10134:	6e756f63 	cdpvs	15, 7, cr6, cr5, cr3, {3}
   10138:	000a0a74 	andeq	r0, sl, r4, ror sl
   1013c:	796c6e4f 	stmdbvc	ip!, {r0, r1, r2, r3, r6, r9, sl, fp, sp, lr}^
   10140:	74616320 	strbtvc	r6, [r1], #-800	; 0xfffffce0
   10144:	676e6974 			; <UNDEFINED> instruction: 0x676e6974
   10148:	20642520 	rsbcs	r2, r4, r0, lsr #10
   1014c:	65747962 	ldrbvs	r7, [r4, #-2402]!	; 0xfffff69e
   10150:	00000a73 	andeq	r0, r0, r3, ror sl
   10154:	6f727245 	svcvs	0x00727245
   10158:	706f2072 	rsbvc	r2, pc, r2, ror r0	; <UNPREDICTABLE>
   1015c:	6e696e65 	cdpvs	14, 6, cr6, cr9, cr5, {3}
   10160:	73252067 			; <UNDEFINED> instruction: 0x73252067
   10164:	0000000a 	andeq	r0, r0, sl
	...
   11120:	0000b000 	andeq	fp, r0, r0
	...
   11130:	6a410000 	bvs	1051138 <__bss_end+0x1018138>
   11134:	00000000 	andeq	r0, r0, r0
   11138:	0e100000 	cdpeq	0, 1, cr0, cr0, cr0, {0}
   1113c:	1c429a28 	mcrrne	10, 2, r9, r2, cr8
   11140:	6c6c6568 	cfstr64vs	mvdx6, [ip], #-416	; 0xfffffe60
   11144:	0000006f 	andeq	r0, r0, pc, rrx
	...
   11150:	e92d4010 	push	{r4, lr}
   11154:	eb000186 	bl	11774 <initrd_image+0x3774>
   11158:	e8bd4010 	pop	{r4, lr}
   1115c:	ea00011b 	b	115d0 <initrd_image+0x35d0>
   11160:	e5d13000 	ldrb	r3, [r1]
   11164:	e3530000 	cmp	r3, #0
   11168:	0a0000f4 	beq	11540 <initrd_image+0x3540>
   1116c:	e92d4ff0 	push	{r4, r5, r6, r7, r8, r9, sl, fp, lr}
   11170:	e24dd024 	sub	sp, sp, #36	; 0x24
   11174:	e1a08002 	mov	r8, r2
   11178:	e28d200c 	add	r2, sp, #12
   1117c:	e1a0a000 	mov	sl, r0
   11180:	e59f93c0 	ldr	r9, [pc, #960]	; 11548 <initrd_image+0x3548>
   11184:	e3a00000 	mov	r0, #0
   11188:	e58d2004 	str	r2, [sp, #4]
   1118c:	ea000009 	b	111b8 <initrd_image+0x31b8>
   11190:	e7ca3000 	strb	r3, [sl, r0]
   11194:	e2800001 	add	r0, r0, #1
   11198:	e3500c01 	cmp	r0, #256	; 0x100
   1119c:	0a0000a6 	beq	1143c <initrd_image+0x343c>
   111a0:	e2811001 	add	r1, r1, #1
   111a4:	e35000ff 	cmp	r0, #255	; 0xff
   111a8:	0a000037 	beq	1128c <initrd_image+0x328c>
   111ac:	e5d13000 	ldrb	r3, [r1]
   111b0:	e3530000 	cmp	r3, #0
   111b4:	0a000034 	beq	1128c <initrd_image+0x328c>
   111b8:	e3530025 	cmp	r3, #37	; 0x25
   111bc:	1afffff3 	bne	11190 <initrd_image+0x3190>
   111c0:	e5d13001 	ldrb	r3, [r1, #1]
   111c4:	e243c030 	sub	ip, r3, #48	; 0x30
   111c8:	e6efc07c 	uxtb	ip, ip
   111cc:	e35c0009 	cmp	ip, #9
   111d0:	83a0c000 	movhi	ip, #0
   111d4:	83a0b020 	movhi	fp, #32
   111d8:	82811001 	addhi	r1, r1, #1
   111dc:	9a000045 	bls	112f8 <initrd_image+0x32f8>
   111e0:	e3530069 	cmp	r3, #105	; 0x69
   111e4:	13530064 	cmpne	r3, #100	; 0x64
   111e8:	1a000029 	bne	11294 <initrd_image+0x3294>
   111ec:	e4983004 	ldr	r3, [r8], #4
   111f0:	e2811001 	add	r1, r1, #1
   111f4:	e3530000 	cmp	r3, #0
   111f8:	a3a07000 	movge	r7, #0
   111fc:	ba00004e 	blt	1133c <initrd_image+0x333c>
   11200:	e3a05009 	mov	r5, #9
   11204:	e2877009 	add	r7, r7, #9
   11208:	e28d6016 	add	r6, sp, #22
   1120c:	e0842399 	umull	r2, r4, r9, r3
   11210:	e1a041a4 	lsr	r4, r4, #3
   11214:	e0842104 	add	r2, r4, r4, lsl #2
   11218:	e0432082 	sub	r2, r3, r2, lsl #1
   1121c:	e1a0e005 	mov	lr, r5
   11220:	e2822030 	add	r2, r2, #48	; 0x30
   11224:	e2455001 	sub	r5, r5, #1
   11228:	e3530009 	cmp	r3, #9
   1122c:	e6ef2072 	uxtb	r2, r2
   11230:	e1a03004 	mov	r3, r4
   11234:	e0474005 	sub	r4, r7, r5
   11238:	e5662001 	strb	r2, [r6, #-1]!
   1123c:	e6ef4074 	uxtb	r4, r4
   11240:	8afffff1 	bhi	1120c <initrd_image+0x320c>
   11244:	e15c0004 	cmp	ip, r4
   11248:	8a000043 	bhi	1135c <initrd_image+0x335c>
   1124c:	e59d4004 	ldr	r4, [sp, #4]
   11250:	e26ec00a 	rsb	ip, lr, #10
   11254:	e2403001 	sub	r3, r0, #1
   11258:	e08a3003 	add	r3, sl, r3
   1125c:	e084e00e 	add	lr, r4, lr
   11260:	e08cc000 	add	ip, ip, r0
   11264:	ea000000 	b	1126c <initrd_image+0x326c>
   11268:	e5fe2001 	ldrb	r2, [lr, #1]!
   1126c:	e2800001 	add	r0, r0, #1
   11270:	e3500c01 	cmp	r0, #256	; 0x100
   11274:	e5e32001 	strb	r2, [r3, #1]!
   11278:	0affffcb 	beq	111ac <initrd_image+0x31ac>
   1127c:	e15c0000 	cmp	ip, r0
   11280:	1afffff8 	bne	11268 <initrd_image+0x3268>
   11284:	e35000ff 	cmp	r0, #255	; 0xff
   11288:	1affffc7 	bne	111ac <initrd_image+0x31ac>
   1128c:	e28dd024 	add	sp, sp, #36	; 0x24
   11290:	e8bd8ff0 	pop	{r4, r5, r6, r7, r8, r9, sl, fp, pc}
   11294:	e353006c 	cmp	r3, #108	; 0x6c
   11298:	0a00006a 	beq	11448 <initrd_image+0x3448>
   1129c:	e20320f7 	and	r2, r3, #247	; 0xf7
   112a0:	e3520070 	cmp	r2, #112	; 0x70
   112a4:	0a00003d 	beq	113a0 <initrd_image+0x33a0>
   112a8:	e3530063 	cmp	r3, #99	; 0x63
   112ac:	0a00005c 	beq	11424 <initrd_image+0x3424>
   112b0:	e3530025 	cmp	r3, #37	; 0x25
   112b4:	0a000089 	beq	114e0 <initrd_image+0x34e0>
   112b8:	e3530073 	cmp	r3, #115	; 0x73
   112bc:	1affffb8 	bne	111a4 <initrd_image+0x31a4>
   112c0:	e498c004 	ldr	ip, [r8], #4
   112c4:	e2402001 	sub	r2, r0, #1
   112c8:	e2811001 	add	r1, r1, #1
   112cc:	e08a2002 	add	r2, sl, r2
   112d0:	e04cc000 	sub	ip, ip, r0
   112d4:	ea000003 	b	112e8 <initrd_image+0x32e8>
   112d8:	e2800001 	add	r0, r0, #1
   112dc:	e3500c01 	cmp	r0, #256	; 0x100
   112e0:	e5e23001 	strb	r3, [r2, #1]!
   112e4:	0affffb0 	beq	111ac <initrd_image+0x31ac>
   112e8:	e7dc3000 	ldrb	r3, [ip, r0]
   112ec:	e3530000 	cmp	r3, #0
   112f0:	1afffff8 	bne	112d8 <initrd_image+0x32d8>
   112f4:	eaffffaa 	b	111a4 <initrd_image+0x31a4>
   112f8:	e3530030 	cmp	r3, #48	; 0x30
   112fc:	e5d13002 	ldrb	r3, [r1, #2]
   11300:	03a0b030 	moveq	fp, #48	; 0x30
   11304:	e2432030 	sub	r2, r3, #48	; 0x30
   11308:	13a0b020 	movne	fp, #32
   1130c:	e3520009 	cmp	r2, #9
   11310:	e2811002 	add	r1, r1, #2
   11314:	8affffb1 	bhi	111e0 <initrd_image+0x31e0>
   11318:	e08cc10c 	add	ip, ip, ip, lsl #2
   1131c:	e083c08c 	add	ip, r3, ip, lsl #1
   11320:	e5f13001 	ldrb	r3, [r1, #1]!
   11324:	e24cc030 	sub	ip, ip, #48	; 0x30
   11328:	e2432030 	sub	r2, r3, #48	; 0x30
   1132c:	e3520009 	cmp	r2, #9
   11330:	e20cc0ff 	and	ip, ip, #255	; 0xff
   11334:	9afffff7 	bls	11318 <initrd_image+0x3318>
   11338:	eaffffa8 	b	111e0 <initrd_image+0x31e0>
   1133c:	e3a0202d 	mov	r2, #45	; 0x2d
   11340:	e7ca2000 	strb	r2, [sl, r0]
   11344:	e2800001 	add	r0, r0, #1
   11348:	e3500c01 	cmp	r0, #256	; 0x100
   1134c:	0a00003a 	beq	1143c <initrd_image+0x343c>
   11350:	e3a07001 	mov	r7, #1
   11354:	e2633000 	rsb	r3, r3, #0
   11358:	eaffffa8 	b	11200 <initrd_image+0x3200>
   1135c:	e04c4004 	sub	r4, ip, r4
   11360:	e3540000 	cmp	r4, #0
   11364:	daffffb8 	ble	1124c <initrd_image+0x324c>
   11368:	e35000ff 	cmp	r0, #255	; 0xff
   1136c:	e7cab000 	strb	fp, [sl, r0]
   11370:	e08ac000 	add	ip, sl, r0
   11374:	e2803001 	add	r3, r0, #1
   11378:	0a000006 	beq	11398 <initrd_image+0x3398>
   1137c:	e0840000 	add	r0, r4, r0
   11380:	e1500003 	cmp	r0, r3
   11384:	e2833001 	add	r3, r3, #1
   11388:	0affffaf 	beq	1124c <initrd_image+0x324c>
   1138c:	e3530c01 	cmp	r3, #256	; 0x100
   11390:	e5ecb001 	strb	fp, [ip, #1]!
   11394:	1afffff9 	bne	11380 <initrd_image+0x3380>
   11398:	e3a00c01 	mov	r0, #256	; 0x100
   1139c:	eaffffaa 	b	1124c <initrd_image+0x324c>
   113a0:	e3a0e009 	mov	lr, #9
   113a4:	e4982004 	ldr	r2, [r8], #4
   113a8:	e2811001 	add	r1, r1, #1
   113ac:	e28d5016 	add	r5, sp, #22
   113b0:	ea000000 	b	113b8 <initrd_image+0x33b8>
   113b4:	e1a0e006 	mov	lr, r6
   113b8:	e202300f 	and	r3, r2, #15
   113bc:	e3530009 	cmp	r3, #9
   113c0:	92833030 	addls	r3, r3, #48	; 0x30
   113c4:	82833057 	addhi	r3, r3, #87	; 0x57
   113c8:	e26e400a 	rsb	r4, lr, #10
   113cc:	e352000f 	cmp	r2, #15
   113d0:	e24e6001 	sub	r6, lr, #1
   113d4:	e1a02222 	lsr	r2, r2, #4
   113d8:	e5653001 	strb	r3, [r5, #-1]!
   113dc:	e6ef7074 	uxtb	r7, r4
   113e0:	8afffff3 	bhi	113b4 <initrd_image+0x33b4>
   113e4:	e15c0007 	cmp	ip, r7
   113e8:	8a000042 	bhi	114f8 <initrd_image+0x34f8>
   113ec:	e59d2004 	ldr	r2, [sp, #4]
   113f0:	e0844000 	add	r4, r4, r0
   113f4:	e082e00e 	add	lr, r2, lr
   113f8:	e2402001 	sub	r2, r0, #1
   113fc:	e08a2002 	add	r2, sl, r2
   11400:	ea000000 	b	11408 <initrd_image+0x3408>
   11404:	e5fe3001 	ldrb	r3, [lr, #1]!
   11408:	e2800001 	add	r0, r0, #1
   1140c:	e3500c01 	cmp	r0, #256	; 0x100
   11410:	e5e23001 	strb	r3, [r2, #1]!
   11414:	0affff64 	beq	111ac <initrd_image+0x31ac>
   11418:	e1500004 	cmp	r0, r4
   1141c:	1afffff8 	bne	11404 <initrd_image+0x3404>
   11420:	eaffff5f 	b	111a4 <initrd_image+0x31a4>
   11424:	e4983004 	ldr	r3, [r8], #4
   11428:	e2811001 	add	r1, r1, #1
   1142c:	e7ca3000 	strb	r3, [sl, r0]
   11430:	e2800001 	add	r0, r0, #1
   11434:	e3500c01 	cmp	r0, #256	; 0x100
   11438:	1affff59 	bne	111a4 <initrd_image+0x31a4>
   1143c:	e3a00c01 	mov	r0, #256	; 0x100
   11440:	e28dd024 	add	sp, sp, #36	; 0x24
   11444:	e8bd8ff0 	pop	{r4, r5, r6, r7, r8, r9, sl, fp, pc}
   11448:	e2888007 	add	r8, r8, #7
   1144c:	e3c88007 	bic	r8, r8, #7
   11450:	e598c004 	ldr	ip, [r8, #4]
   11454:	e3a0e011 	mov	lr, #17
   11458:	e4983008 	ldr	r3, [r8], #8
   1145c:	e2811003 	add	r1, r1, #3
   11460:	e28d401e 	add	r4, sp, #30
   11464:	ea000000 	b	1146c <initrd_image+0x346c>
   11468:	e1a0e005 	mov	lr, r5
   1146c:	e3a05000 	mov	r5, #0
   11470:	e203200f 	and	r2, r3, #15
   11474:	e352000a 	cmp	r2, #10
   11478:	e2d55000 	sbcs	r5, r5, #0
   1147c:	32822030 	addcc	r2, r2, #48	; 0x30
   11480:	22822057 	addcs	r2, r2, #87	; 0x57
   11484:	e3530010 	cmp	r3, #16
   11488:	e2dc5000 	sbcs	r5, ip, #0
   1148c:	e1a03223 	lsr	r3, r3, #4
   11490:	e1833e0c 	orr	r3, r3, ip, lsl #28
   11494:	e24e5001 	sub	r5, lr, #1
   11498:	e1a0c22c 	lsr	ip, ip, #4
   1149c:	e5642001 	strb	r2, [r4, #-1]!
   114a0:	2afffff0 	bcs	11468 <initrd_image+0x3468>
   114a4:	e59d3004 	ldr	r3, [sp, #4]
   114a8:	e240c001 	sub	ip, r0, #1
   114ac:	e2804012 	add	r4, r0, #18
   114b0:	e08ac00c 	add	ip, sl, ip
   114b4:	e044400e 	sub	r4, r4, lr
   114b8:	e083300e 	add	r3, r3, lr
   114bc:	ea000000 	b	114c4 <initrd_image+0x34c4>
   114c0:	e5f32001 	ldrb	r2, [r3, #1]!
   114c4:	e2800001 	add	r0, r0, #1
   114c8:	e3500c01 	cmp	r0, #256	; 0x100
   114cc:	e5ec2001 	strb	r2, [ip, #1]!
   114d0:	0affff35 	beq	111ac <initrd_image+0x31ac>
   114d4:	e1500004 	cmp	r0, r4
   114d8:	1afffff8 	bne	114c0 <initrd_image+0x34c0>
   114dc:	eaffff30 	b	111a4 <initrd_image+0x31a4>
   114e0:	e7ca3000 	strb	r3, [sl, r0]
   114e4:	e2800001 	add	r0, r0, #1
   114e8:	e3500c01 	cmp	r0, #256	; 0x100
   114ec:	e2811001 	add	r1, r1, #1
   114f0:	1affff2b 	bne	111a4 <initrd_image+0x31a4>
   114f4:	eaffffd0 	b	1143c <initrd_image+0x343c>
   114f8:	e04cc007 	sub	ip, ip, r7
   114fc:	e35c0000 	cmp	ip, #0
   11500:	daffffb9 	ble	113ec <initrd_image+0x33ec>
   11504:	e35000ff 	cmp	r0, #255	; 0xff
   11508:	e7cab000 	strb	fp, [sl, r0]
   1150c:	e08a5000 	add	r5, sl, r0
   11510:	e2802001 	add	r2, r0, #1
   11514:	0a000007 	beq	11538 <initrd_image+0x3538>
   11518:	e08c0000 	add	r0, ip, r0
   1151c:	e1a0c005 	mov	ip, r5
   11520:	e1520000 	cmp	r2, r0
   11524:	e2822001 	add	r2, r2, #1
   11528:	0affffaf 	beq	113ec <initrd_image+0x33ec>
   1152c:	e3520c01 	cmp	r2, #256	; 0x100
   11530:	e5ecb001 	strb	fp, [ip, #1]!
   11534:	1afffff9 	bne	11520 <initrd_image+0x3520>
   11538:	e3a00c01 	mov	r0, #256	; 0x100
   1153c:	eaffffaa 	b	113ec <initrd_image+0x33ec>
   11540:	e1a00003 	mov	r0, r3
   11544:	e12fff1e 	bx	lr
   11548:	cccccccd 	stclgt	12, cr12, [ip], {205}	; 0xcd
   1154c:	e92d000f 	push	{r0, r1, r2, r3}
   11550:	e92d4030 	push	{r4, r5, lr}
   11554:	e24ddf43 	sub	sp, sp, #268	; 0x10c
   11558:	e28d5008 	add	r5, sp, #8
   1155c:	e28d2f47 	add	r2, sp, #284	; 0x11c
   11560:	e59d1118 	ldr	r1, [sp, #280]	; 0x118
   11564:	e1a00005 	mov	r0, r5
   11568:	e58d2004 	str	r2, [sp, #4]
   1156c:	ebfffefb 	bl	11160 <initrd_image+0x3160>
   11570:	e1a04000 	mov	r4, r0
   11574:	e1a01005 	mov	r1, r5
   11578:	e1a02004 	mov	r2, r4
   1157c:	e3a00001 	mov	r0, #1
   11580:	eb00001c 	bl	115f8 <initrd_image+0x35f8>
   11584:	e1a00004 	mov	r0, r4
   11588:	e28ddf43 	add	sp, sp, #268	; 0x10c
   1158c:	e8bd4030 	pop	{r4, r5, lr}
   11590:	e28dd010 	add	sp, sp, #16
   11594:	e12fff1e 	bx	lr
   11598:	e92d000e 	push	{r1, r2, r3}
   1159c:	e92d4010 	push	{r4, lr}
   115a0:	e24dd00c 	sub	sp, sp, #12
   115a4:	e28d2018 	add	r2, sp, #24
   115a8:	e59d1014 	ldr	r1, [sp, #20]
   115ac:	e1a04000 	mov	r4, r0
   115b0:	e58d2004 	str	r2, [sp, #4]
   115b4:	ebfffee9 	bl	11160 <initrd_image+0x3160>
   115b8:	e3a02000 	mov	r2, #0
   115bc:	e7c42000 	strb	r2, [r4, r0]
   115c0:	e28dd00c 	add	sp, sp, #12
   115c4:	e8bd4010 	pop	{r4, lr}
   115c8:	e28dd00c 	add	sp, sp, #12
   115cc:	e12fff1e 	bx	lr
   115d0:	e52d7004 	push	{r7}		; (str r7, [sp, #-4]!)
   115d4:	e3a07001 	mov	r7, #1
   115d8:	ef000000 	svc	0x00000000
   115dc:	e49d7004 	pop	{r7}		; (ldr r7, [sp], #4)
   115e0:	e12fff1e 	bx	lr
   115e4:	e52d7004 	push	{r7}		; (str r7, [sp, #-4]!)
   115e8:	e3a07003 	mov	r7, #3
   115ec:	ef000000 	svc	0x00000000
   115f0:	e49d7004 	pop	{r7}		; (ldr r7, [sp], #4)
   115f4:	e12fff1e 	bx	lr
   115f8:	e52d7004 	push	{r7}		; (str r7, [sp, #-4]!)
   115fc:	e3a07004 	mov	r7, #4
   11600:	ef000000 	svc	0x00000000
   11604:	e49d7004 	pop	{r7}		; (ldr r7, [sp], #4)
   11608:	e12fff1e 	bx	lr
   1160c:	e52d7004 	push	{r7}		; (str r7, [sp, #-4]!)
   11610:	e3a07005 	mov	r7, #5
   11614:	ef000000 	svc	0x00000000
   11618:	e49d7004 	pop	{r7}		; (ldr r7, [sp], #4)
   1161c:	e12fff1e 	bx	lr
   11620:	e52d7004 	push	{r7}		; (str r7, [sp, #-4]!)
   11624:	e3a07006 	mov	r7, #6
   11628:	ef000000 	svc	0x00000000
   1162c:	e49d7004 	pop	{r7}		; (ldr r7, [sp], #4)
   11630:	e12fff1e 	bx	lr
   11634:	e52d7004 	push	{r7}		; (str r7, [sp, #-4]!)
   11638:	e3a07007 	mov	r7, #7
   1163c:	ef000000 	svc	0x00000000
   11640:	e49d7004 	pop	{r7}		; (ldr r7, [sp], #4)
   11644:	e12fff1e 	bx	lr
   11648:	e52d7004 	push	{r7}		; (str r7, [sp, #-4]!)
   1164c:	e3a0700b 	mov	r7, #11
   11650:	ef000000 	svc	0x00000000
   11654:	e49d7004 	pop	{r7}		; (ldr r7, [sp], #4)
   11658:	e12fff1e 	bx	lr
   1165c:	e52d7004 	push	{r7}		; (str r7, [sp, #-4]!)
   11660:	e3a0700c 	mov	r7, #12
   11664:	ef000000 	svc	0x00000000
   11668:	e49d7004 	pop	{r7}		; (ldr r7, [sp], #4)
   1166c:	e12fff1e 	bx	lr
   11670:	e52d7004 	push	{r7}		; (str r7, [sp, #-4]!)
   11674:	e3a070b7 	mov	r7, #183	; 0xb7
   11678:	ef000000 	svc	0x00000000
   1167c:	e49d7004 	pop	{r7}		; (ldr r7, [sp], #4)
   11680:	e12fff1e 	bx	lr
   11684:	e52d7004 	push	{r7}		; (str r7, [sp, #-4]!)
   11688:	e3a07014 	mov	r7, #20
   1168c:	ef000000 	svc	0x00000000
   11690:	e49d7004 	pop	{r7}		; (ldr r7, [sp], #4)
   11694:	e12fff1e 	bx	lr
   11698:	e52d7004 	push	{r7}		; (str r7, [sp, #-4]!)
   1169c:	e3a0702b 	mov	r7, #43	; 0x2b
   116a0:	ef000000 	svc	0x00000000
   116a4:	e49d7004 	pop	{r7}		; (ldr r7, [sp], #4)
   116a8:	e12fff1e 	bx	lr
   116ac:	e52d7004 	push	{r7}		; (str r7, [sp, #-4]!)
   116b0:	e3a0706a 	mov	r7, #106	; 0x6a
   116b4:	ef000000 	svc	0x00000000
   116b8:	e49d7004 	pop	{r7}		; (ldr r7, [sp], #4)
   116bc:	e12fff1e 	bx	lr
   116c0:	e52d7004 	push	{r7}		; (str r7, [sp, #-4]!)
   116c4:	e3a07074 	mov	r7, #116	; 0x74
   116c8:	ef000000 	svc	0x00000000
   116cc:	e49d7004 	pop	{r7}		; (ldr r7, [sp], #4)
   116d0:	e12fff1e 	bx	lr
   116d4:	e52d7004 	push	{r7}		; (str r7, [sp, #-4]!)
   116d8:	e3a0707a 	mov	r7, #122	; 0x7a
   116dc:	ef000000 	svc	0x00000000
   116e0:	e49d7004 	pop	{r7}		; (ldr r7, [sp], #4)
   116e4:	e12fff1e 	bx	lr
   116e8:	e52d7004 	push	{r7}		; (str r7, [sp, #-4]!)
   116ec:	e3a0708d 	mov	r7, #141	; 0x8d
   116f0:	ef000000 	svc	0x00000000
   116f4:	e49d7004 	pop	{r7}		; (ldr r7, [sp], #4)
   116f8:	e12fff1e 	bx	lr
   116fc:	e52d7004 	push	{r7}		; (str r7, [sp, #-4]!)
   11700:	e3a070a2 	mov	r7, #162	; 0xa2
   11704:	ef000000 	svc	0x00000000
   11708:	e49d7004 	pop	{r7}		; (ldr r7, [sp], #4)
   1170c:	e12fff1e 	bx	lr
   11710:	e52d7004 	push	{r7}		; (str r7, [sp, #-4]!)
   11714:	e3a070be 	mov	r7, #190	; 0xbe
   11718:	ef000000 	svc	0x00000000
   1171c:	e49d7004 	pop	{r7}		; (ldr r7, [sp], #4)
   11720:	e12fff1e 	bx	lr
   11724:	e52d7004 	push	{r7}		; (str r7, [sp, #-4]!)
   11728:	e3a07036 	mov	r7, #54	; 0x36
   1172c:	ef000000 	svc	0x00000000
   11730:	e49d7004 	pop	{r7}		; (ldr r7, [sp], #4)
   11734:	e12fff1e 	bx	lr
   11738:	e52d7004 	push	{r7}		; (str r7, [sp, #-4]!)
   1173c:	e3a07036 	mov	r7, #54	; 0x36
   11740:	ef000000 	svc	0x00000000
   11744:	e49d7004 	pop	{r7}		; (ldr r7, [sp], #4)
   11748:	e12fff1e 	bx	lr
   1174c:	e52d7004 	push	{r7}		; (str r7, [sp, #-4]!)
   11750:	e3a0700d 	mov	r7, #13
   11754:	ef000000 	svc	0x00000000
   11758:	e49d7004 	pop	{r7}		; (ldr r7, [sp], #4)
   1175c:	e12fff1e 	bx	lr
   11760:	e52d7004 	push	{r7}		; (str r7, [sp, #-4]!)
   11764:	e3a07058 	mov	r7, #88	; 0x58
   11768:	ef000000 	svc	0x00000000
   1176c:	e49d7004 	pop	{r7}		; (ldr r7, [sp], #4)
   11770:	e12fff1e 	bx	lr
   11774:	e59f0018 	ldr	r0, [pc, #24]	; 11794 <initrd_image+0x3794>
   11778:	e92d4010 	push	{r4, lr}
   1177c:	e08f0000 	add	r0, pc, r0
   11780:	ebffff71 	bl	1154c <initrd_image+0x354c>
   11784:	e3a00005 	mov	r0, #5
   11788:	ebffff90 	bl	115d0 <initrd_image+0x35d0>
   1178c:	e3a00000 	mov	r0, #0
   11790:	e8bd8010 	pop	{r4, pc}
   11794:	000009cc 	andeq	r0, r0, ip, asr #19
	...
   12150:	6c6c6548 	cfstr64vs	mvdx6, [ip], #-288	; 0xfffffee0
   12154:	6f57206f 	svcvs	0x0057206f
   12158:	21646c72 	smccs	18114	; 0x46c2
   1215c:	0000000a 	andeq	r0, r0, sl
   12160:	2aa90000 	bcs	fea52168 <__bss_end+0xfea19168>
   12164:	00000000 	andeq	r0, r0, r0
   12168:	a0670000 	rsbge	r0, r7, r0
   1216c:	36ef9293 	usatcc	r9, #15, r3, lsl #5
   12170:	00006c6c 	andeq	r6, r0, ip, ror #24
	...
   12180:	e59fb00c 	ldr	fp, [pc, #12]	; 12194 <initrd_image+0x4194>
   12184:	e08bb00f 	add	fp, fp, pc
   12188:	e59fc008 	ldr	ip, [pc, #8]	; 12198 <initrd_image+0x4198>
   1218c:	e08cc00f 	add	ip, ip, pc
   12190:	ea000003 	b	121a4 <initrd_image+0x41a4>
   12194:	0000110f 	andeq	r1, r0, pc, lsl #2
   12198:	0000116c 	andeq	r1, r0, ip, ror #2
   1219c:	00001620 	andeq	r1, r0, r0, lsr #12
   121a0:	fffffee5 			; <UNDEFINED> instruction: 0xfffffee5
   121a4:	e51f1010 	ldr	r1, [pc, #-16]	; 1219c <initrd_image+0x419c>
   121a8:	e08c1001 	add	r1, ip, r1
   121ac:	e51f3014 	ldr	r3, [pc, #-20]	; 121a0 <initrd_image+0x41a0>
   121b0:	e08b3003 	add	r3, fp, r3
   121b4:	e28b8000 	add	r8, fp, #0
   121b8:	e28c9e1e 	add	r9, ip, #480	; 0x1e0
   121bc:	e3a02d0f 	mov	r2, #960	; 0x3c0
   121c0:	e58c1000 	str	r1, [ip]
   121c4:	e4d34001 	ldrb	r4, [r3], #1
   121c8:	e3845902 	orr	r5, r4, #32768	; 0x8000
   121cc:	e1530008 	cmp	r3, r8
   121d0:	aa000016 	bge	12230 <initrd_image+0x4230>
   121d4:	e1b050a5 	lsrs	r5, r5, #1
   121d8:	24d34001 	ldrbcs	r4, [r3], #1
   121dc:	23a06001 	movcs	r6, #1
   121e0:	2a000008 	bcs	12208 <initrd_image+0x4208>
   121e4:	e4d30001 	ldrb	r0, [r3], #1
   121e8:	e4d37001 	ldrb	r7, [r3], #1
   121ec:	e1807407 	orr	r7, r0, r7, lsl #8
   121f0:	e3a00003 	mov	r0, #3
   121f4:	e0806527 	add	r6, r0, r7, lsr #10
   121f8:	e1a07b07 	lsl	r7, r7, #22
   121fc:	e1a07b27 	lsr	r7, r7, #22
   12200:	e7d94007 	ldrb	r4, [r9, r7]
   12204:	e2877001 	add	r7, r7, #1
   12208:	e4c14001 	strb	r4, [r1], #1
   1220c:	e7c94002 	strb	r4, [r9, r2]
   12210:	e2822001 	add	r2, r2, #1
   12214:	e1a02b02 	lsl	r2, r2, #22
   12218:	e1a02b22 	lsr	r2, r2, #22
   1221c:	e2566001 	subs	r6, r6, #1
   12220:	1afffff4 	bne	121f8 <initrd_image+0x41f8>
   12224:	e35500ff 	cmp	r5, #255	; 0xff
   12228:	caffffe7 	bgt	121cc <initrd_image+0x41cc>
   1222c:	eaffffe4 	b	121c4 <initrd_image+0x41c4>
   12230:	e59c1000 	ldr	r1, [ip]
   12234:	eb00006e 	bl	123f4 <initrd_image+0x43f4>
   12238:	e28c0050 	add	r0, ip, #80	; 0x50
   1223c:	e3a0707a 	mov	r7, #122	; 0x7a
   12240:	ef000000 	svc	0x00000000
   12244:	e28c1050 	add	r1, ip, #80	; 0x50
   12248:	e59ca000 	ldr	sl, [ip]
   1224c:	eb000053 	bl	123a0 <initrd_image+0x43a0>
   12250:	e28b1000 	add	r1, fp, #0
   12254:	eb000051 	bl	123a0 <initrd_image+0x43a0>
   12258:	e28c10d2 	add	r1, ip, #210	; 0xd2
   1225c:	eb00004f 	bl	123a0 <initrd_image+0x43a0>
   12260:	e28b100a 	add	r1, fp, #10
   12264:	eb00004d 	bl	123a0 <initrd_image+0x43a0>
   12268:	e28c1050 	add	r1, ip, #80	; 0x50
   1226c:	e28110c3 	add	r1, r1, #195	; 0xc3
   12270:	eb00004a 	bl	123a0 <initrd_image+0x43a0>
   12274:	e3a0300a 	mov	r3, #10
   12278:	e4ca3001 	strb	r3, [sl], #1
   1227c:	e4ca0001 	strb	r0, [sl], #1
   12280:	eb00004c 	bl	123b8 <initrd_image+0x43b8>
   12284:	e59ca000 	ldr	sl, [ip]
   12288:	e28b0048 	add	r0, fp, #72	; 0x48
   1228c:	e3a01000 	mov	r1, #0
   12290:	e3a07005 	mov	r7, #5
   12294:	ef000000 	svc	0x00000000
   12298:	e1a05000 	mov	r5, r0
   1229c:	e28c1e62 	add	r1, ip, #1568	; 0x620
   122a0:	e3a02a01 	mov	r2, #4096	; 0x1000
   122a4:	e3a07003 	mov	r7, #3
   122a8:	ef000000 	svc	0x00000000
   122ac:	e1a00005 	mov	r0, r5
   122b0:	e3a07006 	mov	r7, #6
   122b4:	ef000000 	svc	0x00000000
   122b8:	e28b1056 	add	r1, fp, #86	; 0x56
   122bc:	eb000037 	bl	123a0 <initrd_image+0x43a0>
   122c0:	e3a00061 	mov	r0, #97	; 0x61
   122c4:	e3a01072 	mov	r1, #114	; 0x72
   122c8:	e3a02065 	mov	r2, #101	; 0x65
   122cc:	e3a0300a 	mov	r3, #10
   122d0:	eb00001c 	bl	12348 <initrd_image+0x4348>
   122d4:	e28b1016 	add	r1, fp, #22
   122d8:	eb000030 	bl	123a0 <initrd_image+0x43a0>
   122dc:	e28c0010 	add	r0, ip, #16
   122e0:	e3a07074 	mov	r7, #116	; 0x74
   122e4:	ef000000 	svc	0x00000000
   122e8:	e59c3020 	ldr	r3, [ip, #32]
   122ec:	e1b03a23 	lsrs	r3, r3, #20
   122f0:	e2a33000 	adc	r3, r3, #0
   122f4:	e3a00001 	mov	r0, #1
   122f8:	eb000046 	bl	12418 <initrd_image+0x4418>
   122fc:	e28b1023 	add	r1, fp, #35	; 0x23
   12300:	eb000026 	bl	123a0 <initrd_image+0x43a0>
   12304:	e3a00049 	mov	r0, #73	; 0x49
   12308:	e3a01050 	mov	r1, #80	; 0x50
   1230c:	e3a02053 	mov	r2, #83	; 0x53
   12310:	e3a0300a 	mov	r3, #10
   12314:	eb00000b 	bl	12348 <initrd_image+0x4348>
   12318:	e28b102b 	add	r1, fp, #43	; 0x2b
   1231c:	eb00001f 	bl	123a0 <initrd_image+0x43a0>
   12320:	eb000024 	bl	123b8 <initrd_image+0x43b8>
   12324:	e59ca000 	ldr	sl, [ip]
   12328:	e28c1091 	add	r1, ip, #145	; 0x91
   1232c:	eb00001b 	bl	123a0 <initrd_image+0x43a0>
   12330:	eb000020 	bl	123b8 <initrd_image+0x43b8>
   12334:	e28b103c 	add	r1, fp, #60	; 0x3c
   12338:	eb00002d 	bl	123f4 <initrd_image+0x43f4>
   1233c:	e3a00000 	mov	r0, #0
   12340:	e3a07001 	mov	r7, #1
   12344:	ef000000 	svc	0x00000000
   12348:	e28c7e62 	add	r7, ip, #1568	; 0x620
   1234c:	e4d75001 	ldrb	r5, [r7], #1
   12350:	e1550000 	cmp	r5, r0
   12354:	e5d75000 	ldrb	r5, [r7]
   12358:	01550001 	cmpeq	r5, r1
   1235c:	e5d75001 	ldrb	r5, [r7, #1]
   12360:	01550002 	cmpeq	r5, r2
   12364:	0a000002 	beq	12374 <initrd_image+0x4374>
   12368:	e3550000 	cmp	r5, #0
   1236c:	0a00000a 	beq	1239c <initrd_image+0x439c>
   12370:	eafffff5 	b	1234c <initrd_image+0x434c>
   12374:	e4d75001 	ldrb	r5, [r7], #1
   12378:	e355003a 	cmp	r5, #58	; 0x3a
   1237c:	1afffffc 	bne	12374 <initrd_image+0x4374>
   12380:	e2877001 	add	r7, r7, #1
   12384:	e4d75001 	ldrb	r5, [r7], #1
   12388:	e4ca5001 	strb	r5, [sl], #1
   1238c:	e1550003 	cmp	r5, r3
   12390:	1afffffb 	bne	12384 <initrd_image+0x4384>
   12394:	e3a00000 	mov	r0, #0
   12398:	e44a0001 	strb	r0, [sl], #-1
   1239c:	e1a0f00e 	mov	pc, lr
   123a0:	e4d13001 	ldrb	r3, [r1], #1
   123a4:	e4ca3001 	strb	r3, [sl], #1
   123a8:	e3530000 	cmp	r3, #0
   123ac:	1afffffb 	bne	123a0 <initrd_image+0x43a0>
   123b0:	e24aa001 	sub	sl, sl, #1
   123b4:	e1a0f00e 	mov	pc, lr
   123b8:	e92d4000 	stmfd	sp!, {lr}
   123bc:	e28b1043 	add	r1, fp, #67	; 0x43
   123c0:	eb00000b 	bl	123f4 <initrd_image+0x43f4>
   123c4:	e59c2000 	ldr	r2, [ip]
   123c8:	e04a2002 	sub	r2, sl, r2
   123cc:	e2622051 	rsb	r2, r2, #81	; 0x51
   123d0:	1a000005 	bne	123ec <initrd_image+0x43ec>
   123d4:	e1b030a2 	lsrs	r3, r2, #1
   123d8:	e2a33000 	adc	r3, r3, #0
   123dc:	e3a00000 	mov	r0, #0
   123e0:	eb00000c 	bl	12418 <initrd_image+0x4418>
   123e4:	e28b1046 	add	r1, fp, #70	; 0x46
   123e8:	eb000001 	bl	123f4 <initrd_image+0x43f4>
   123ec:	e59c1000 	ldr	r1, [ip]
   123f0:	e8bd4000 	ldmfd	sp!, {lr}
   123f4:	e3a02000 	mov	r2, #0
   123f8:	e2822001 	add	r2, r2, #1
   123fc:	e7d13002 	ldrb	r3, [r1, r2]
   12400:	e3530000 	cmp	r3, #0
   12404:	1afffffb 	bne	123f8 <initrd_image+0x43f8>
   12408:	e3a00001 	mov	r0, #1
   1240c:	e3a07004 	mov	r7, #4
   12410:	ef000000 	svc	0x00000000
   12414:	e1a0f00e 	mov	pc, lr
   12418:	e92d4400 	push	{sl, lr}
   1241c:	e28ca004 	add	sl, ip, #4
   12420:	e28aa00a 	add	sl, sl, #10
   12424:	e59f4034 	ldr	r4, [pc, #52]	; 12460 <initrd_image+0x4460>
   12428:	e0435f23 	sub	r5, r3, r3, lsr #30
   1242c:	e0878594 	umull	r8, r7, r4, r5
   12430:	e3a0400a 	mov	r4, #10
   12434:	e0080497 	mul	r8, r7, r4
   12438:	e0438008 	sub	r8, r3, r8
   1243c:	e2888030 	add	r8, r8, #48	; 0x30
   12440:	e44a8001 	strb	r8, [sl], #-1
   12444:	e2973000 	adds	r3, r7, #0
   12448:	1afffff5 	bne	12424 <initrd_image+0x4424>
   1244c:	e28a1001 	add	r1, sl, #1
   12450:	e8bd4400 	pop	{sl, lr}
   12454:	e3500000 	cmp	r0, #0
   12458:	1affffd0 	bne	123a0 <initrd_image+0x43a0>
   1245c:	eaffffe4 	b	123f4 <initrd_image+0x43f4>
   12460:	1999999a 	ldmibne	r9, {r1, r3, r4, r7, r8, fp, ip, pc}
	...
   13180:	305b1bff 	ldrshcc	r1, [fp], #-191	; 0xffffff41
   13184:	333b313b 	teqcc	fp, #-1073741810	; 0xc000000e
   13188:	343b9f37 	ldrtcc	r9, [fp], #-3895	; 0xfffff0c9
   1318c:	cc236d37 	stcgt	13, cr6, [r3], #-220	; 0xffffff24
   13190:	3307c0f7 	movwcc	ip, #28919	; 0x70f7
   13194:	1bc8308d 	blne	ff21f3d0 <__bss_end+0xff1e63d0>
   13198:	07c45b1b 	bfieq	r5, fp, (invalid: 22:4)
   1319c:	0c1c1fcb 	ldceq	15, cr1, [ip], {203}	; 0xcb
   131a0:	30340f3b 	eorscc	r0, r4, fp, lsr pc
   131a4:	f7c00a6d 			; <UNDEFINED> instruction: 0xf7c00a6d
   131a8:	381a6001 	ldmdacc	sl, {r0, sp, lr}
   131ac:	1b1f9c2c 	blne	7fa264 <__bss_end+0x7c1264>
   131b0:	6d31335b 	ldcvs	3, cr3, [r1, #-364]!	; 0xfffffe94
   131b4:	ac4104cc 	cfstrdge	mvd0, [r1], {204}	; 0xcc
   131b8:	1c02240d 	cfstrsne	mvf2, [r2], {13}
   131bc:	200d4f10 	andcs	r4, sp, r0, lsl pc
   131c0:	98934110 	ldmls	r3, {r4, r8, lr}
   131c4:	341c3483 	ldrcc	r3, [ip], #-1155	; 0xfffffb7d
   131c8:	0c1010cc 	ldceq	0, cr1, [r0], {204}	; 0xcc
   131cc:	ec396f24 	ldc	15, cr6, [r9], #-144	; 0xffffff70
   131d0:	33081ca7 	movwcc	r1, #36007	; 0x8ca7
   131d4:	55891416 	strpl	r1, [r9, #1046]	; 0x416
   131d8:	2b00602c 	blcs	2b290 <memory_map+0x2b1c>
   131dc:	e271d661 	rsbs	sp, r1, #101711872	; 0x6100000
   131e0:	d408cbc8 	strle	ip, [r8], #-3016	; 0xfffff438
   131e4:	2b10d309 	blcs	447e10 <__bss_end+0x40ee10>
   131e8:	00d1f559 	sbcseq	pc, r1, r9, asr r5	; <UNPREDICTABLE>
   131ec:	18d21180 	ldmne	r2, {r7, r8, ip}^
   131f0:	141c280d 	ldrne	r2, [ip], #-2061	; 0xfffff7f3
   131f4:	1c1c2c0d 	ldcne	12, cr2, [ip], {13}
   131f8:	5b1a4af0 	blpl	6a5dc0 <__bss_end+0x66cdc0>
   131fc:	5f500d00 	svcpl	0x00500d00
   13200:	2b658765 	blcs	1974f9c <__bss_end+0x193bf9c>
   13204:	cdcdf555 	cfstr64gt	mvdx15, [sp, #340]	; 0x154
   13208:	8914cd28 	ldmdbhi	r4, {r3, r5, r8, sl, fp, lr, pc}
   1320c:	871d0041 	ldrhi	r0, [sp, -r1, asr #32]
   13210:	53724b42 	cmnpl	r2, #67584	; 0x10800
   13214:	620f781c 	andvs	r7, pc, #28, 16	; 0x1c0000
   13218:	58556d87 	ldmdapl	r5, {r0, r1, r2, r7, r8, sl, fp, sp, lr}^
   1321c:	e800c1f7 	stmda	r0, {r0, r1, r2, r4, r5, r6, r7, r8, lr, pc}
   13220:	4997f42b 	ldmibmi	r7, {r0, r1, r3, r5, sl, ip, sp, lr, pc}
   13224:	1bb03d78 	blne	fec2280c <__bss_end+0xfebe980c>
   13228:	12b0975f 	adcsne	r9, r0, #24903680	; 0x17c0000
   1322c:	10caab2b 	sbcne	sl, sl, fp, lsr #22
   13230:	f51a16df 			; <UNDEFINED> instruction: 0xf51a16df
   13234:	3fd9f55a 	svccc	0x00d9f55a
   13238:	92561b33 	subsls	r1, r6, #52224	; 0xcc00
   1323c:	0002b05b 	andeq	fp, r2, fp, asr r0
   13240:	c8d31d0c 	ldmgt	r3, {r2, r3, r8, sl, fp, ip}^
   13244:	661739ac 	ldrvs	r3, [r7], -ip, lsr #19
   13248:	6d6ef632 	stclvs	6, cr15, [lr, #-200]!	; 0xffffff38
   1324c:	5e6044ec 	cdppl	4, 6, cr4, cr0, cr12, {7}
   13250:	a60aaf08 	strge	sl, [sl], -r8, lsl #30
   13254:	30011469 	andcc	r1, r1, r9, ror #8
   13258:	1fde0b33 	svcne	0x00de0b33
   1325c:	bcd30f31 	ldcllt	15, cr0, [r3], {49}	; 0x31
   13260:	194faf00 	stmdbne	pc, {r8, r9, sl, fp, sp, pc}^	; <UNPREDICTABLE>
   13264:	5245aa56 	subpl	sl, r5, #352256	; 0x56000
   13268:	465228db 			; <UNDEFINED> instruction: 0x465228db
   1326c:	db53087f 	blle	14d5470 <__bss_end+0x149c470>
   13270:	55a90023 	strpl	r0, [r9, #35]!	; 0x23
   13274:	211835aa 	tstcs	r8, sl, lsr #11
   13278:	2a916812 	bcs	fe46d2c8 <__bss_end+0xfe4342c8>
   1327c:	68b222c8 	ldmvs	r2!, {r3, r6, r7, r9, sp}
   13280:	c6002d70 			; <UNDEFINED> instruction: 0xc6002d70
   13284:	9179b250 	cmnls	r9, r0, asr r2
   13288:	f831704a 			; <UNDEFINED> instruction: 0xf831704a
   1328c:	dd28f351 	stcle	3, cr15, [r8, #-324]!	; 0xfffffebc
   13290:	0817ff17 	ldmdaeq	r7, {r0, r1, r2, r4, r8, r9, sl, fp, ip, sp, lr, pc}
   13294:	24033602 	strcs	r3, [r3], #-1538	; 0xfffff9fe
   13298:	200a42e5 	andcs	r4, sl, r5, ror #5
   1329c:	73726556 	cmnvc	r2, #360710144	; 0x15800000
   132a0:	206e6f69 	rsbcs	r6, lr, r9, ror #30
   132a4:	43202c00 	nopmi	{0}	; <UNPREDICTABLE>
   132a8:	69706d6f 	ldmdbvs	r0!, {r0, r1, r2, r3, r5, r6, r8, sl, fp, sp, lr}^
   132ac:	2064656c 	rsbcs	r6, r4, ip, ror #10
   132b0:	72502000 	subsvc	r2, r0, #0
   132b4:	7365636f 	cmnvc	r5, #-1140850687	; 0xbc000001
   132b8:	2c726f73 	ldclcs	15, cr6, [r2], #-460	; 0xfffffe34
   132bc:	204d0020 	subcs	r0, sp, r0, lsr #32
   132c0:	2c4d4152 	stfcse	f4, [sp], {82}	; 0x52
   132c4:	42200020 	eormi	r0, r0, #32
   132c8:	6d6f676f 	stclvs	7, cr6, [pc, #-444]!	; 13114 <initrd_image+0x5114>
   132cc:	20737069 	rsbscs	r7, r3, r9, rrx
   132d0:	61746f54 	cmnvs	r4, r4, asr pc
   132d4:	1b000a6c 	blne	15c8c <initrd_image+0x7c8c>
   132d8:	0a6d305b 	beq	1b5f44c <__bss_end+0x1b2644c>
   132dc:	5b1b000a 	blpl	6d330c <__bss_end+0x69a30c>
   132e0:	2f004300 	svccs	0x00004300
   132e4:	636f7270 	cmnvs	pc, #112, 4
   132e8:	7570632f 	ldrbvc	r6, [r0, #-815]!	; 0xfffffcd1
   132ec:	6f666e69 	svcvs	0x00666e69
   132f0:	656e4f00 	strbvs	r4, [lr, #-3840]!	; 0xfffff100
   132f4:	00000020 	andeq	r0, r0, r0, lsr #32
	...
   18920:	aada0000 	bge	ff698928 <__bss_end+0xff65f928>
   18924:	00000000 	andeq	r0, r0, r0
   18928:	5c310000 	ldcpl	0, cr0, [r1], #-0
   1892c:	faf38b93 	blx	ffcfb780 <__bss_end+0xffcc2780>
   18930:	0000736c 	andeq	r7, r0, ip, ror #6
	...
   18940:	e92d4010 	push	{r4, lr}
   18944:	eb00047b 	bl	19b38 <initrd_image+0xbb38>
   18948:	e8bd4010 	pop	{r4, lr}
   1894c:	ea000410 	b	19994 <initrd_image+0xb994>
   18950:	e2003a0f 	and	r3, r0, #61440	; 0xf000
   18954:	e3530901 	cmp	r3, #16384	; 0x4000
   18958:	e1a02001 	mov	r2, r1
   1895c:	0a00000b 	beq	18990 <initrd_image+0xa990>
   18960:	e3100001 	tst	r0, #1
   18964:	0a000006 	beq	18984 <initrd_image+0xa984>
   18968:	e59f303c 	ldr	r3, [pc, #60]	; 189ac <initrd_image+0xa9ac>
   1896c:	e59f103c 	ldr	r1, [pc, #60]	; 189b0 <initrd_image+0xa9b0>
   18970:	e59f003c 	ldr	r0, [pc, #60]	; 189b4 <initrd_image+0xa9b4>
   18974:	e08f3003 	add	r3, pc, r3
   18978:	e08f1001 	add	r1, pc, r1
   1897c:	e08f0000 	add	r0, pc, r0
   18980:	ea000390 	b	197c8 <initrd_image+0xb7c8>
   18984:	e59f002c 	ldr	r0, [pc, #44]	; 189b8 <initrd_image+0xa9b8>
   18988:	e08f0000 	add	r0, pc, r0
   1898c:	ea00038d 	b	197c8 <initrd_image+0xb7c8>
   18990:	e59f3024 	ldr	r3, [pc, #36]	; 189bc <initrd_image+0xa9bc>
   18994:	e59f1024 	ldr	r1, [pc, #36]	; 189c0 <initrd_image+0xa9c0>
   18998:	e59f0024 	ldr	r0, [pc, #36]	; 189c4 <initrd_image+0xa9c4>
   1899c:	e08f3003 	add	r3, pc, r3
   189a0:	e08f1001 	add	r1, pc, r1
   189a4:	e08f0000 	add	r0, pc, r0
   189a8:	ea000386 	b	197c8 <initrd_image+0xb7c8>
   189ac:	00002024 	andeq	r2, r0, r4, lsr #32
   189b0:	00002038 	andeq	r2, r0, r8, lsr r0
   189b4:	0000202c 	andeq	r2, r0, ip, lsr #32
   189b8:	00002024 	andeq	r2, r0, r4, lsr #32
   189bc:	00001ffc 	strdeq	r1, [r0], -ip
   189c0:	00002000 	andeq	r2, r0, r0
   189c4:	00002004 	andeq	r2, r0, r4
   189c8:	e92d4ff0 	push	{r4, r5, r6, r7, r8, r9, sl, fp, lr}
   189cc:	e24dde45 	sub	sp, sp, #1104	; 0x450
   189d0:	e24dd004 	sub	sp, sp, #4
   189d4:	e28d301c 	add	r3, sp, #28
   189d8:	e1a01003 	mov	r1, r3
   189dc:	e58d3004 	str	r3, [sp, #4]
   189e0:	e59f325c 	ldr	r3, [pc, #604]	; 18c44 <initrd_image+0xac44>
   189e4:	e1a04000 	mov	r4, r0
   189e8:	e08f3003 	add	r3, pc, r3
   189ec:	e58d3014 	str	r3, [sp, #20]
   189f0:	eb00041e 	bl	19a70 <initrd_image+0xba70>
   189f4:	e3500000 	cmp	r0, #0
   189f8:	ba00008c 	blt	18c30 <initrd_image+0xac30>
   189fc:	e59d0024 	ldr	r0, [sp, #36]	; 0x24
   18a00:	e2003a0f 	and	r3, r0, #61440	; 0xf000
   18a04:	e3530901 	cmp	r3, #16384	; 0x4000
   18a08:	1a00001e 	bne	18a88 <initrd_image+0xaa88>
   18a0c:	e3a02000 	mov	r2, #0
   18a10:	e1a00004 	mov	r0, r4
   18a14:	e1a01002 	mov	r1, r2
   18a18:	eb0003ec 	bl	199d0 <initrd_image+0xb9d0>
   18a1c:	e2505000 	subs	r5, r0, #0
   18a20:	ba000078 	blt	18c08 <initrd_image+0xac08>
   18a24:	e3a07000 	mov	r7, #0
   18a28:	e28da050 	add	sl, sp, #80	; 0x50
   18a2c:	e3a02b01 	mov	r2, #1024	; 0x400
   18a30:	e1a0100a 	mov	r1, sl
   18a34:	e1a00005 	mov	r0, r5
   18a38:	eb00041b 	bl	19aac <initrd_image+0xbaac>
   18a3c:	e250b000 	subs	fp, r0, #0
   18a40:	ba000018 	blt	18aa8 <initrd_image+0xaaa8>
   18a44:	0a000020 	beq	18acc <initrd_image+0xaacc>
   18a48:	e3a06000 	mov	r6, #0
   18a4c:	ea000003 	b	18a60 <initrd_image+0xaa60>
   18a50:	e5983008 	ldr	r3, [r8, #8]
   18a54:	e0866003 	add	r6, r6, r3
   18a58:	e15b0006 	cmp	fp, r6
   18a5c:	dafffff2 	ble	18a2c <initrd_image+0xaa2c>
   18a60:	e08a8006 	add	r8, sl, r6
   18a64:	e288900c 	add	r9, r8, #12
   18a68:	e1a00009 	mov	r0, r9
   18a6c:	eb000388 	bl	19894 <initrd_image+0xb894>
   18a70:	e1500007 	cmp	r0, r7
   18a74:	9afffff5 	bls	18a50 <initrd_image+0xaa50>
   18a78:	e1a00009 	mov	r0, r9
   18a7c:	eb000384 	bl	19894 <initrd_image+0xb894>
   18a80:	e1a07000 	mov	r7, r0
   18a84:	eafffff1 	b	18a50 <initrd_image+0xaa50>
   18a88:	e1a01004 	mov	r1, r4
   18a8c:	ebffffaf 	bl	18950 <initrd_image+0xa950>
   18a90:	e59f01b0 	ldr	r0, [pc, #432]	; 18c48 <initrd_image+0xac48>
   18a94:	e08f0000 	add	r0, pc, r0
   18a98:	eb00034a 	bl	197c8 <initrd_image+0xb7c8>
   18a9c:	e28dde45 	add	sp, sp, #1104	; 0x450
   18aa0:	e28dd004 	add	sp, sp, #4
   18aa4:	e8bd8ff0 	pop	{r4, r5, r6, r7, r8, r9, sl, fp, pc}
   18aa8:	e59d2014 	ldr	r2, [sp, #20]
   18aac:	e59f3198 	ldr	r3, [pc, #408]	; 18c4c <initrd_image+0xac4c>
   18ab0:	e7923003 	ldr	r3, [r2, r3]
   18ab4:	e5930000 	ldr	r0, [r3]
   18ab8:	eb00023a 	bl	193a8 <initrd_image+0xb3a8>
   18abc:	e1a01000 	mov	r1, r0
   18ac0:	e59f0188 	ldr	r0, [pc, #392]	; 18c50 <initrd_image+0xac50>
   18ac4:	e08f0000 	add	r0, pc, r0
   18ac8:	eb00033e 	bl	197c8 <initrd_image+0xb7c8>
   18acc:	e2871001 	add	r1, r7, #1
   18ad0:	e3a00050 	mov	r0, #80	; 0x50
   18ad4:	eb00021e 	bl	19354 <initrd_image+0xb354>
   18ad8:	e1a03000 	mov	r3, r0
   18adc:	e59f2170 	ldr	r2, [pc, #368]	; 18c54 <initrd_image+0xac54>
   18ae0:	e1a01003 	mov	r1, r3
   18ae4:	e08f2002 	add	r2, pc, r2
   18ae8:	e3a00050 	mov	r0, #80	; 0x50
   18aec:	e58d200c 	str	r2, [sp, #12]
   18af0:	e58d3008 	str	r3, [sp, #8]
   18af4:	eb000216 	bl	19354 <initrd_image+0xb354>
   18af8:	e3a09000 	mov	r9, #0
   18afc:	e1a06000 	mov	r6, r0
   18b00:	e1a00005 	mov	r0, r5
   18b04:	eb0003b6 	bl	199e4 <initrd_image+0xb9e4>
   18b08:	e1a00004 	mov	r0, r4
   18b0c:	e1a02009 	mov	r2, r9
   18b10:	e1a01009 	mov	r1, r9
   18b14:	eb0003ad 	bl	199d0 <initrd_image+0xb9d0>
   18b18:	e59f7138 	ldr	r7, [pc, #312]	; 18c58 <initrd_image+0xac58>
   18b1c:	e59db004 	ldr	fp, [sp, #4]
   18b20:	e08f7007 	add	r7, pc, r7
   18b24:	e58d0010 	str	r0, [sp, #16]
   18b28:	e3a02b01 	mov	r2, #1024	; 0x400
   18b2c:	e1a0100a 	mov	r1, sl
   18b30:	e59d0010 	ldr	r0, [sp, #16]
   18b34:	eb0003dc 	bl	19aac <initrd_image+0xbaac>
   18b38:	e2503000 	subs	r3, r0, #0
   18b3c:	e58d3004 	str	r3, [sp, #4]
   18b40:	ba000021 	blt	18bcc <initrd_image+0xabcc>
   18b44:	0a000029 	beq	18bf0 <initrd_image+0xabf0>
   18b48:	e3a08000 	mov	r8, #0
   18b4c:	e08a4008 	add	r4, sl, r8
   18b50:	e284500c 	add	r5, r4, #12
   18b54:	e1a0100b 	mov	r1, fp
   18b58:	e1a00005 	mov	r0, r5
   18b5c:	eb0003c3 	bl	19a70 <initrd_image+0xba70>
   18b60:	e1a01005 	mov	r1, r5
   18b64:	e59d0024 	ldr	r0, [sp, #36]	; 0x24
   18b68:	ebffff78 	bl	18950 <initrd_image+0xa950>
   18b6c:	e5943008 	ldr	r3, [r4, #8]
   18b70:	e2899001 	add	r9, r9, #1
   18b74:	e3a04000 	mov	r4, #0
   18b78:	e0888003 	add	r8, r8, r3
   18b7c:	ea000002 	b	18b8c <initrd_image+0xab8c>
   18b80:	e1a00007 	mov	r0, r7
   18b84:	eb00030f 	bl	197c8 <initrd_image+0xb7c8>
   18b88:	e2844001 	add	r4, r4, #1
   18b8c:	e1a00005 	mov	r0, r5
   18b90:	eb00033f 	bl	19894 <initrd_image+0xb894>
   18b94:	e0460000 	sub	r0, r6, r0
   18b98:	e1540000 	cmp	r4, r0
   18b9c:	3afffff7 	bcc	18b80 <initrd_image+0xab80>
   18ba0:	e59d3008 	ldr	r3, [sp, #8]
   18ba4:	e1530009 	cmp	r3, r9
   18ba8:	9a000003 	bls	18bbc <initrd_image+0xabbc>
   18bac:	e59d3004 	ldr	r3, [sp, #4]
   18bb0:	e1530008 	cmp	r3, r8
   18bb4:	caffffe4 	bgt	18b4c <initrd_image+0xab4c>
   18bb8:	eaffffda 	b	18b28 <initrd_image+0xab28>
   18bbc:	e59d000c 	ldr	r0, [sp, #12]
   18bc0:	eb000300 	bl	197c8 <initrd_image+0xb7c8>
   18bc4:	e3a09000 	mov	r9, #0
   18bc8:	eafffff7 	b	18bac <initrd_image+0xabac>
   18bcc:	e59d2014 	ldr	r2, [sp, #20]
   18bd0:	e59f3074 	ldr	r3, [pc, #116]	; 18c4c <initrd_image+0xac4c>
   18bd4:	e7923003 	ldr	r3, [r2, r3]
   18bd8:	e5930000 	ldr	r0, [r3]
   18bdc:	eb0001f1 	bl	193a8 <initrd_image+0xb3a8>
   18be0:	e1a01000 	mov	r1, r0
   18be4:	e59f0070 	ldr	r0, [pc, #112]	; 18c5c <initrd_image+0xac5c>
   18be8:	e08f0000 	add	r0, pc, r0
   18bec:	eb0002f5 	bl	197c8 <initrd_image+0xb7c8>
   18bf0:	e59d0010 	ldr	r0, [sp, #16]
   18bf4:	eb00037a 	bl	199e4 <initrd_image+0xb9e4>
   18bf8:	e59f0060 	ldr	r0, [pc, #96]	; 18c60 <initrd_image+0xac60>
   18bfc:	e08f0000 	add	r0, pc, r0
   18c00:	eb0002f0 	bl	197c8 <initrd_image+0xb7c8>
   18c04:	eaffffa4 	b	18a9c <initrd_image+0xaa9c>
   18c08:	e59d2014 	ldr	r2, [sp, #20]
   18c0c:	e59f3038 	ldr	r3, [pc, #56]	; 18c4c <initrd_image+0xac4c>
   18c10:	e7923003 	ldr	r3, [r2, r3]
   18c14:	e5930000 	ldr	r0, [r3]
   18c18:	eb0001e2 	bl	193a8 <initrd_image+0xb3a8>
   18c1c:	e1a01000 	mov	r1, r0
   18c20:	e59f003c 	ldr	r0, [pc, #60]	; 18c64 <initrd_image+0xac64>
   18c24:	e08f0000 	add	r0, pc, r0
   18c28:	eb0002e6 	bl	197c8 <initrd_image+0xb7c8>
   18c2c:	eaffff7c 	b	18a24 <initrd_image+0xaa24>
   18c30:	e59f0030 	ldr	r0, [pc, #48]	; 18c68 <initrd_image+0xac68>
   18c34:	e1a01004 	mov	r1, r4
   18c38:	e08f0000 	add	r0, pc, r0
   18c3c:	eb0002e1 	bl	197c8 <initrd_image+0xb7c8>
   18c40:	eaffff95 	b	18a9c <initrd_image+0xaa9c>
   18c44:	00002ffc 	strdeq	r2, [r0], -ip
   18c48:	00001f50 	andeq	r1, r0, r0, asr pc
   18c4c:	00000000 	andeq	r0, r0, r0
   18c50:	00001f24 	andeq	r1, r0, r4, lsr #30
   18c54:	00001f00 	andeq	r1, r0, r0, lsl #30
   18c58:	00001ed4 	ldrdeq	r1, [r0], -r4
   18c5c:	00001e00 	andeq	r1, r0, r0, lsl #28
   18c60:	00001de8 	andeq	r1, r0, r8, ror #27
   18c64:	00001dc4 	andeq	r1, r0, r4, asr #27
   18c68:	00001d80 	andeq	r1, r0, r0, lsl #27
   18c6c:	e92d4ff0 	push	{r4, r5, r6, r7, r8, r9, sl, fp, lr}
   18c70:	e24dd0bc 	sub	sp, sp, #188	; 0xbc
   18c74:	e1a05001 	mov	r5, r1
   18c78:	e28d1084 	add	r1, sp, #132	; 0x84
   18c7c:	e58d0014 	str	r0, [sp, #20]
   18c80:	eb00037a 	bl	19a70 <initrd_image+0xba70>
   18c84:	e59d608c 	ldr	r6, [sp, #140]	; 0x8c
   18c88:	e1a03646 	asr	r3, r6, #12
   18c8c:	e2433001 	sub	r3, r3, #1
   18c90:	e353000b 	cmp	r3, #11
   18c94:	908ff103 	addls	pc, pc, r3, lsl #2
   18c98:	ea00000b 	b	18ccc <initrd_image+0xaccc>
   18c9c:	ea0000f8 	b	19084 <initrd_image+0xb084>
   18ca0:	ea0000fb 	b	19094 <initrd_image+0xb094>
   18ca4:	ea000008 	b	18ccc <initrd_image+0xaccc>
   18ca8:	ea0000fd 	b	190a4 <initrd_image+0xb0a4>
   18cac:	ea000006 	b	18ccc <initrd_image+0xaccc>
   18cb0:	ea0000ff 	b	190b4 <initrd_image+0xb0b4>
   18cb4:	ea000004 	b	18ccc <initrd_image+0xaccc>
   18cb8:	ea000101 	b	190c4 <initrd_image+0xb0c4>
   18cbc:	ea000002 	b	18ccc <initrd_image+0xaccc>
   18cc0:	ea000103 	b	190d4 <initrd_image+0xb0d4>
   18cc4:	ea000000 	b	18ccc <initrd_image+0xaccc>
   18cc8:	ea000105 	b	190e4 <initrd_image+0xb0e4>
   18ccc:	e59f0428 	ldr	r0, [pc, #1064]	; 190fc <initrd_image+0xb0fc>
   18cd0:	e08f0000 	add	r0, pc, r0
   18cd4:	eb0002bb 	bl	197c8 <initrd_image+0xb7c8>
   18cd8:	e3a04006 	mov	r4, #6
   18cdc:	e59f941c 	ldr	r9, [pc, #1052]	; 19100 <initrd_image+0xb100>
   18ce0:	e59f841c 	ldr	r8, [pc, #1052]	; 19104 <initrd_image+0xb104>
   18ce4:	e59f741c 	ldr	r7, [pc, #1052]	; 19108 <initrd_image+0xb108>
   18ce8:	e1a06b86 	lsl	r6, r6, #23
   18cec:	e08f9009 	add	r9, pc, r9
   18cf0:	e1a06ba6 	lsr	r6, r6, #23
   18cf4:	e08f8008 	add	r8, pc, r8
   18cf8:	e08f7007 	add	r7, pc, r7
   18cfc:	e3a03004 	mov	r3, #4
   18d00:	e0163413 	ands	r3, r6, r3, lsl r4
   18d04:	11a00008 	movne	r0, r8
   18d08:	01a00009 	moveq	r0, r9
   18d0c:	eb0002ad 	bl	197c8 <initrd_image+0xb7c8>
   18d10:	e3a03002 	mov	r3, #2
   18d14:	e59f03f0 	ldr	r0, [pc, #1008]	; 1910c <initrd_image+0xb10c>
   18d18:	e0163413 	ands	r3, r6, r3, lsl r4
   18d1c:	e08f0000 	add	r0, pc, r0
   18d20:	01a00007 	moveq	r0, r7
   18d24:	eb0002a7 	bl	197c8 <initrd_image+0xb7c8>
   18d28:	e59f03e0 	ldr	r0, [pc, #992]	; 19110 <initrd_image+0xb110>
   18d2c:	e1a03456 	asr	r3, r6, r4
   18d30:	e3130001 	tst	r3, #1
   18d34:	e08f0000 	add	r0, pc, r0
   18d38:	059f03d4 	ldreq	r0, [pc, #980]	; 19114 <initrd_image+0xb114>
   18d3c:	008f0000 	addeq	r0, pc, r0
   18d40:	e2444003 	sub	r4, r4, #3
   18d44:	eb00029f 	bl	197c8 <initrd_image+0xb7c8>
   18d48:	e3740003 	cmn	r4, #3
   18d4c:	1affffea 	bne	18cfc <initrd_image+0xacfc>
   18d50:	e1cd29d4 	ldrd	r2, [sp, #148]	; 0x94
   18d54:	e59f03bc 	ldr	r0, [pc, #956]	; 19118 <initrd_image+0xb118>
   18d58:	e59d1090 	ldr	r1, [sp, #144]	; 0x90
   18d5c:	e08f0000 	add	r0, pc, r0
   18d60:	eb000298 	bl	197c8 <initrd_image+0xb7c8>
   18d64:	e59f33b0 	ldr	r3, [pc, #944]	; 1911c <initrd_image+0xb11c>
   18d68:	e1550003 	cmp	r5, r3
   18d6c:	83a05009 	movhi	r5, #9
   18d70:	8a00001c 	bhi	18de8 <initrd_image+0xade8>
   18d74:	e59f33a4 	ldr	r3, [pc, #932]	; 19120 <initrd_image+0xb120>
   18d78:	e1550003 	cmp	r5, r3
   18d7c:	83a05008 	movhi	r5, #8
   18d80:	8a000018 	bhi	18de8 <initrd_image+0xade8>
   18d84:	e59f3398 	ldr	r3, [pc, #920]	; 19124 <initrd_image+0xb124>
   18d88:	e1550003 	cmp	r5, r3
   18d8c:	83a05007 	movhi	r5, #7
   18d90:	8a000014 	bhi	18de8 <initrd_image+0xade8>
   18d94:	e59f338c 	ldr	r3, [pc, #908]	; 19128 <initrd_image+0xb128>
   18d98:	e1550003 	cmp	r5, r3
   18d9c:	23a05006 	movcs	r5, #6
   18da0:	2a000010 	bcs	18de8 <initrd_image+0xade8>
   18da4:	e59f3380 	ldr	r3, [pc, #896]	; 1912c <initrd_image+0xb12c>
   18da8:	e1550003 	cmp	r5, r3
   18dac:	23a05005 	movcs	r5, #5
   18db0:	2a00000c 	bcs	18de8 <initrd_image+0xade8>
   18db4:	e59f3374 	ldr	r3, [pc, #884]	; 19130 <initrd_image+0xb130>
   18db8:	e1550003 	cmp	r5, r3
   18dbc:	83a05004 	movhi	r5, #4
   18dc0:	8a000008 	bhi	18de8 <initrd_image+0xade8>
   18dc4:	e3550ffa 	cmp	r5, #1000	; 0x3e8
   18dc8:	23a05003 	movcs	r5, #3
   18dcc:	2a000005 	bcs	18de8 <initrd_image+0xade8>
   18dd0:	e3550063 	cmp	r5, #99	; 0x63
   18dd4:	83a05002 	movhi	r5, #2
   18dd8:	8a000002 	bhi	18de8 <initrd_image+0xade8>
   18ddc:	e3550009 	cmp	r5, #9
   18de0:	93a05000 	movls	r5, #0
   18de4:	83a05001 	movhi	r5, #1
   18de8:	e59d10a0 	ldr	r1, [sp, #160]	; 0xa0
   18dec:	e59f3328 	ldr	r3, [pc, #808]	; 1911c <initrd_image+0xb11c>
   18df0:	e1510003 	cmp	r1, r3
   18df4:	8a000028 	bhi	18e9c <initrd_image+0xae9c>
   18df8:	e59f3320 	ldr	r3, [pc, #800]	; 19120 <initrd_image+0xb120>
   18dfc:	e1510003 	cmp	r1, r3
   18e00:	83a03008 	movhi	r3, #8
   18e04:	8a000018 	bhi	18e6c <initrd_image+0xae6c>
   18e08:	e59f3314 	ldr	r3, [pc, #788]	; 19124 <initrd_image+0xb124>
   18e0c:	e1510003 	cmp	r1, r3
   18e10:	83a03007 	movhi	r3, #7
   18e14:	8a000014 	bhi	18e6c <initrd_image+0xae6c>
   18e18:	e59f3308 	ldr	r3, [pc, #776]	; 19128 <initrd_image+0xb128>
   18e1c:	e1510003 	cmp	r1, r3
   18e20:	23a03006 	movcs	r3, #6
   18e24:	2a000010 	bcs	18e6c <initrd_image+0xae6c>
   18e28:	e59f32fc 	ldr	r3, [pc, #764]	; 1912c <initrd_image+0xb12c>
   18e2c:	e1510003 	cmp	r1, r3
   18e30:	23a03005 	movcs	r3, #5
   18e34:	2a00000c 	bcs	18e6c <initrd_image+0xae6c>
   18e38:	e59f32f0 	ldr	r3, [pc, #752]	; 19130 <initrd_image+0xb130>
   18e3c:	e1510003 	cmp	r1, r3
   18e40:	83a03004 	movhi	r3, #4
   18e44:	8a000008 	bhi	18e6c <initrd_image+0xae6c>
   18e48:	e3510ffa 	cmp	r1, #1000	; 0x3e8
   18e4c:	23a03003 	movcs	r3, #3
   18e50:	2a000005 	bcs	18e6c <initrd_image+0xae6c>
   18e54:	e3510063 	cmp	r1, #99	; 0x63
   18e58:	83a03002 	movhi	r3, #2
   18e5c:	8a000002 	bhi	18e6c <initrd_image+0xae6c>
   18e60:	e3510009 	cmp	r1, #9
   18e64:	93a03000 	movls	r3, #0
   18e68:	83a03001 	movhi	r3, #1
   18e6c:	e0455003 	sub	r5, r5, r3
   18e70:	e3550000 	cmp	r5, #0
   18e74:	da000008 	ble	18e9c <initrd_image+0xae9c>
   18e78:	e3a04000 	mov	r4, #0
   18e7c:	e59f62b0 	ldr	r6, [pc, #688]	; 19134 <initrd_image+0xb134>
   18e80:	e08f6006 	add	r6, pc, r6
   18e84:	e1a00006 	mov	r0, r6
   18e88:	e2844001 	add	r4, r4, #1
   18e8c:	eb00024d 	bl	197c8 <initrd_image+0xb7c8>
   18e90:	e1550004 	cmp	r5, r4
   18e94:	1afffffa 	bne	18e84 <initrd_image+0xae84>
   18e98:	e59d10a0 	ldr	r1, [sp, #160]	; 0xa0
   18e9c:	e59f0294 	ldr	r0, [pc, #660]	; 19138 <initrd_image+0xb138>
   18ea0:	e59f4294 	ldr	r4, [pc, #660]	; 1913c <initrd_image+0xb13c>
   18ea4:	e08f0000 	add	r0, pc, r0
   18ea8:	eb000246 	bl	197c8 <initrd_image+0xb7c8>
   18eac:	e28d3024 	add	r3, sp, #36	; 0x24
   18eb0:	e1a07003 	mov	r7, r3
   18eb4:	e58d3018 	str	r3, [sp, #24]
   18eb8:	e28d3054 	add	r3, sp, #84	; 0x54
   18ebc:	e1a05003 	mov	r5, r3
   18ec0:	e08f4004 	add	r4, pc, r4
   18ec4:	e2846030 	add	r6, r4, #48	; 0x30
   18ec8:	e58d301c 	str	r3, [sp, #28]
   18ecc:	e8b4000f 	ldm	r4!, {r0, r1, r2, r3}
   18ed0:	e8a7000f 	stmia	r7!, {r0, r1, r2, r3}
   18ed4:	e8b4000f 	ldm	r4!, {r0, r1, r2, r3}
   18ed8:	e8a7000f 	stmia	r7!, {r0, r1, r2, r3}
   18edc:	e894000f 	ldm	r4, {r0, r1, r2, r3}
   18ee0:	e59dc0b0 	ldr	ip, [sp, #176]	; 0xb0
   18ee4:	e887000f 	stm	r7, {r0, r1, r2, r3}
   18ee8:	e8b6000f 	ldm	r6!, {r0, r1, r2, r3}
   18eec:	e8a5000f 	stmia	r5!, {r0, r1, r2, r3}
   18ef0:	e8b6000f 	ldm	r6!, {r0, r1, r2, r3}
   18ef4:	e8a5000f 	stmia	r5!, {r0, r1, r2, r3}
   18ef8:	e896000f 	ldm	r6, {r0, r1, r2, r3}
   18efc:	e59fe23c 	ldr	lr, [pc, #572]	; 19140 <initrd_image+0xb140>
   18f00:	e885000f 	stm	r5, {r0, r1, r2, r3}
   18f04:	e59f8238 	ldr	r8, [pc, #568]	; 19144 <initrd_image+0xb144>
   18f08:	e59fb238 	ldr	fp, [pc, #568]	; 19148 <initrd_image+0xb148>
   18f0c:	e59fa238 	ldr	sl, [pc, #568]	; 1914c <initrd_image+0xb14c>
   18f10:	e59f9238 	ldr	r9, [pc, #568]	; 19150 <initrd_image+0xb150>
   18f14:	ea000001 	b	18f20 <initrd_image+0xaf20>
   18f18:	e04cc003 	sub	ip, ip, r3
   18f1c:	e28ee001 	add	lr, lr, #1
   18f20:	e21e2003 	ands	r2, lr, #3
   18f24:	11a03008 	movne	r3, r8
   18f28:	1a000007 	bne	18f4c <initrd_image+0xaf4c>
   18f2c:	e0030e9b 	mul	r3, fp, lr
   18f30:	e15a0163 	cmp	sl, r3, ror #2
   18f34:	31a03009 	movcc	r3, r9
   18f38:	3a000003 	bcc	18f4c <initrd_image+0xaf4c>
   18f3c:	e59f1210 	ldr	r1, [pc, #528]	; 19154 <initrd_image+0xb154>
   18f40:	e1510263 	cmp	r1, r3, ror #4
   18f44:	31a03008 	movcc	r3, r8
   18f48:	21a03009 	movcs	r3, r9
   18f4c:	e15c0003 	cmp	ip, r3
   18f50:	aafffff0 	bge	18f18 <initrd_image+0xaf18>
   18f54:	e3520000 	cmp	r2, #0
   18f58:	13a05000 	movne	r5, #0
   18f5c:	1a000009 	bne	18f88 <initrd_image+0xaf88>
   18f60:	e59f31e0 	ldr	r3, [pc, #480]	; 19148 <initrd_image+0xb148>
   18f64:	e59f21e0 	ldr	r2, [pc, #480]	; 1914c <initrd_image+0xb14c>
   18f68:	e0030e93 	mul	r3, r3, lr
   18f6c:	e1520163 	cmp	r2, r3, ror #2
   18f70:	33a05001 	movcc	r5, #1
   18f74:	3a000003 	bcc	18f88 <initrd_image+0xaf88>
   18f78:	e59f21d4 	ldr	r2, [pc, #468]	; 19154 <initrd_image+0xb154>
   18f7c:	e1520263 	cmp	r2, r3, ror #4
   18f80:	23a05001 	movcs	r5, #1
   18f84:	33a05000 	movcc	r5, #0
   18f88:	e3a02000 	mov	r2, #0
   18f8c:	e3a0301f 	mov	r3, #31
   18f90:	e59d0018 	ldr	r0, [sp, #24]
   18f94:	e2055001 	and	r5, r5, #1
   18f98:	ea000007 	b	18fbc <initrd_image+0xafbc>
   18f9c:	e2822001 	add	r2, r2, #1
   18fa0:	e3520001 	cmp	r2, #1
   18fa4:	13a04000 	movne	r4, #0
   18fa8:	02054001 	andeq	r4, r5, #1
   18fac:	e5b03004 	ldr	r3, [r0, #4]!
   18fb0:	e3540000 	cmp	r4, #0
   18fb4:	e04cc001 	sub	ip, ip, r1
   18fb8:	12833001 	addne	r3, r3, #1
   18fbc:	e0833083 	add	r3, r3, r3, lsl #1
   18fc0:	e0633203 	rsb	r3, r3, r3, lsl #4
   18fc4:	e0633203 	rsb	r3, r3, r3, lsl #4
   18fc8:	e15c0383 	cmp	ip, r3, lsl #7
   18fcc:	e1a01383 	lsl	r1, r3, #7
   18fd0:	aafffff1 	bge	18f9c <initrd_image+0xaf9c>
   18fd4:	e59f017c 	ldr	r0, [pc, #380]	; 19158 <initrd_image+0xb158>
   18fd8:	e15c0000 	cmp	ip, r0
   18fdc:	a3a03000 	movge	r3, #0
   18fe0:	ba000043 	blt	190f4 <initrd_image+0xb0f4>
   18fe4:	e24cca15 	sub	ip, ip, #86016	; 0x15000
   18fe8:	e24ccd06 	sub	ip, ip, #384	; 0x180
   18fec:	e15c0000 	cmp	ip, r0
   18ff0:	e1a01003 	mov	r1, r3
   18ff4:	e2833001 	add	r3, r3, #1
   18ff8:	aafffff9 	bge	18fe4 <initrd_image+0xafe4>
   18ffc:	e2811002 	add	r1, r1, #2
   19000:	e35c0ee1 	cmp	ip, #3600	; 0xe10
   19004:	e3a00000 	mov	r0, #0
   19008:	ba000003 	blt	1901c <initrd_image+0xb01c>
   1900c:	e24ccee1 	sub	ip, ip, #3600	; 0xe10
   19010:	e35c0ee1 	cmp	ip, #3600	; 0xe10
   19014:	e2800001 	add	r0, r0, #1
   19018:	aafffffb 	bge	1900c <initrd_image+0xb00c>
   1901c:	e35c003b 	cmp	ip, #59	; 0x3b
   19020:	e3a03000 	mov	r3, #0
   19024:	da000003 	ble	19038 <initrd_image+0xb038>
   19028:	e24cc03c 	sub	ip, ip, #60	; 0x3c
   1902c:	e35c003b 	cmp	ip, #59	; 0x3b
   19030:	e2833001 	add	r3, r3, #1
   19034:	cafffffb 	bgt	19028 <initrd_image+0xb028>
   19038:	e59d401c 	ldr	r4, [sp, #28]
   1903c:	e58d0000 	str	r0, [sp]
   19040:	e59f0114 	ldr	r0, [pc, #276]	; 1915c <initrd_image+0xb15c>
   19044:	e98d1008 	stmib	sp, {r3, ip}
   19048:	e0842102 	add	r2, r4, r2, lsl #2
   1904c:	e1a0300e 	mov	r3, lr
   19050:	e08f0000 	add	r0, pc, r0
   19054:	eb0001db 	bl	197c8 <initrd_image+0xb7c8>
   19058:	e59f0100 	ldr	r0, [pc, #256]	; 19160 <initrd_image+0xb160>
   1905c:	e08f0000 	add	r0, pc, r0
   19060:	eb0001d8 	bl	197c8 <initrd_image+0xb7c8>
   19064:	e59d1014 	ldr	r1, [sp, #20]
   19068:	e59d008c 	ldr	r0, [sp, #140]	; 0x8c
   1906c:	ebfffe37 	bl	18950 <initrd_image+0xa950>
   19070:	e59f00ec 	ldr	r0, [pc, #236]	; 19164 <initrd_image+0xb164>
   19074:	e08f0000 	add	r0, pc, r0
   19078:	eb0001d2 	bl	197c8 <initrd_image+0xb7c8>
   1907c:	e28dd0bc 	add	sp, sp, #188	; 0xbc
   19080:	e8bd8ff0 	pop	{r4, r5, r6, r7, r8, r9, sl, fp, pc}
   19084:	e59f00dc 	ldr	r0, [pc, #220]	; 19168 <initrd_image+0xb168>
   19088:	e08f0000 	add	r0, pc, r0
   1908c:	eb0001cd 	bl	197c8 <initrd_image+0xb7c8>
   19090:	eaffff10 	b	18cd8 <initrd_image+0xacd8>
   19094:	e59f00d0 	ldr	r0, [pc, #208]	; 1916c <initrd_image+0xb16c>
   19098:	e08f0000 	add	r0, pc, r0
   1909c:	eb0001c9 	bl	197c8 <initrd_image+0xb7c8>
   190a0:	eaffff0c 	b	18cd8 <initrd_image+0xacd8>
   190a4:	e59f00c4 	ldr	r0, [pc, #196]	; 19170 <initrd_image+0xb170>
   190a8:	e08f0000 	add	r0, pc, r0
   190ac:	eb0001c5 	bl	197c8 <initrd_image+0xb7c8>
   190b0:	eaffff08 	b	18cd8 <initrd_image+0xacd8>
   190b4:	e59f00b8 	ldr	r0, [pc, #184]	; 19174 <initrd_image+0xb174>
   190b8:	e08f0000 	add	r0, pc, r0
   190bc:	eb0001c1 	bl	197c8 <initrd_image+0xb7c8>
   190c0:	eaffff04 	b	18cd8 <initrd_image+0xacd8>
   190c4:	e59f00ac 	ldr	r0, [pc, #172]	; 19178 <initrd_image+0xb178>
   190c8:	e08f0000 	add	r0, pc, r0
   190cc:	eb0001bd 	bl	197c8 <initrd_image+0xb7c8>
   190d0:	eaffff00 	b	18cd8 <initrd_image+0xacd8>
   190d4:	e59f00a0 	ldr	r0, [pc, #160]	; 1917c <initrd_image+0xb17c>
   190d8:	e08f0000 	add	r0, pc, r0
   190dc:	eb0001b9 	bl	197c8 <initrd_image+0xb7c8>
   190e0:	eafffefc 	b	18cd8 <initrd_image+0xacd8>
   190e4:	e59f0094 	ldr	r0, [pc, #148]	; 19180 <initrd_image+0xb180>
   190e8:	e08f0000 	add	r0, pc, r0
   190ec:	eb0001b5 	bl	197c8 <initrd_image+0xb7c8>
   190f0:	eafffef8 	b	18cd8 <initrd_image+0xacd8>
   190f4:	e3a01001 	mov	r1, #1
   190f8:	eaffffc0 	b	19000 <initrd_image+0xb000>
   190fc:	00001d44 	andeq	r1, r0, r4, asr #26
   19100:	00001d1c 	andeq	r1, r0, ip, lsl sp
   19104:	00001d24 	andeq	r1, r0, r4, lsr #26
   19108:	00001d10 	andeq	r1, r0, r0, lsl sp
   1910c:	00001d00 	andeq	r1, r0, r0, lsl #26
   19110:	00001cec 	andeq	r1, r0, ip, ror #25
   19114:	00001ccc 	andeq	r1, r0, ip, asr #25
   19118:	00001cc8 	andeq	r1, r0, r8, asr #25
   1911c:	3b9ac9ff 	blcc	fe6cb920 <__bss_end+0xfe692920>
   19120:	05f5e0ff 	ldrbeq	lr, [r5, #255]!	; 0xff
   19124:	0098967f 	addseq	r9, r8, pc, ror r6
   19128:	000f4240 	andeq	r4, pc, r0, asr #4
   1912c:	000186a0 	andeq	r8, r1, r0, lsr #13
   19130:	0000270f 	andeq	r2, r0, pc, lsl #14
   19134:	00001b74 	andeq	r1, r0, r4, ror fp
   19138:	00001b88 	andeq	r1, r0, r8, lsl #23
   1913c:	00001a78 	andeq	r1, r0, r8, ror sl
   19140:	000007b2 			; <UNDEFINED> instruction: 0x000007b2
   19144:	01e13380 	mvneq	r3, r0, lsl #7
   19148:	c28f5c29 	addgt	r5, pc, #10496	; 0x2900
   1914c:	028f5c28 	addeq	r5, pc, #40, 24	; 0x2800
   19150:	01e28500 	mvneq	r8, r0, lsl #10
   19154:	00a3d70a 	adceq	sp, r3, sl, lsl #14
   19158:	00015180 	andeq	r5, r1, r0, lsl #3
   1915c:	000019e0 	andeq	r1, r0, r0, ror #19
   19160:	00001998 	muleq	r0, r8, r9
   19164:	00001970 	andeq	r1, r0, r0, ror r9
   19168:	00001970 	andeq	r1, r0, r0, ror r9
   1916c:	00001964 	andeq	r1, r0, r4, ror #18
   19170:	00001958 	andeq	r1, r0, r8, asr r9
   19174:	0000194c 	andeq	r1, r0, ip, asr #18
   19178:	00001940 	andeq	r1, r0, r0, asr #18
   1917c:	00001934 	andeq	r1, r0, r4, lsr r9
   19180:	00001928 	andeq	r1, r0, r8, lsr #18
   19184:	e92d4ff0 	push	{r4, r5, r6, r7, r8, r9, sl, fp, lr}
   19188:	e24ddd11 	sub	sp, sp, #1088	; 0x440
   1918c:	e24dd004 	sub	sp, sp, #4
   19190:	e59f31a4 	ldr	r3, [pc, #420]	; 1933c <initrd_image+0xb33c>
   19194:	e28d800c 	add	r8, sp, #12
   19198:	e08f3003 	add	r3, pc, r3
   1919c:	e1a01008 	mov	r1, r8
   191a0:	e1a0b000 	mov	fp, r0
   191a4:	e58d3004 	str	r3, [sp, #4]
   191a8:	eb000230 	bl	19a70 <initrd_image+0xba70>
   191ac:	e3500000 	cmp	r0, #0
   191b0:	ba00005c 	blt	19328 <initrd_image+0xb328>
   191b4:	e59d3014 	ldr	r3, [sp, #20]
   191b8:	e2033a0f 	and	r3, r3, #61440	; 0xf000
   191bc:	e3530901 	cmp	r3, #16384	; 0x4000
   191c0:	1a00001b 	bne	19234 <initrd_image+0xb234>
   191c4:	e3a02000 	mov	r2, #0
   191c8:	e1a0000b 	mov	r0, fp
   191cc:	e1a01002 	mov	r1, r2
   191d0:	eb0001fe 	bl	199d0 <initrd_image+0xb9d0>
   191d4:	e250a000 	subs	sl, r0, #0
   191d8:	ba000048 	blt	19300 <initrd_image+0xb300>
   191dc:	e3a05000 	mov	r5, #0
   191e0:	e28d7040 	add	r7, sp, #64	; 0x40
   191e4:	e3a02b01 	mov	r2, #1024	; 0x400
   191e8:	e1a01007 	mov	r1, r7
   191ec:	e1a0000a 	mov	r0, sl
   191f0:	eb00022d 	bl	19aac <initrd_image+0xbaac>
   191f4:	e2506000 	subs	r6, r0, #0
   191f8:	ba000013 	blt	1924c <initrd_image+0xb24c>
   191fc:	0a00001b 	beq	19270 <initrd_image+0xb270>
   19200:	e3a04000 	mov	r4, #0
   19204:	e0879004 	add	r9, r7, r4
   19208:	e1a01008 	mov	r1, r8
   1920c:	e289000c 	add	r0, r9, #12
   19210:	eb000216 	bl	19a70 <initrd_image+0xba70>
   19214:	e59d3028 	ldr	r3, [sp, #40]	; 0x28
   19218:	e5992008 	ldr	r2, [r9, #8]
   1921c:	e1550003 	cmp	r5, r3
   19220:	e0844002 	add	r4, r4, r2
   19224:	31a05003 	movcc	r5, r3
   19228:	e1560004 	cmp	r6, r4
   1922c:	cafffff4 	bgt	19204 <initrd_image+0xb204>
   19230:	eaffffeb 	b	191e4 <initrd_image+0xb1e4>
   19234:	e1a0000b 	mov	r0, fp
   19238:	e59d1028 	ldr	r1, [sp, #40]	; 0x28
   1923c:	ebfffe8a 	bl	18c6c <initrd_image+0xac6c>
   19240:	e28ddd11 	add	sp, sp, #1088	; 0x440
   19244:	e28dd004 	add	sp, sp, #4
   19248:	e8bd8ff0 	pop	{r4, r5, r6, r7, r8, r9, sl, fp, pc}
   1924c:	e59d2004 	ldr	r2, [sp, #4]
   19250:	e59f30e8 	ldr	r3, [pc, #232]	; 19340 <initrd_image+0xb340>
   19254:	e7923003 	ldr	r3, [r2, r3]
   19258:	e5930000 	ldr	r0, [r3]
   1925c:	eb000051 	bl	193a8 <initrd_image+0xb3a8>
   19260:	e1a01000 	mov	r1, r0
   19264:	e59f00d8 	ldr	r0, [pc, #216]	; 19344 <initrd_image+0xb344>
   19268:	e08f0000 	add	r0, pc, r0
   1926c:	eb000155 	bl	197c8 <initrd_image+0xb7c8>
   19270:	e1a0000a 	mov	r0, sl
   19274:	eb0001da 	bl	199e4 <initrd_image+0xb9e4>
   19278:	e3a02000 	mov	r2, #0
   1927c:	e1a0000b 	mov	r0, fp
   19280:	e1a01002 	mov	r1, r2
   19284:	eb0001d1 	bl	199d0 <initrd_image+0xb9d0>
   19288:	e1a0a000 	mov	sl, r0
   1928c:	e3a02b01 	mov	r2, #1024	; 0x400
   19290:	e1a01007 	mov	r1, r7
   19294:	e1a0000a 	mov	r0, sl
   19298:	eb000203 	bl	19aac <initrd_image+0xbaac>
   1929c:	e2508000 	subs	r8, r0, #0
   192a0:	ba00000a 	blt	192d0 <initrd_image+0xb2d0>
   192a4:	0a000012 	beq	192f4 <initrd_image+0xb2f4>
   192a8:	e3a04000 	mov	r4, #0
   192ac:	e0876004 	add	r6, r7, r4
   192b0:	e1a01005 	mov	r1, r5
   192b4:	e286000c 	add	r0, r6, #12
   192b8:	ebfffe6b 	bl	18c6c <initrd_image+0xac6c>
   192bc:	e5963008 	ldr	r3, [r6, #8]
   192c0:	e0844003 	add	r4, r4, r3
   192c4:	e1580004 	cmp	r8, r4
   192c8:	cafffff7 	bgt	192ac <initrd_image+0xb2ac>
   192cc:	eaffffee 	b	1928c <initrd_image+0xb28c>
   192d0:	e59d2004 	ldr	r2, [sp, #4]
   192d4:	e59f3064 	ldr	r3, [pc, #100]	; 19340 <initrd_image+0xb340>
   192d8:	e7923003 	ldr	r3, [r2, r3]
   192dc:	e5930000 	ldr	r0, [r3]
   192e0:	eb000030 	bl	193a8 <initrd_image+0xb3a8>
   192e4:	e1a01000 	mov	r1, r0
   192e8:	e59f0058 	ldr	r0, [pc, #88]	; 19348 <initrd_image+0xb348>
   192ec:	e08f0000 	add	r0, pc, r0
   192f0:	eb000134 	bl	197c8 <initrd_image+0xb7c8>
   192f4:	e1a0000a 	mov	r0, sl
   192f8:	eb0001b9 	bl	199e4 <initrd_image+0xb9e4>
   192fc:	eaffffcf 	b	19240 <initrd_image+0xb240>
   19300:	e59d2004 	ldr	r2, [sp, #4]
   19304:	e59f3034 	ldr	r3, [pc, #52]	; 19340 <initrd_image+0xb340>
   19308:	e7923003 	ldr	r3, [r2, r3]
   1930c:	e5930000 	ldr	r0, [r3]
   19310:	eb000024 	bl	193a8 <initrd_image+0xb3a8>
   19314:	e1a01000 	mov	r1, r0
   19318:	e59f002c 	ldr	r0, [pc, #44]	; 1934c <initrd_image+0xb34c>
   1931c:	e08f0000 	add	r0, pc, r0
   19320:	eb000128 	bl	197c8 <initrd_image+0xb7c8>
   19324:	eaffffac 	b	191dc <initrd_image+0xb1dc>
   19328:	e59f0020 	ldr	r0, [pc, #32]	; 19350 <initrd_image+0xb350>
   1932c:	e1a0100b 	mov	r1, fp
   19330:	e08f0000 	add	r0, pc, r0
   19334:	eb000123 	bl	197c8 <initrd_image+0xb7c8>
   19338:	eaffffc0 	b	19240 <initrd_image+0xb240>
   1933c:	0000284c 	andeq	r2, r0, ip, asr #16
   19340:	00000000 	andeq	r0, r0, r0
   19344:	00001780 	andeq	r1, r0, r0, lsl #15
   19348:	000016fc 	strdeq	r1, [r0], -ip
   1934c:	000016cc 	andeq	r1, r0, ip, asr #13
   19350:	00001688 	andeq	r1, r0, r8, lsl #13
   19354:	e92d4010 	push	{r4, lr}
   19358:	e2514000 	subs	r4, r1, #0
   1935c:	0a000009 	beq	19388 <initrd_image+0xb388>
   19360:	e1540000 	cmp	r4, r0
   19364:	e1a02000 	mov	r2, r0
   19368:	8a00000b 	bhi	1939c <initrd_image+0xb39c>
   1936c:	e1a03004 	mov	r3, r4
   19370:	e3a00000 	mov	r0, #0
   19374:	e0833004 	add	r3, r3, r4
   19378:	e1520003 	cmp	r2, r3
   1937c:	e2800001 	add	r0, r0, #1
   19380:	2afffffb 	bcs	19374 <initrd_image+0xb374>
   19384:	e8bd8010 	pop	{r4, pc}
   19388:	e59f0014 	ldr	r0, [pc, #20]	; 193a4 <initrd_image+0xb3a4>
   1938c:	e08f0000 	add	r0, pc, r0
   19390:	eb00010c 	bl	197c8 <initrd_image+0xb7c8>
   19394:	e1a00004 	mov	r0, r4
   19398:	e8bd8010 	pop	{r4, pc}
   1939c:	e3a00000 	mov	r0, #0
   193a0:	e8bd8010 	pop	{r4, pc}
   193a4:	000016c4 	andeq	r1, r0, r4, asr #13
   193a8:	e3500000 	cmp	r0, #0
   193ac:	b2600000 	rsblt	r0, r0, #0
   193b0:	e3500027 	cmp	r0, #39	; 0x27
   193b4:	ca000003 	bgt	193c8 <initrd_image+0xb3c8>
   193b8:	e59f3014 	ldr	r3, [pc, #20]	; 193d4 <initrd_image+0xb3d4>
   193bc:	e08f3003 	add	r3, pc, r3
   193c0:	e7930100 	ldr	r0, [r3, r0, lsl #2]
   193c4:	e12fff1e 	bx	lr
   193c8:	e59f0008 	ldr	r0, [pc, #8]	; 193d8 <initrd_image+0xb3d8>
   193cc:	e08f0000 	add	r0, pc, r0
   193d0:	e12fff1e 	bx	lr
   193d4:	00002638 	andeq	r2, r0, r8, lsr r6
   193d8:	0000256c 	andeq	r2, r0, ip, ror #10
   193dc:	e5d13000 	ldrb	r3, [r1]
   193e0:	e3530000 	cmp	r3, #0
   193e4:	0a0000f4 	beq	197bc <initrd_image+0xb7bc>
   193e8:	e92d4ff0 	push	{r4, r5, r6, r7, r8, r9, sl, fp, lr}
   193ec:	e24dd024 	sub	sp, sp, #36	; 0x24
   193f0:	e1a08002 	mov	r8, r2
   193f4:	e28d200c 	add	r2, sp, #12
   193f8:	e1a0a000 	mov	sl, r0
   193fc:	e59f93c0 	ldr	r9, [pc, #960]	; 197c4 <initrd_image+0xb7c4>
   19400:	e3a00000 	mov	r0, #0
   19404:	e58d2004 	str	r2, [sp, #4]
   19408:	ea000009 	b	19434 <initrd_image+0xb434>
   1940c:	e7ca3000 	strb	r3, [sl, r0]
   19410:	e2800001 	add	r0, r0, #1
   19414:	e3500c01 	cmp	r0, #256	; 0x100
   19418:	0a0000a6 	beq	196b8 <initrd_image+0xb6b8>
   1941c:	e2811001 	add	r1, r1, #1
   19420:	e35000ff 	cmp	r0, #255	; 0xff
   19424:	0a000037 	beq	19508 <initrd_image+0xb508>
   19428:	e5d13000 	ldrb	r3, [r1]
   1942c:	e3530000 	cmp	r3, #0
   19430:	0a000034 	beq	19508 <initrd_image+0xb508>
   19434:	e3530025 	cmp	r3, #37	; 0x25
   19438:	1afffff3 	bne	1940c <initrd_image+0xb40c>
   1943c:	e5d13001 	ldrb	r3, [r1, #1]
   19440:	e243c030 	sub	ip, r3, #48	; 0x30
   19444:	e6efc07c 	uxtb	ip, ip
   19448:	e35c0009 	cmp	ip, #9
   1944c:	83a0c000 	movhi	ip, #0
   19450:	83a0b020 	movhi	fp, #32
   19454:	82811001 	addhi	r1, r1, #1
   19458:	9a000045 	bls	19574 <initrd_image+0xb574>
   1945c:	e3530069 	cmp	r3, #105	; 0x69
   19460:	13530064 	cmpne	r3, #100	; 0x64
   19464:	1a000029 	bne	19510 <initrd_image+0xb510>
   19468:	e4983004 	ldr	r3, [r8], #4
   1946c:	e2811001 	add	r1, r1, #1
   19470:	e3530000 	cmp	r3, #0
   19474:	a3a07000 	movge	r7, #0
   19478:	ba00004e 	blt	195b8 <initrd_image+0xb5b8>
   1947c:	e3a05009 	mov	r5, #9
   19480:	e2877009 	add	r7, r7, #9
   19484:	e28d6016 	add	r6, sp, #22
   19488:	e0842399 	umull	r2, r4, r9, r3
   1948c:	e1a041a4 	lsr	r4, r4, #3
   19490:	e0842104 	add	r2, r4, r4, lsl #2
   19494:	e0432082 	sub	r2, r3, r2, lsl #1
   19498:	e1a0e005 	mov	lr, r5
   1949c:	e2822030 	add	r2, r2, #48	; 0x30
   194a0:	e2455001 	sub	r5, r5, #1
   194a4:	e3530009 	cmp	r3, #9
   194a8:	e6ef2072 	uxtb	r2, r2
   194ac:	e1a03004 	mov	r3, r4
   194b0:	e0474005 	sub	r4, r7, r5
   194b4:	e5662001 	strb	r2, [r6, #-1]!
   194b8:	e6ef4074 	uxtb	r4, r4
   194bc:	8afffff1 	bhi	19488 <initrd_image+0xb488>
   194c0:	e15c0004 	cmp	ip, r4
   194c4:	8a000043 	bhi	195d8 <initrd_image+0xb5d8>
   194c8:	e59d4004 	ldr	r4, [sp, #4]
   194cc:	e26ec00a 	rsb	ip, lr, #10
   194d0:	e2403001 	sub	r3, r0, #1
   194d4:	e08a3003 	add	r3, sl, r3
   194d8:	e084e00e 	add	lr, r4, lr
   194dc:	e08cc000 	add	ip, ip, r0
   194e0:	ea000000 	b	194e8 <initrd_image+0xb4e8>
   194e4:	e5fe2001 	ldrb	r2, [lr, #1]!
   194e8:	e2800001 	add	r0, r0, #1
   194ec:	e3500c01 	cmp	r0, #256	; 0x100
   194f0:	e5e32001 	strb	r2, [r3, #1]!
   194f4:	0affffcb 	beq	19428 <initrd_image+0xb428>
   194f8:	e15c0000 	cmp	ip, r0
   194fc:	1afffff8 	bne	194e4 <initrd_image+0xb4e4>
   19500:	e35000ff 	cmp	r0, #255	; 0xff
   19504:	1affffc7 	bne	19428 <initrd_image+0xb428>
   19508:	e28dd024 	add	sp, sp, #36	; 0x24
   1950c:	e8bd8ff0 	pop	{r4, r5, r6, r7, r8, r9, sl, fp, pc}
   19510:	e353006c 	cmp	r3, #108	; 0x6c
   19514:	0a00006a 	beq	196c4 <initrd_image+0xb6c4>
   19518:	e20320f7 	and	r2, r3, #247	; 0xf7
   1951c:	e3520070 	cmp	r2, #112	; 0x70
   19520:	0a00003d 	beq	1961c <initrd_image+0xb61c>
   19524:	e3530063 	cmp	r3, #99	; 0x63
   19528:	0a00005c 	beq	196a0 <initrd_image+0xb6a0>
   1952c:	e3530025 	cmp	r3, #37	; 0x25
   19530:	0a000089 	beq	1975c <initrd_image+0xb75c>
   19534:	e3530073 	cmp	r3, #115	; 0x73
   19538:	1affffb8 	bne	19420 <initrd_image+0xb420>
   1953c:	e498c004 	ldr	ip, [r8], #4
   19540:	e2402001 	sub	r2, r0, #1
   19544:	e2811001 	add	r1, r1, #1
   19548:	e08a2002 	add	r2, sl, r2
   1954c:	e04cc000 	sub	ip, ip, r0
   19550:	ea000003 	b	19564 <initrd_image+0xb564>
   19554:	e2800001 	add	r0, r0, #1
   19558:	e3500c01 	cmp	r0, #256	; 0x100
   1955c:	e5e23001 	strb	r3, [r2, #1]!
   19560:	0affffb0 	beq	19428 <initrd_image+0xb428>
   19564:	e7dc3000 	ldrb	r3, [ip, r0]
   19568:	e3530000 	cmp	r3, #0
   1956c:	1afffff8 	bne	19554 <initrd_image+0xb554>
   19570:	eaffffaa 	b	19420 <initrd_image+0xb420>
   19574:	e3530030 	cmp	r3, #48	; 0x30
   19578:	e5d13002 	ldrb	r3, [r1, #2]
   1957c:	03a0b030 	moveq	fp, #48	; 0x30
   19580:	e2432030 	sub	r2, r3, #48	; 0x30
   19584:	13a0b020 	movne	fp, #32
   19588:	e3520009 	cmp	r2, #9
   1958c:	e2811002 	add	r1, r1, #2
   19590:	8affffb1 	bhi	1945c <initrd_image+0xb45c>
   19594:	e08cc10c 	add	ip, ip, ip, lsl #2
   19598:	e083c08c 	add	ip, r3, ip, lsl #1
   1959c:	e5f13001 	ldrb	r3, [r1, #1]!
   195a0:	e24cc030 	sub	ip, ip, #48	; 0x30
   195a4:	e2432030 	sub	r2, r3, #48	; 0x30
   195a8:	e3520009 	cmp	r2, #9
   195ac:	e20cc0ff 	and	ip, ip, #255	; 0xff
   195b0:	9afffff7 	bls	19594 <initrd_image+0xb594>
   195b4:	eaffffa8 	b	1945c <initrd_image+0xb45c>
   195b8:	e3a0202d 	mov	r2, #45	; 0x2d
   195bc:	e7ca2000 	strb	r2, [sl, r0]
   195c0:	e2800001 	add	r0, r0, #1
   195c4:	e3500c01 	cmp	r0, #256	; 0x100
   195c8:	0a00003a 	beq	196b8 <initrd_image+0xb6b8>
   195cc:	e3a07001 	mov	r7, #1
   195d0:	e2633000 	rsb	r3, r3, #0
   195d4:	eaffffa8 	b	1947c <initrd_image+0xb47c>
   195d8:	e04c4004 	sub	r4, ip, r4
   195dc:	e3540000 	cmp	r4, #0
   195e0:	daffffb8 	ble	194c8 <initrd_image+0xb4c8>
   195e4:	e35000ff 	cmp	r0, #255	; 0xff
   195e8:	e7cab000 	strb	fp, [sl, r0]
   195ec:	e08ac000 	add	ip, sl, r0
   195f0:	e2803001 	add	r3, r0, #1
   195f4:	0a000006 	beq	19614 <initrd_image+0xb614>
   195f8:	e0840000 	add	r0, r4, r0
   195fc:	e1500003 	cmp	r0, r3
   19600:	e2833001 	add	r3, r3, #1
   19604:	0affffaf 	beq	194c8 <initrd_image+0xb4c8>
   19608:	e3530c01 	cmp	r3, #256	; 0x100
   1960c:	e5ecb001 	strb	fp, [ip, #1]!
   19610:	1afffff9 	bne	195fc <initrd_image+0xb5fc>
   19614:	e3a00c01 	mov	r0, #256	; 0x100
   19618:	eaffffaa 	b	194c8 <initrd_image+0xb4c8>
   1961c:	e3a0e009 	mov	lr, #9
   19620:	e4982004 	ldr	r2, [r8], #4
   19624:	e2811001 	add	r1, r1, #1
   19628:	e28d5016 	add	r5, sp, #22
   1962c:	ea000000 	b	19634 <initrd_image+0xb634>
   19630:	e1a0e006 	mov	lr, r6
   19634:	e202300f 	and	r3, r2, #15
   19638:	e3530009 	cmp	r3, #9
   1963c:	92833030 	addls	r3, r3, #48	; 0x30
   19640:	82833057 	addhi	r3, r3, #87	; 0x57
   19644:	e26e400a 	rsb	r4, lr, #10
   19648:	e352000f 	cmp	r2, #15
   1964c:	e24e6001 	sub	r6, lr, #1
   19650:	e1a02222 	lsr	r2, r2, #4
   19654:	e5653001 	strb	r3, [r5, #-1]!
   19658:	e6ef7074 	uxtb	r7, r4
   1965c:	8afffff3 	bhi	19630 <initrd_image+0xb630>
   19660:	e15c0007 	cmp	ip, r7
   19664:	8a000042 	bhi	19774 <initrd_image+0xb774>
   19668:	e59d2004 	ldr	r2, [sp, #4]
   1966c:	e0844000 	add	r4, r4, r0
   19670:	e082e00e 	add	lr, r2, lr
   19674:	e2402001 	sub	r2, r0, #1
   19678:	e08a2002 	add	r2, sl, r2
   1967c:	ea000000 	b	19684 <initrd_image+0xb684>
   19680:	e5fe3001 	ldrb	r3, [lr, #1]!
   19684:	e2800001 	add	r0, r0, #1
   19688:	e3500c01 	cmp	r0, #256	; 0x100
   1968c:	e5e23001 	strb	r3, [r2, #1]!
   19690:	0affff64 	beq	19428 <initrd_image+0xb428>
   19694:	e1500004 	cmp	r0, r4
   19698:	1afffff8 	bne	19680 <initrd_image+0xb680>
   1969c:	eaffff5f 	b	19420 <initrd_image+0xb420>
   196a0:	e4983004 	ldr	r3, [r8], #4
   196a4:	e2811001 	add	r1, r1, #1
   196a8:	e7ca3000 	strb	r3, [sl, r0]
   196ac:	e2800001 	add	r0, r0, #1
   196b0:	e3500c01 	cmp	r0, #256	; 0x100
   196b4:	1affff59 	bne	19420 <initrd_image+0xb420>
   196b8:	e3a00c01 	mov	r0, #256	; 0x100
   196bc:	e28dd024 	add	sp, sp, #36	; 0x24
   196c0:	e8bd8ff0 	pop	{r4, r5, r6, r7, r8, r9, sl, fp, pc}
   196c4:	e2888007 	add	r8, r8, #7
   196c8:	e3c88007 	bic	r8, r8, #7
   196cc:	e598c004 	ldr	ip, [r8, #4]
   196d0:	e3a0e011 	mov	lr, #17
   196d4:	e4983008 	ldr	r3, [r8], #8
   196d8:	e2811003 	add	r1, r1, #3
   196dc:	e28d401e 	add	r4, sp, #30
   196e0:	ea000000 	b	196e8 <initrd_image+0xb6e8>
   196e4:	e1a0e005 	mov	lr, r5
   196e8:	e3a05000 	mov	r5, #0
   196ec:	e203200f 	and	r2, r3, #15
   196f0:	e352000a 	cmp	r2, #10
   196f4:	e2d55000 	sbcs	r5, r5, #0
   196f8:	32822030 	addcc	r2, r2, #48	; 0x30
   196fc:	22822057 	addcs	r2, r2, #87	; 0x57
   19700:	e3530010 	cmp	r3, #16
   19704:	e2dc5000 	sbcs	r5, ip, #0
   19708:	e1a03223 	lsr	r3, r3, #4
   1970c:	e1833e0c 	orr	r3, r3, ip, lsl #28
   19710:	e24e5001 	sub	r5, lr, #1
   19714:	e1a0c22c 	lsr	ip, ip, #4
   19718:	e5642001 	strb	r2, [r4, #-1]!
   1971c:	2afffff0 	bcs	196e4 <initrd_image+0xb6e4>
   19720:	e59d3004 	ldr	r3, [sp, #4]
   19724:	e240c001 	sub	ip, r0, #1
   19728:	e2804012 	add	r4, r0, #18
   1972c:	e08ac00c 	add	ip, sl, ip
   19730:	e044400e 	sub	r4, r4, lr
   19734:	e083300e 	add	r3, r3, lr
   19738:	ea000000 	b	19740 <initrd_image+0xb740>
   1973c:	e5f32001 	ldrb	r2, [r3, #1]!
   19740:	e2800001 	add	r0, r0, #1
   19744:	e3500c01 	cmp	r0, #256	; 0x100
   19748:	e5ec2001 	strb	r2, [ip, #1]!
   1974c:	0affff35 	beq	19428 <initrd_image+0xb428>
   19750:	e1500004 	cmp	r0, r4
   19754:	1afffff8 	bne	1973c <initrd_image+0xb73c>
   19758:	eaffff30 	b	19420 <initrd_image+0xb420>
   1975c:	e7ca3000 	strb	r3, [sl, r0]
   19760:	e2800001 	add	r0, r0, #1
   19764:	e3500c01 	cmp	r0, #256	; 0x100
   19768:	e2811001 	add	r1, r1, #1
   1976c:	1affff2b 	bne	19420 <initrd_image+0xb420>
   19770:	eaffffd0 	b	196b8 <initrd_image+0xb6b8>
   19774:	e04cc007 	sub	ip, ip, r7
   19778:	e35c0000 	cmp	ip, #0
   1977c:	daffffb9 	ble	19668 <initrd_image+0xb668>
   19780:	e35000ff 	cmp	r0, #255	; 0xff
   19784:	e7cab000 	strb	fp, [sl, r0]
   19788:	e08a5000 	add	r5, sl, r0
   1978c:	e2802001 	add	r2, r0, #1
   19790:	0a000007 	beq	197b4 <initrd_image+0xb7b4>
   19794:	e08c0000 	add	r0, ip, r0
   19798:	e1a0c005 	mov	ip, r5
   1979c:	e1520000 	cmp	r2, r0
   197a0:	e2822001 	add	r2, r2, #1
   197a4:	0affffaf 	beq	19668 <initrd_image+0xb668>
   197a8:	e3520c01 	cmp	r2, #256	; 0x100
   197ac:	e5ecb001 	strb	fp, [ip, #1]!
   197b0:	1afffff9 	bne	1979c <initrd_image+0xb79c>
   197b4:	e3a00c01 	mov	r0, #256	; 0x100
   197b8:	eaffffaa 	b	19668 <initrd_image+0xb668>
   197bc:	e1a00003 	mov	r0, r3
   197c0:	e12fff1e 	bx	lr
   197c4:	cccccccd 	stclgt	12, cr12, [ip], {205}	; 0xcd
   197c8:	e92d000f 	push	{r0, r1, r2, r3}
   197cc:	e92d4030 	push	{r4, r5, lr}
   197d0:	e24ddf43 	sub	sp, sp, #268	; 0x10c
   197d4:	e28d5008 	add	r5, sp, #8
   197d8:	e28d2f47 	add	r2, sp, #284	; 0x11c
   197dc:	e59d1118 	ldr	r1, [sp, #280]	; 0x118
   197e0:	e1a00005 	mov	r0, r5
   197e4:	e58d2004 	str	r2, [sp, #4]
   197e8:	ebfffefb 	bl	193dc <initrd_image+0xb3dc>
   197ec:	e1a04000 	mov	r4, r0
   197f0:	e1a01005 	mov	r1, r5
   197f4:	e1a02004 	mov	r2, r4
   197f8:	e3a00001 	mov	r0, #1
   197fc:	eb00006e 	bl	199bc <initrd_image+0xb9bc>
   19800:	e1a00004 	mov	r0, r4
   19804:	e28ddf43 	add	sp, sp, #268	; 0x10c
   19808:	e8bd4030 	pop	{r4, r5, lr}
   1980c:	e28dd010 	add	sp, sp, #16
   19810:	e12fff1e 	bx	lr
   19814:	e92d000e 	push	{r1, r2, r3}
   19818:	e92d4010 	push	{r4, lr}
   1981c:	e24dd00c 	sub	sp, sp, #12
   19820:	e28d2018 	add	r2, sp, #24
   19824:	e59d1014 	ldr	r1, [sp, #20]
   19828:	e1a04000 	mov	r4, r0
   1982c:	e58d2004 	str	r2, [sp, #4]
   19830:	ebfffee9 	bl	193dc <initrd_image+0xb3dc>
   19834:	e3a02000 	mov	r2, #0
   19838:	e7c42000 	strb	r2, [r4, r0]
   1983c:	e28dd00c 	add	sp, sp, #12
   19840:	e8bd4010 	pop	{r4, lr}
   19844:	e28dd00c 	add	sp, sp, #12
   19848:	e12fff1e 	bx	lr
   1984c:	e3520000 	cmp	r2, #0
   19850:	0a00000d 	beq	1988c <initrd_image+0xb88c>
   19854:	e92d4010 	push	{r4, lr}
   19858:	e1a04000 	mov	r4, r0
   1985c:	e240c001 	sub	ip, r0, #1
   19860:	e241e001 	sub	lr, r1, #1
   19864:	e1a0300c 	mov	r3, ip
   19868:	e5fe1001 	ldrb	r1, [lr, #1]!
   1986c:	e5fc0001 	ldrb	r0, [ip, #1]!
   19870:	e0500001 	subs	r0, r0, r1
   19874:	18bd8010 	popne	{r4, pc}
   19878:	e2833002 	add	r3, r3, #2
   1987c:	e0433004 	sub	r3, r3, r4
   19880:	e1520003 	cmp	r2, r3
   19884:	1afffff6 	bne	19864 <initrd_image+0xb864>
   19888:	e8bd8010 	pop	{r4, pc}
   1988c:	e1a00002 	mov	r0, r2
   19890:	e12fff1e 	bx	lr
   19894:	e1a03000 	mov	r3, r0
   19898:	e5d00000 	ldrb	r0, [r0]
   1989c:	e3500000 	cmp	r0, #0
   198a0:	012fff1e 	bxeq	lr
   198a4:	e2631001 	rsb	r1, r3, #1
   198a8:	e0810003 	add	r0, r1, r3
   198ac:	e5f32001 	ldrb	r2, [r3, #1]!
   198b0:	e3520000 	cmp	r2, #0
   198b4:	1afffffb 	bne	198a8 <initrd_image+0xb8a8>
   198b8:	e12fff1e 	bx	lr
   198bc:	e5d03000 	ldrb	r3, [r0]
   198c0:	e1a02000 	mov	r2, r0
   198c4:	e3530000 	cmp	r3, #0
   198c8:	0a000007 	beq	198ec <initrd_image+0xb8ec>
   198cc:	e3a00000 	mov	r0, #0
   198d0:	e2431030 	sub	r1, r3, #48	; 0x30
   198d4:	e5f23001 	ldrb	r3, [r2, #1]!
   198d8:	e0800100 	add	r0, r0, r0, lsl #2
   198dc:	e3530000 	cmp	r3, #0
   198e0:	e0810080 	add	r0, r1, r0, lsl #1
   198e4:	1afffff9 	bne	198d0 <initrd_image+0xb8d0>
   198e8:	e12fff1e 	bx	lr
   198ec:	e1a00003 	mov	r0, r3
   198f0:	e12fff1e 	bx	lr
   198f4:	e92d41f0 	push	{r4, r5, r6, r7, r8, lr}
   198f8:	e2103003 	ands	r3, r0, #3
   198fc:	e1a0c000 	mov	ip, r0
   19900:	0a000006 	beq	19920 <initrd_image+0xb920>
   19904:	e2522004 	subs	r2, r2, #4
   19908:	ba00001a 	blt	19978 <initrd_image+0xb978>
   1990c:	e3530002 	cmp	r3, #2
   19910:	b4cc1001 	strblt	r1, [ip], #1
   19914:	d4cc1001 	strble	r1, [ip], #1
   19918:	e4cc1001 	strb	r1, [ip], #1
   1991c:	e0822003 	add	r2, r2, r3
   19920:	e1811401 	orr	r1, r1, r1, lsl #8
   19924:	e1811801 	orr	r1, r1, r1, lsl #16
   19928:	e1a03001 	mov	r3, r1
   1992c:	e1a04001 	mov	r4, r1
   19930:	e1a05001 	mov	r5, r1
   19934:	e1a06001 	mov	r6, r1
   19938:	e1a07001 	mov	r7, r1
   1993c:	e1a08001 	mov	r8, r1
   19940:	e1a0e001 	mov	lr, r1
   19944:	e2522040 	subs	r2, r2, #64	; 0x40
   19948:	a8ac41fa 	stmiage	ip!, {r1, r3, r4, r5, r6, r7, r8, lr}
   1994c:	a8ac41fa 	stmiage	ip!, {r1, r3, r4, r5, r6, r7, r8, lr}
   19950:	cafffffb 	bgt	19944 <initrd_image+0xb944>
   19954:	0a00000c 	beq	1998c <initrd_image+0xb98c>
   19958:	e3120020 	tst	r2, #32
   1995c:	18ac41fa 	stmiane	ip!, {r1, r3, r4, r5, r6, r7, r8, lr}
   19960:	e3120010 	tst	r2, #16
   19964:	18ac00f0 	stmiane	ip!, {r4, r5, r6, r7}
   19968:	e3120008 	tst	r2, #8
   1996c:	18ac000a 	stmiane	ip!, {r1, r3}
   19970:	e3120004 	tst	r2, #4
   19974:	148c1004 	strne	r1, [ip], #4
   19978:	e3120002 	tst	r2, #2
   1997c:	14cc1001 	strbne	r1, [ip], #1
   19980:	14cc1001 	strbne	r1, [ip], #1
   19984:	e3120001 	tst	r2, #1
   19988:	14cc1001 	strbne	r1, [ip], #1
   1998c:	e8bd41f0 	pop	{r4, r5, r6, r7, r8, lr}
   19990:	e12fff1e 	bx	lr
   19994:	e52d7004 	push	{r7}		; (str r7, [sp, #-4]!)
   19998:	e3a07001 	mov	r7, #1
   1999c:	ef000000 	svc	0x00000000
   199a0:	e49d7004 	pop	{r7}		; (ldr r7, [sp], #4)
   199a4:	e12fff1e 	bx	lr
   199a8:	e52d7004 	push	{r7}		; (str r7, [sp, #-4]!)
   199ac:	e3a07003 	mov	r7, #3
   199b0:	ef000000 	svc	0x00000000
   199b4:	e49d7004 	pop	{r7}		; (ldr r7, [sp], #4)
   199b8:	e12fff1e 	bx	lr
   199bc:	e52d7004 	push	{r7}		; (str r7, [sp, #-4]!)
   199c0:	e3a07004 	mov	r7, #4
   199c4:	ef000000 	svc	0x00000000
   199c8:	e49d7004 	pop	{r7}		; (ldr r7, [sp], #4)
   199cc:	e12fff1e 	bx	lr
   199d0:	e52d7004 	push	{r7}		; (str r7, [sp, #-4]!)
   199d4:	e3a07005 	mov	r7, #5
   199d8:	ef000000 	svc	0x00000000
   199dc:	e49d7004 	pop	{r7}		; (ldr r7, [sp], #4)
   199e0:	e12fff1e 	bx	lr
   199e4:	e52d7004 	push	{r7}		; (str r7, [sp, #-4]!)
   199e8:	e3a07006 	mov	r7, #6
   199ec:	ef000000 	svc	0x00000000
   199f0:	e49d7004 	pop	{r7}		; (ldr r7, [sp], #4)
   199f4:	e12fff1e 	bx	lr
   199f8:	e52d7004 	push	{r7}		; (str r7, [sp, #-4]!)
   199fc:	e3a07007 	mov	r7, #7
   19a00:	ef000000 	svc	0x00000000
   19a04:	e49d7004 	pop	{r7}		; (ldr r7, [sp], #4)
   19a08:	e12fff1e 	bx	lr
   19a0c:	e52d7004 	push	{r7}		; (str r7, [sp, #-4]!)
   19a10:	e3a0700b 	mov	r7, #11
   19a14:	ef000000 	svc	0x00000000
   19a18:	e49d7004 	pop	{r7}		; (ldr r7, [sp], #4)
   19a1c:	e12fff1e 	bx	lr
   19a20:	e52d7004 	push	{r7}		; (str r7, [sp, #-4]!)
   19a24:	e3a0700c 	mov	r7, #12
   19a28:	ef000000 	svc	0x00000000
   19a2c:	e49d7004 	pop	{r7}		; (ldr r7, [sp], #4)
   19a30:	e12fff1e 	bx	lr
   19a34:	e52d7004 	push	{r7}		; (str r7, [sp, #-4]!)
   19a38:	e3a070b7 	mov	r7, #183	; 0xb7
   19a3c:	ef000000 	svc	0x00000000
   19a40:	e49d7004 	pop	{r7}		; (ldr r7, [sp], #4)
   19a44:	e12fff1e 	bx	lr
   19a48:	e52d7004 	push	{r7}		; (str r7, [sp, #-4]!)
   19a4c:	e3a07014 	mov	r7, #20
   19a50:	ef000000 	svc	0x00000000
   19a54:	e49d7004 	pop	{r7}		; (ldr r7, [sp], #4)
   19a58:	e12fff1e 	bx	lr
   19a5c:	e52d7004 	push	{r7}		; (str r7, [sp, #-4]!)
   19a60:	e3a0702b 	mov	r7, #43	; 0x2b
   19a64:	ef000000 	svc	0x00000000
   19a68:	e49d7004 	pop	{r7}		; (ldr r7, [sp], #4)
   19a6c:	e12fff1e 	bx	lr
   19a70:	e52d7004 	push	{r7}		; (str r7, [sp, #-4]!)
   19a74:	e3a0706a 	mov	r7, #106	; 0x6a
   19a78:	ef000000 	svc	0x00000000
   19a7c:	e49d7004 	pop	{r7}		; (ldr r7, [sp], #4)
   19a80:	e12fff1e 	bx	lr
   19a84:	e52d7004 	push	{r7}		; (str r7, [sp, #-4]!)
   19a88:	e3a07074 	mov	r7, #116	; 0x74
   19a8c:	ef000000 	svc	0x00000000
   19a90:	e49d7004 	pop	{r7}		; (ldr r7, [sp], #4)
   19a94:	e12fff1e 	bx	lr
   19a98:	e52d7004 	push	{r7}		; (str r7, [sp, #-4]!)
   19a9c:	e3a0707a 	mov	r7, #122	; 0x7a
   19aa0:	ef000000 	svc	0x00000000
   19aa4:	e49d7004 	pop	{r7}		; (ldr r7, [sp], #4)
   19aa8:	e12fff1e 	bx	lr
   19aac:	e52d7004 	push	{r7}		; (str r7, [sp, #-4]!)
   19ab0:	e3a0708d 	mov	r7, #141	; 0x8d
   19ab4:	ef000000 	svc	0x00000000
   19ab8:	e49d7004 	pop	{r7}		; (ldr r7, [sp], #4)
   19abc:	e12fff1e 	bx	lr
   19ac0:	e52d7004 	push	{r7}		; (str r7, [sp, #-4]!)
   19ac4:	e3a070a2 	mov	r7, #162	; 0xa2
   19ac8:	ef000000 	svc	0x00000000
   19acc:	e49d7004 	pop	{r7}		; (ldr r7, [sp], #4)
   19ad0:	e12fff1e 	bx	lr
   19ad4:	e52d7004 	push	{r7}		; (str r7, [sp, #-4]!)
   19ad8:	e3a070be 	mov	r7, #190	; 0xbe
   19adc:	ef000000 	svc	0x00000000
   19ae0:	e49d7004 	pop	{r7}		; (ldr r7, [sp], #4)
   19ae4:	e12fff1e 	bx	lr
   19ae8:	e52d7004 	push	{r7}		; (str r7, [sp, #-4]!)
   19aec:	e3a07036 	mov	r7, #54	; 0x36
   19af0:	ef000000 	svc	0x00000000
   19af4:	e49d7004 	pop	{r7}		; (ldr r7, [sp], #4)
   19af8:	e12fff1e 	bx	lr
   19afc:	e52d7004 	push	{r7}		; (str r7, [sp, #-4]!)
   19b00:	e3a07036 	mov	r7, #54	; 0x36
   19b04:	ef000000 	svc	0x00000000
   19b08:	e49d7004 	pop	{r7}		; (ldr r7, [sp], #4)
   19b0c:	e12fff1e 	bx	lr
   19b10:	e52d7004 	push	{r7}		; (str r7, [sp, #-4]!)
   19b14:	e3a0700d 	mov	r7, #13
   19b18:	ef000000 	svc	0x00000000
   19b1c:	e49d7004 	pop	{r7}		; (ldr r7, [sp], #4)
   19b20:	e12fff1e 	bx	lr
   19b24:	e52d7004 	push	{r7}		; (str r7, [sp, #-4]!)
   19b28:	e3a07058 	mov	r7, #88	; 0x58
   19b2c:	ef000000 	svc	0x00000000
   19b30:	e49d7004 	pop	{r7}		; (ldr r7, [sp], #4)
   19b34:	e12fff1e 	bx	lr
   19b38:	e3500001 	cmp	r0, #1
   19b3c:	e92d4010 	push	{r4, lr}
   19b40:	da00001d 	ble	19bbc <initrd_image+0xbbbc>
   19b44:	e3a0e000 	mov	lr, #0
   19b48:	e1a03000 	mov	r3, r0
   19b4c:	e1a0000e 	mov	r0, lr
   19b50:	e241c004 	sub	ip, r1, #4
   19b54:	e08cc103 	add	ip, ip, r3, lsl #2
   19b58:	e5b13004 	ldr	r3, [r1, #4]!
   19b5c:	e5d32000 	ldrb	r2, [r3]
   19b60:	e352002d 	cmp	r2, #45	; 0x2d
   19b64:	11a00003 	movne	r0, r3
   19b68:	1a000002 	bne	19b78 <initrd_image+0xbb78>
   19b6c:	e5d33001 	ldrb	r3, [r3, #1]
   19b70:	e353006c 	cmp	r3, #108	; 0x6c
   19b74:	03a0e001 	moveq	lr, #1
   19b78:	e15c0001 	cmp	ip, r1
   19b7c:	1afffff5 	bne	19b58 <initrd_image+0xbb58>
   19b80:	e3500000 	cmp	r0, #0
   19b84:	0a000006 	beq	19ba4 <initrd_image+0xbba4>
   19b88:	e35e0000 	cmp	lr, #0
   19b8c:	1a000002 	bne	19b9c <initrd_image+0xbb9c>
   19b90:	ebfffb8c 	bl	189c8 <initrd_image+0xa9c8>
   19b94:	e3a00000 	mov	r0, #0
   19b98:	e8bd8010 	pop	{r4, pc}
   19b9c:	ebfffd78 	bl	19184 <initrd_image+0xb184>
   19ba0:	eafffffb 	b	19b94 <initrd_image+0xbb94>
   19ba4:	e35e0000 	cmp	lr, #0
   19ba8:	0a000003 	beq	19bbc <initrd_image+0xbbbc>
   19bac:	e59f0018 	ldr	r0, [pc, #24]	; 19bcc <initrd_image+0xbbcc>
   19bb0:	e08f0000 	add	r0, pc, r0
   19bb4:	ebfffd72 	bl	19184 <initrd_image+0xb184>
   19bb8:	eafffff5 	b	19b94 <initrd_image+0xbb94>
   19bbc:	e59f000c 	ldr	r0, [pc, #12]	; 19bd0 <initrd_image+0xbbd0>
   19bc0:	e08f0000 	add	r0, pc, r0
   19bc4:	ebfffb7f 	bl	189c8 <initrd_image+0xa9c8>
   19bc8:	eafffff1 	b	19b94 <initrd_image+0xbb94>
   19bcc:	00000e9c 	muleq	r0, ip, lr
   19bd0:	00000e8c 	andeq	r0, r0, ip, lsl #29
	...
   1a940:	0000001f 	andeq	r0, r0, pc, lsl r0
   1a944:	0000001c 	andeq	r0, r0, ip, lsl r0
   1a948:	0000001f 	andeq	r0, r0, pc, lsl r0
   1a94c:	0000001e 	andeq	r0, r0, lr, lsl r0
   1a950:	0000001f 	andeq	r0, r0, pc, lsl r0
   1a954:	0000001e 	andeq	r0, r0, lr, lsl r0
   1a958:	0000001f 	andeq	r0, r0, pc, lsl r0
   1a95c:	0000001f 	andeq	r0, r0, pc, lsl r0
   1a960:	0000001e 	andeq	r0, r0, lr, lsl r0
   1a964:	0000001f 	andeq	r0, r0, pc, lsl r0
   1a968:	0000001e 	andeq	r0, r0, lr, lsl r0
   1a96c:	0000001f 	andeq	r0, r0, pc, lsl r0
   1a970:	006e614a 	rsbeq	r6, lr, sl, asr #2
   1a974:	00626546 	rsbeq	r6, r2, r6, asr #10
   1a978:	0072614d 	rsbseq	r6, r2, sp, asr #2
   1a97c:	00727041 	rsbseq	r7, r2, r1, asr #32
   1a980:	0079614d 	rsbseq	r6, r9, sp, asr #2
   1a984:	006e754a 	rsbeq	r7, lr, sl, asr #10
   1a988:	006c754a 	rsbeq	r7, ip, sl, asr #10
   1a98c:	00677541 	rsbeq	r7, r7, r1, asr #10
   1a990:	00706553 	rsbseq	r6, r0, r3, asr r5
   1a994:	0074634f 	rsbseq	r6, r4, pc, asr #6
   1a998:	00766f4e 	rsbseq	r6, r6, lr, asr #30
   1a99c:	00636544 	rsbeq	r6, r3, r4, asr #10
   1a9a0:	6d305b1b 	fldmdbxvs	r0!, {d5-d17}	;@ Deprecated
   1a9a4:	00000000 	andeq	r0, r0, r0
   1a9a8:	3b315b1b 	blcc	c7161c <__bss_end+0xc3861c>
   1a9ac:	006d3433 	rsbeq	r3, sp, r3, lsr r4
   1a9b0:	73257325 			; <UNDEFINED> instruction: 0x73257325
   1a9b4:	00007325 	andeq	r7, r0, r5, lsr #6
   1a9b8:	3b315b1b 	blcc	c7162c <__bss_end+0xc3862c>
   1a9bc:	006d3233 	rsbeq	r3, sp, r3, lsr r2
   1a9c0:	6e6e6143 	powvsem	f6, f6, f3
   1a9c4:	6120746f 			; <UNDEFINED> instruction: 0x6120746f
   1a9c8:	73656363 	cmnvc	r5, #-1946157055	; 0x8c000001
   1a9cc:	73252073 			; <UNDEFINED> instruction: 0x73252073
   1a9d0:	6f6e203a 	svcvs	0x006e203a
   1a9d4:	63757320 	cmnvs	r5, #32, 6	; 0x80000000
   1a9d8:	69662068 	stmdbvs	r6!, {r3, r5, r6, sp}^
   1a9dc:	6f20656c 	svcvs	0x0020656c
   1a9e0:	69642072 	stmdbvs	r4!, {r1, r4, r5, r6, sp}^
   1a9e4:	74636572 	strbtvc	r6, [r3], #-1394	; 0xfffffa8e
   1a9e8:	2179726f 	cmncs	r9, pc, ror #4
   1a9ec:	0000000a 	andeq	r0, r0, sl
   1a9f0:	6f727245 	svcvs	0x00727245
   1a9f4:	25202172 	strcs	r2, [r0, #-370]!	; 0xfffffe8e
   1a9f8:	00000a73 	andeq	r0, r0, r3, ror sl
   1a9fc:	00000020 	andeq	r0, r0, r0, lsr #32
   1aa00:	00000066 	andeq	r0, r0, r6, rrx
   1aa04:	00000063 	andeq	r0, r0, r3, rrx
   1aa08:	00000064 	andeq	r0, r0, r4, rrx
   1aa0c:	00000062 	andeq	r0, r0, r2, rrx
   1aa10:	0000002d 	andeq	r0, r0, sp, lsr #32
   1aa14:	0000006c 	andeq	r0, r0, ip, rrx
   1aa18:	00000073 	andeq	r0, r0, r3, ror r0
   1aa1c:	0000003f 	andeq	r0, r0, pc, lsr r0
   1aa20:	00000072 	andeq	r0, r0, r2, ror r0
   1aa24:	00000077 	andeq	r0, r0, r7, ror r0
   1aa28:	00000078 	andeq	r0, r0, r8, ror r0
   1aa2c:	64322520 	ldrtvs	r2, [r2], #-1312	; 0xfffffae0
   1aa30:	20642520 	rsbcs	r2, r4, r0, lsr #10
   1aa34:	00206425 	eoreq	r6, r0, r5, lsr #8
   1aa38:	20643225 	rsbcs	r3, r4, r5, lsr #4
   1aa3c:	25207325 	strcs	r7, [r0, #-805]!	; 0xfffffcdb
   1aa40:	30252064 	eorcc	r2, r5, r4, rrx
   1aa44:	253a6432 	ldrcs	r6, [sl, #-1074]!	; 0xfffffbce
   1aa48:	3a643230 	bcc	1927310 <__bss_end+0x18ee310>
   1aa4c:	64323025 	ldrtvs	r3, [r2], #-37	; 0xffffffdb
   1aa50:	00000000 	andeq	r0, r0, r0
   1aa54:	0000002e 	andeq	r0, r0, lr, lsr #32
   1aa58:	69766944 	ldmdbvs	r6!, {r2, r6, r8, fp, sp, lr}^
   1aa5c:	6e6f6973 			; <UNDEFINED> instruction: 0x6e6f6973
   1aa60:	20796220 	rsbscs	r6, r9, r0, lsr #4
   1aa64:	6f72657a 	svcvs	0x0072657a
   1aa68:	00000a21 	andeq	r0, r0, r1, lsr #20
	...
   1b940:	6e6b6e55 	mcrvs	14, 3, r6, cr11, cr5, {2}
   1b944:	206e776f 	rsbcs	r7, lr, pc, ror #14
   1b948:	6f727265 	svcvs	0x00727265
   1b94c:	00000072 	andeq	r0, r0, r2, ror r0
   1b950:	73206f4e 			; <UNDEFINED> instruction: 0x73206f4e
   1b954:	20686375 	rsbcs	r6, r8, r5, ror r3
   1b958:	74737973 	ldrbtvc	r7, [r3], #-2419	; 0xfffff68d
   1b95c:	63206d65 			; <UNDEFINED> instruction: 0x63206d65
   1b960:	006c6c61 	rsbeq	r6, ip, r1, ror #24
   1b964:	75736552 	ldrbvc	r6, [r3, #-1362]!	; 0xfffffaae
   1b968:	6f20746c 	svcvs	0x0020746c
   1b96c:	6f207475 	svcvs	0x00207475
   1b970:	61722066 	cmnvs	r2, r6, rrx
   1b974:	0065676e 	rsbeq	r6, r5, lr, ror #14
   1b978:	20746f4e 	rsbscs	r6, r4, lr, asr #30
   1b97c:	756f6e65 	strbvc	r6, [pc, #-3685]!	; 1ab1f <initrd_image+0xcb1f>
   1b980:	66206867 	strtvs	r6, [r0], -r7, ror #16
   1b984:	00007364 	andeq	r7, r0, r4, ror #6
   1b988:	20746f4e 	rsbscs	r6, r4, lr, asr #30
   1b98c:	69642061 	stmdbvs	r4!, {r0, r5, r6, sp}^
   1b990:	74636572 	strbtvc	r6, [r3], #-1394	; 0xfffffa8e
   1b994:	0079726f 	rsbseq	r7, r9, pc, ror #4
   1b998:	73206f4e 			; <UNDEFINED> instruction: 0x73206f4e
   1b99c:	20686375 	rsbcs	r6, r8, r5, ror r3
   1b9a0:	69766564 	ldmdbvs	r6!, {r2, r5, r6, r8, sl, sp, lr}^
   1b9a4:	00006563 	andeq	r6, r0, r3, ror #10
   1b9a8:	20746f4e 	rsbscs	r6, r4, lr, asr #30
   1b9ac:	756f6e65 	strbvc	r6, [pc, #-3685]!	; 1ab4f <initrd_image+0xcb4f>
   1b9b0:	6d206e67 	stcvs	14, cr6, [r0, #-412]!	; 0xfffffe64
   1b9b4:	726f6d65 	rsbvc	r6, pc, #6464	; 0x1940
   1b9b8:	00000079 	andeq	r0, r0, r9, ror r0
   1b9bc:	20646142 	rsbcs	r6, r4, r2, asr #2
   1b9c0:	656c6966 	strbvs	r6, [ip, #-2406]!	; 0xfffff69a
   1b9c4:	73656420 	cmnvc	r5, #32, 8	; 0x20000000
   1b9c8:	70697263 	rsbvc	r7, r9, r3, ror #4
   1b9cc:	00726f74 	rsbseq	r6, r2, r4, ror pc
   1b9d0:	656c6946 	strbvs	r6, [ip, #-2374]!	; 0xfffff6ba
   1b9d4:	746f6e20 	strbtvc	r6, [pc], #-3616	; 1b9dc <initrd_image+0xd9dc>
   1b9d8:	756f6620 	strbvc	r6, [pc, #-1568]!	; 1b3c0 <initrd_image+0xd3c0>
   1b9dc:	0000646e 	andeq	r6, r0, lr, ror #8
   1b9e0:	65206f4e 	strvs	r6, [r0, #-3918]!	; 0xfffff0b2
   1b9e4:	726f7272 	rsbvc	r7, pc, #536870919	; 0x20000007
   1b9e8:	00000000 	andeq	r0, r0, r0
   1b9ec:	0000c000 	andeq	ip, r0, r0
	...
   1b9fc:	0000b0a0 	andeq	fp, r0, r0, lsr #1
   1ba00:	0000b000 	andeq	fp, r0, r0
   1ba04:	0000b090 	muleq	r0, r0, r0
   1ba08:	0000b000 	andeq	fp, r0, r0
   1ba0c:	0000b000 	andeq	fp, r0, r0
   1ba10:	0000b000 	andeq	fp, r0, r0
   1ba14:	0000b000 	andeq	fp, r0, r0
   1ba18:	0000b000 	andeq	fp, r0, r0
   1ba1c:	0000b000 	andeq	fp, r0, r0
   1ba20:	0000b07c 	andeq	fp, r0, ip, ror r0
   1ba24:	0000b000 	andeq	fp, r0, r0
   1ba28:	0000b000 	andeq	fp, r0, r0
   1ba2c:	0000b068 	andeq	fp, r0, r8, rrx
   1ba30:	0000b000 	andeq	fp, r0, r0
   1ba34:	0000b000 	andeq	fp, r0, r0
   1ba38:	0000b000 	andeq	fp, r0, r0
   1ba3c:	0000b000 	andeq	fp, r0, r0
   1ba40:	0000b000 	andeq	fp, r0, r0
   1ba44:	0000b000 	andeq	fp, r0, r0
   1ba48:	0000b058 	andeq	fp, r0, r8, asr r0
   1ba4c:	0000b048 	andeq	fp, r0, r8, asr #32
   1ba50:	0000b000 	andeq	fp, r0, r0
   1ba54:	0000b000 	andeq	fp, r0, r0
   1ba58:	0000b038 	andeq	fp, r0, r8, lsr r0
   1ba5c:	0000b000 	andeq	fp, r0, r0
   1ba60:	0000b000 	andeq	fp, r0, r0
   1ba64:	0000b000 	andeq	fp, r0, r0
   1ba68:	0000b000 	andeq	fp, r0, r0
   1ba6c:	0000b000 	andeq	fp, r0, r0
   1ba70:	0000b000 	andeq	fp, r0, r0
   1ba74:	0000b000 	andeq	fp, r0, r0
   1ba78:	0000b000 	andeq	fp, r0, r0
   1ba7c:	0000b000 	andeq	fp, r0, r0
   1ba80:	0000b000 	andeq	fp, r0, r0
   1ba84:	0000b024 	andeq	fp, r0, r4, lsr #32
   1ba88:	0000b000 	andeq	fp, r0, r0
   1ba8c:	0000b000 	andeq	fp, r0, r0
   1ba90:	0000b000 	andeq	fp, r0, r0
   1ba94:	0000b000 	andeq	fp, r0, r0
   1ba98:	0000b010 	andeq	fp, r0, r0, lsl r0
   1ba9c:	00000000 	andeq	r0, r0, r0
   1baa0:	4aeb0000 	bmi	ffadbaa8 <__bss_end+0xffaa2aa8>
   1baa4:	00000000 	andeq	r0, r0, r0
   1baa8:	78100000 	ldmdavc	r0, {}	; <UNPREDICTABLE>
   1baac:	d09a2b1b 	addsle	r2, sl, fp, lsl fp
   1bab0:	6e697270 	mcrvs	2, 3, r7, cr9, cr0, {3}
   1bab4:	00006174 	andeq	r6, r0, r4, ror r1
	...
   1bac0:	e92d4010 	push	{r4, lr}
   1bac4:	eb000235 	bl	1c3a0 <initrd_image+0xe3a0>
   1bac8:	e8bd4010 	pop	{r4, lr}
   1bacc:	ea0001ca 	b	1c1fc <initrd_image+0xe1fc>
   1bad0:	e92d4010 	push	{r4, lr}
   1bad4:	e2514000 	subs	r4, r1, #0
   1bad8:	0a000009 	beq	1bb04 <initrd_image+0xdb04>
   1badc:	e1540000 	cmp	r4, r0
   1bae0:	e1a02000 	mov	r2, r0
   1bae4:	8a00000b 	bhi	1bb18 <initrd_image+0xdb18>
   1bae8:	e1a03004 	mov	r3, r4
   1baec:	e3a00000 	mov	r0, #0
   1baf0:	e0833004 	add	r3, r3, r4
   1baf4:	e1520003 	cmp	r2, r3
   1baf8:	e2800001 	add	r0, r0, #1
   1bafc:	2afffffb 	bcs	1baf0 <initrd_image+0xdaf0>
   1bb00:	e8bd8010 	pop	{r4, pc}
   1bb04:	e59f0014 	ldr	r0, [pc, #20]	; 1bb20 <initrd_image+0xdb20>
   1bb08:	e08f0000 	add	r0, pc, r0
   1bb0c:	eb0000ff 	bl	1bf10 <initrd_image+0xdf10>
   1bb10:	e1a00004 	mov	r0, r4
   1bb14:	e8bd8010 	pop	{r4, pc}
   1bb18:	e3a00000 	mov	r0, #0
   1bb1c:	e8bd8010 	pop	{r4, pc}
   1bb20:	00001004 	andeq	r1, r0, r4
   1bb24:	e5d13000 	ldrb	r3, [r1]
   1bb28:	e3530000 	cmp	r3, #0
   1bb2c:	0a0000f4 	beq	1bf04 <initrd_image+0xdf04>
   1bb30:	e92d4ff0 	push	{r4, r5, r6, r7, r8, r9, sl, fp, lr}
   1bb34:	e24dd024 	sub	sp, sp, #36	; 0x24
   1bb38:	e1a08002 	mov	r8, r2
   1bb3c:	e28d200c 	add	r2, sp, #12
   1bb40:	e1a0a000 	mov	sl, r0
   1bb44:	e59f93c0 	ldr	r9, [pc, #960]	; 1bf0c <initrd_image+0xdf0c>
   1bb48:	e3a00000 	mov	r0, #0
   1bb4c:	e58d2004 	str	r2, [sp, #4]
   1bb50:	ea000009 	b	1bb7c <initrd_image+0xdb7c>
   1bb54:	e7ca3000 	strb	r3, [sl, r0]
   1bb58:	e2800001 	add	r0, r0, #1
   1bb5c:	e3500c01 	cmp	r0, #256	; 0x100
   1bb60:	0a0000a6 	beq	1be00 <initrd_image+0xde00>
   1bb64:	e2811001 	add	r1, r1, #1
   1bb68:	e35000ff 	cmp	r0, #255	; 0xff
   1bb6c:	0a000037 	beq	1bc50 <initrd_image+0xdc50>
   1bb70:	e5d13000 	ldrb	r3, [r1]
   1bb74:	e3530000 	cmp	r3, #0
   1bb78:	0a000034 	beq	1bc50 <initrd_image+0xdc50>
   1bb7c:	e3530025 	cmp	r3, #37	; 0x25
   1bb80:	1afffff3 	bne	1bb54 <initrd_image+0xdb54>
   1bb84:	e5d13001 	ldrb	r3, [r1, #1]
   1bb88:	e243c030 	sub	ip, r3, #48	; 0x30
   1bb8c:	e6efc07c 	uxtb	ip, ip
   1bb90:	e35c0009 	cmp	ip, #9
   1bb94:	83a0c000 	movhi	ip, #0
   1bb98:	83a0b020 	movhi	fp, #32
   1bb9c:	82811001 	addhi	r1, r1, #1
   1bba0:	9a000045 	bls	1bcbc <initrd_image+0xdcbc>
   1bba4:	e3530069 	cmp	r3, #105	; 0x69
   1bba8:	13530064 	cmpne	r3, #100	; 0x64
   1bbac:	1a000029 	bne	1bc58 <initrd_image+0xdc58>
   1bbb0:	e4983004 	ldr	r3, [r8], #4
   1bbb4:	e2811001 	add	r1, r1, #1
   1bbb8:	e3530000 	cmp	r3, #0
   1bbbc:	a3a07000 	movge	r7, #0
   1bbc0:	ba00004e 	blt	1bd00 <initrd_image+0xdd00>
   1bbc4:	e3a05009 	mov	r5, #9
   1bbc8:	e2877009 	add	r7, r7, #9
   1bbcc:	e28d6016 	add	r6, sp, #22
   1bbd0:	e0842399 	umull	r2, r4, r9, r3
   1bbd4:	e1a041a4 	lsr	r4, r4, #3
   1bbd8:	e0842104 	add	r2, r4, r4, lsl #2
   1bbdc:	e0432082 	sub	r2, r3, r2, lsl #1
   1bbe0:	e1a0e005 	mov	lr, r5
   1bbe4:	e2822030 	add	r2, r2, #48	; 0x30
   1bbe8:	e2455001 	sub	r5, r5, #1
   1bbec:	e3530009 	cmp	r3, #9
   1bbf0:	e6ef2072 	uxtb	r2, r2
   1bbf4:	e1a03004 	mov	r3, r4
   1bbf8:	e0474005 	sub	r4, r7, r5
   1bbfc:	e5662001 	strb	r2, [r6, #-1]!
   1bc00:	e6ef4074 	uxtb	r4, r4
   1bc04:	8afffff1 	bhi	1bbd0 <initrd_image+0xdbd0>
   1bc08:	e15c0004 	cmp	ip, r4
   1bc0c:	8a000043 	bhi	1bd20 <initrd_image+0xdd20>
   1bc10:	e59d4004 	ldr	r4, [sp, #4]
   1bc14:	e26ec00a 	rsb	ip, lr, #10
   1bc18:	e2403001 	sub	r3, r0, #1
   1bc1c:	e08a3003 	add	r3, sl, r3
   1bc20:	e084e00e 	add	lr, r4, lr
   1bc24:	e08cc000 	add	ip, ip, r0
   1bc28:	ea000000 	b	1bc30 <initrd_image+0xdc30>
   1bc2c:	e5fe2001 	ldrb	r2, [lr, #1]!
   1bc30:	e2800001 	add	r0, r0, #1
   1bc34:	e3500c01 	cmp	r0, #256	; 0x100
   1bc38:	e5e32001 	strb	r2, [r3, #1]!
   1bc3c:	0affffcb 	beq	1bb70 <initrd_image+0xdb70>
   1bc40:	e15c0000 	cmp	ip, r0
   1bc44:	1afffff8 	bne	1bc2c <initrd_image+0xdc2c>
   1bc48:	e35000ff 	cmp	r0, #255	; 0xff
   1bc4c:	1affffc7 	bne	1bb70 <initrd_image+0xdb70>
   1bc50:	e28dd024 	add	sp, sp, #36	; 0x24
   1bc54:	e8bd8ff0 	pop	{r4, r5, r6, r7, r8, r9, sl, fp, pc}
   1bc58:	e353006c 	cmp	r3, #108	; 0x6c
   1bc5c:	0a00006a 	beq	1be0c <initrd_image+0xde0c>
   1bc60:	e20320f7 	and	r2, r3, #247	; 0xf7
   1bc64:	e3520070 	cmp	r2, #112	; 0x70
   1bc68:	0a00003d 	beq	1bd64 <initrd_image+0xdd64>
   1bc6c:	e3530063 	cmp	r3, #99	; 0x63
   1bc70:	0a00005c 	beq	1bde8 <initrd_image+0xdde8>
   1bc74:	e3530025 	cmp	r3, #37	; 0x25
   1bc78:	0a000089 	beq	1bea4 <initrd_image+0xdea4>
   1bc7c:	e3530073 	cmp	r3, #115	; 0x73
   1bc80:	1affffb8 	bne	1bb68 <initrd_image+0xdb68>
   1bc84:	e498c004 	ldr	ip, [r8], #4
   1bc88:	e2402001 	sub	r2, r0, #1
   1bc8c:	e2811001 	add	r1, r1, #1
   1bc90:	e08a2002 	add	r2, sl, r2
   1bc94:	e04cc000 	sub	ip, ip, r0
   1bc98:	ea000003 	b	1bcac <initrd_image+0xdcac>
   1bc9c:	e2800001 	add	r0, r0, #1
   1bca0:	e3500c01 	cmp	r0, #256	; 0x100
   1bca4:	e5e23001 	strb	r3, [r2, #1]!
   1bca8:	0affffb0 	beq	1bb70 <initrd_image+0xdb70>
   1bcac:	e7dc3000 	ldrb	r3, [ip, r0]
   1bcb0:	e3530000 	cmp	r3, #0
   1bcb4:	1afffff8 	bne	1bc9c <initrd_image+0xdc9c>
   1bcb8:	eaffffaa 	b	1bb68 <initrd_image+0xdb68>
   1bcbc:	e3530030 	cmp	r3, #48	; 0x30
   1bcc0:	e5d13002 	ldrb	r3, [r1, #2]
   1bcc4:	03a0b030 	moveq	fp, #48	; 0x30
   1bcc8:	e2432030 	sub	r2, r3, #48	; 0x30
   1bccc:	13a0b020 	movne	fp, #32
   1bcd0:	e3520009 	cmp	r2, #9
   1bcd4:	e2811002 	add	r1, r1, #2
   1bcd8:	8affffb1 	bhi	1bba4 <initrd_image+0xdba4>
   1bcdc:	e08cc10c 	add	ip, ip, ip, lsl #2
   1bce0:	e083c08c 	add	ip, r3, ip, lsl #1
   1bce4:	e5f13001 	ldrb	r3, [r1, #1]!
   1bce8:	e24cc030 	sub	ip, ip, #48	; 0x30
   1bcec:	e2432030 	sub	r2, r3, #48	; 0x30
   1bcf0:	e3520009 	cmp	r2, #9
   1bcf4:	e20cc0ff 	and	ip, ip, #255	; 0xff
   1bcf8:	9afffff7 	bls	1bcdc <initrd_image+0xdcdc>
   1bcfc:	eaffffa8 	b	1bba4 <initrd_image+0xdba4>
   1bd00:	e3a0202d 	mov	r2, #45	; 0x2d
   1bd04:	e7ca2000 	strb	r2, [sl, r0]
   1bd08:	e2800001 	add	r0, r0, #1
   1bd0c:	e3500c01 	cmp	r0, #256	; 0x100
   1bd10:	0a00003a 	beq	1be00 <initrd_image+0xde00>
   1bd14:	e3a07001 	mov	r7, #1
   1bd18:	e2633000 	rsb	r3, r3, #0
   1bd1c:	eaffffa8 	b	1bbc4 <initrd_image+0xdbc4>
   1bd20:	e04c4004 	sub	r4, ip, r4
   1bd24:	e3540000 	cmp	r4, #0
   1bd28:	daffffb8 	ble	1bc10 <initrd_image+0xdc10>
   1bd2c:	e35000ff 	cmp	r0, #255	; 0xff
   1bd30:	e7cab000 	strb	fp, [sl, r0]
   1bd34:	e08ac000 	add	ip, sl, r0
   1bd38:	e2803001 	add	r3, r0, #1
   1bd3c:	0a000006 	beq	1bd5c <initrd_image+0xdd5c>
   1bd40:	e0840000 	add	r0, r4, r0
   1bd44:	e1500003 	cmp	r0, r3
   1bd48:	e2833001 	add	r3, r3, #1
   1bd4c:	0affffaf 	beq	1bc10 <initrd_image+0xdc10>
   1bd50:	e3530c01 	cmp	r3, #256	; 0x100
   1bd54:	e5ecb001 	strb	fp, [ip, #1]!
   1bd58:	1afffff9 	bne	1bd44 <initrd_image+0xdd44>
   1bd5c:	e3a00c01 	mov	r0, #256	; 0x100
   1bd60:	eaffffaa 	b	1bc10 <initrd_image+0xdc10>
   1bd64:	e3a0e009 	mov	lr, #9
   1bd68:	e4982004 	ldr	r2, [r8], #4
   1bd6c:	e2811001 	add	r1, r1, #1
   1bd70:	e28d5016 	add	r5, sp, #22
   1bd74:	ea000000 	b	1bd7c <initrd_image+0xdd7c>
   1bd78:	e1a0e006 	mov	lr, r6
   1bd7c:	e202300f 	and	r3, r2, #15
   1bd80:	e3530009 	cmp	r3, #9
   1bd84:	92833030 	addls	r3, r3, #48	; 0x30
   1bd88:	82833057 	addhi	r3, r3, #87	; 0x57
   1bd8c:	e26e400a 	rsb	r4, lr, #10
   1bd90:	e352000f 	cmp	r2, #15
   1bd94:	e24e6001 	sub	r6, lr, #1
   1bd98:	e1a02222 	lsr	r2, r2, #4
   1bd9c:	e5653001 	strb	r3, [r5, #-1]!
   1bda0:	e6ef7074 	uxtb	r7, r4
   1bda4:	8afffff3 	bhi	1bd78 <initrd_image+0xdd78>
   1bda8:	e15c0007 	cmp	ip, r7
   1bdac:	8a000042 	bhi	1bebc <initrd_image+0xdebc>
   1bdb0:	e59d2004 	ldr	r2, [sp, #4]
   1bdb4:	e0844000 	add	r4, r4, r0
   1bdb8:	e082e00e 	add	lr, r2, lr
   1bdbc:	e2402001 	sub	r2, r0, #1
   1bdc0:	e08a2002 	add	r2, sl, r2
   1bdc4:	ea000000 	b	1bdcc <initrd_image+0xddcc>
   1bdc8:	e5fe3001 	ldrb	r3, [lr, #1]!
   1bdcc:	e2800001 	add	r0, r0, #1
   1bdd0:	e3500c01 	cmp	r0, #256	; 0x100
   1bdd4:	e5e23001 	strb	r3, [r2, #1]!
   1bdd8:	0affff64 	beq	1bb70 <initrd_image+0xdb70>
   1bddc:	e1500004 	cmp	r0, r4
   1bde0:	1afffff8 	bne	1bdc8 <initrd_image+0xddc8>
   1bde4:	eaffff5f 	b	1bb68 <initrd_image+0xdb68>
   1bde8:	e4983004 	ldr	r3, [r8], #4
   1bdec:	e2811001 	add	r1, r1, #1
   1bdf0:	e7ca3000 	strb	r3, [sl, r0]
   1bdf4:	e2800001 	add	r0, r0, #1
   1bdf8:	e3500c01 	cmp	r0, #256	; 0x100
   1bdfc:	1affff59 	bne	1bb68 <initrd_image+0xdb68>
   1be00:	e3a00c01 	mov	r0, #256	; 0x100
   1be04:	e28dd024 	add	sp, sp, #36	; 0x24
   1be08:	e8bd8ff0 	pop	{r4, r5, r6, r7, r8, r9, sl, fp, pc}
   1be0c:	e2888007 	add	r8, r8, #7
   1be10:	e3c88007 	bic	r8, r8, #7
   1be14:	e598c004 	ldr	ip, [r8, #4]
   1be18:	e3a0e011 	mov	lr, #17
   1be1c:	e4983008 	ldr	r3, [r8], #8
   1be20:	e2811003 	add	r1, r1, #3
   1be24:	e28d401e 	add	r4, sp, #30
   1be28:	ea000000 	b	1be30 <initrd_image+0xde30>
   1be2c:	e1a0e005 	mov	lr, r5
   1be30:	e3a05000 	mov	r5, #0
   1be34:	e203200f 	and	r2, r3, #15
   1be38:	e352000a 	cmp	r2, #10
   1be3c:	e2d55000 	sbcs	r5, r5, #0
   1be40:	32822030 	addcc	r2, r2, #48	; 0x30
   1be44:	22822057 	addcs	r2, r2, #87	; 0x57
   1be48:	e3530010 	cmp	r3, #16
   1be4c:	e2dc5000 	sbcs	r5, ip, #0
   1be50:	e1a03223 	lsr	r3, r3, #4
   1be54:	e1833e0c 	orr	r3, r3, ip, lsl #28
   1be58:	e24e5001 	sub	r5, lr, #1
   1be5c:	e1a0c22c 	lsr	ip, ip, #4
   1be60:	e5642001 	strb	r2, [r4, #-1]!
   1be64:	2afffff0 	bcs	1be2c <initrd_image+0xde2c>
   1be68:	e59d3004 	ldr	r3, [sp, #4]
   1be6c:	e240c001 	sub	ip, r0, #1
   1be70:	e2804012 	add	r4, r0, #18
   1be74:	e08ac00c 	add	ip, sl, ip
   1be78:	e044400e 	sub	r4, r4, lr
   1be7c:	e083300e 	add	r3, r3, lr
   1be80:	ea000000 	b	1be88 <initrd_image+0xde88>
   1be84:	e5f32001 	ldrb	r2, [r3, #1]!
   1be88:	e2800001 	add	r0, r0, #1
   1be8c:	e3500c01 	cmp	r0, #256	; 0x100
   1be90:	e5ec2001 	strb	r2, [ip, #1]!
   1be94:	0affff35 	beq	1bb70 <initrd_image+0xdb70>
   1be98:	e1500004 	cmp	r0, r4
   1be9c:	1afffff8 	bne	1be84 <initrd_image+0xde84>
   1bea0:	eaffff30 	b	1bb68 <initrd_image+0xdb68>
   1bea4:	e7ca3000 	strb	r3, [sl, r0]
   1bea8:	e2800001 	add	r0, r0, #1
   1beac:	e3500c01 	cmp	r0, #256	; 0x100
   1beb0:	e2811001 	add	r1, r1, #1
   1beb4:	1affff2b 	bne	1bb68 <initrd_image+0xdb68>
   1beb8:	eaffffd0 	b	1be00 <initrd_image+0xde00>
   1bebc:	e04cc007 	sub	ip, ip, r7
   1bec0:	e35c0000 	cmp	ip, #0
   1bec4:	daffffb9 	ble	1bdb0 <initrd_image+0xddb0>
   1bec8:	e35000ff 	cmp	r0, #255	; 0xff
   1becc:	e7cab000 	strb	fp, [sl, r0]
   1bed0:	e08a5000 	add	r5, sl, r0
   1bed4:	e2802001 	add	r2, r0, #1
   1bed8:	0a000007 	beq	1befc <initrd_image+0xdefc>
   1bedc:	e08c0000 	add	r0, ip, r0
   1bee0:	e1a0c005 	mov	ip, r5
   1bee4:	e1520000 	cmp	r2, r0
   1bee8:	e2822001 	add	r2, r2, #1
   1beec:	0affffaf 	beq	1bdb0 <initrd_image+0xddb0>
   1bef0:	e3520c01 	cmp	r2, #256	; 0x100
   1bef4:	e5ecb001 	strb	fp, [ip, #1]!
   1bef8:	1afffff9 	bne	1bee4 <initrd_image+0xdee4>
   1befc:	e3a00c01 	mov	r0, #256	; 0x100
   1bf00:	eaffffaa 	b	1bdb0 <initrd_image+0xddb0>
   1bf04:	e1a00003 	mov	r0, r3
   1bf08:	e12fff1e 	bx	lr
   1bf0c:	cccccccd 	stclgt	12, cr12, [ip], {205}	; 0xcd
   1bf10:	e92d000f 	push	{r0, r1, r2, r3}
   1bf14:	e92d4030 	push	{r4, r5, lr}
   1bf18:	e24ddf43 	sub	sp, sp, #268	; 0x10c
   1bf1c:	e28d5008 	add	r5, sp, #8
   1bf20:	e28d2f47 	add	r2, sp, #284	; 0x11c
   1bf24:	e59d1118 	ldr	r1, [sp, #280]	; 0x118
   1bf28:	e1a00005 	mov	r0, r5
   1bf2c:	e58d2004 	str	r2, [sp, #4]
   1bf30:	ebfffefb 	bl	1bb24 <initrd_image+0xdb24>
   1bf34:	e1a04000 	mov	r4, r0
   1bf38:	e1a01005 	mov	r1, r5
   1bf3c:	e1a02004 	mov	r2, r4
   1bf40:	e3a00001 	mov	r0, #1
   1bf44:	eb0000b6 	bl	1c224 <initrd_image+0xe224>
   1bf48:	e1a00004 	mov	r0, r4
   1bf4c:	e28ddf43 	add	sp, sp, #268	; 0x10c
   1bf50:	e8bd4030 	pop	{r4, r5, lr}
   1bf54:	e28dd010 	add	sp, sp, #16
   1bf58:	e12fff1e 	bx	lr
   1bf5c:	e92d000e 	push	{r1, r2, r3}
   1bf60:	e92d4010 	push	{r4, lr}
   1bf64:	e24dd00c 	sub	sp, sp, #12
   1bf68:	e28d2018 	add	r2, sp, #24
   1bf6c:	e59d1014 	ldr	r1, [sp, #20]
   1bf70:	e1a04000 	mov	r4, r0
   1bf74:	e58d2004 	str	r2, [sp, #4]
   1bf78:	ebfffee9 	bl	1bb24 <initrd_image+0xdb24>
   1bf7c:	e3a02000 	mov	r2, #0
   1bf80:	e7c42000 	strb	r2, [r4, r0]
   1bf84:	e28dd00c 	add	sp, sp, #12
   1bf88:	e8bd4010 	pop	{r4, lr}
   1bf8c:	e28dd00c 	add	sp, sp, #12
   1bf90:	e12fff1e 	bx	lr
   1bf94:	e92d4010 	push	{r4, lr}
   1bf98:	e3a04000 	mov	r4, #0
   1bf9c:	e1a03000 	mov	r3, r0
   1bfa0:	e24dd008 	sub	sp, sp, #8
   1bfa4:	e1a0000d 	mov	r0, sp
   1bfa8:	e1a01004 	mov	r1, r4
   1bfac:	e88d0018 	stm	sp, {r3, r4}
   1bfb0:	eb0000dc 	bl	1c328 <initrd_image+0xe328>
   1bfb4:	e1a00004 	mov	r0, r4
   1bfb8:	e28dd008 	add	sp, sp, #8
   1bfbc:	e8bd8010 	pop	{r4, pc}
   1bfc0:	e1a03000 	mov	r3, r0
   1bfc4:	e59f2044 	ldr	r2, [pc, #68]	; 1c010 <initrd_image+0xe010>
   1bfc8:	e52de004 	push	{lr}		; (str lr, [sp, #-4]!)
   1bfcc:	e082c392 	umull	ip, r2, r2, r3
   1bfd0:	e1a02922 	lsr	r2, r2, #18
   1bfd4:	e062c282 	rsb	ip, r2, r2, lsl #5
   1bfd8:	e06cc30c 	rsb	ip, ip, ip, lsl #6
   1bfdc:	e082c18c 	add	ip, r2, ip, lsl #3
   1bfe0:	e043330c 	sub	r3, r3, ip, lsl #6
   1bfe4:	e063c283 	rsb	ip, r3, r3, lsl #5
   1bfe8:	e24dd00c 	sub	sp, sp, #12
   1bfec:	e083310c 	add	r3, r3, ip, lsl #2
   1bff0:	e1a03183 	lsl	r3, r3, #3
   1bff4:	e3a01000 	mov	r1, #0
   1bff8:	e1a0000d 	mov	r0, sp
   1bffc:	e1cd20f0 	strd	r2, [sp]
   1c000:	eb0000c8 	bl	1c328 <initrd_image+0xe328>
   1c004:	e3a00000 	mov	r0, #0
   1c008:	e28dd00c 	add	sp, sp, #12
   1c00c:	e49df004 	pop	{pc}		; (ldr pc, [sp], #4)
   1c010:	431bde83 	tstmi	fp, #2096	; 0x830
   1c014:	e92d4010 	push	{r4, lr}
   1c018:	e1a04000 	mov	r4, r0
   1c01c:	eb0000d5 	bl	1c378 <initrd_image+0xe378>
   1c020:	e3540000 	cmp	r4, #0
   1c024:	15840000 	strne	r0, [r4]
   1c028:	e8bd8010 	pop	{r4, pc}
   1c02c:	e92d4010 	push	{r4, lr}
   1c030:	e3a0e000 	mov	lr, #0
   1c034:	e59f31a0 	ldr	r3, [pc, #416]	; 1c1dc <initrd_image+0xe1dc>
   1c038:	e1a04001 	mov	r4, r1
   1c03c:	e1500003 	cmp	r0, r3
   1c040:	e24dd008 	sub	sp, sp, #8
   1c044:	e5c1e000 	strb	lr, [r1]
   1c048:	ca00002d 	bgt	1c104 <initrd_image+0xe104>
   1c04c:	e3500ee1 	cmp	r0, #3600	; 0xe10
   1c050:	da000013 	ble	1c0a4 <initrd_image+0xe0a4>
   1c054:	e59f2184 	ldr	r2, [pc, #388]	; 1c1e0 <initrd_image+0xe1e0>
   1c058:	e1a03fc0 	asr	r3, r0, #31
   1c05c:	e0c21092 	smull	r1, r2, r2, r0
   1c060:	e0822000 	add	r2, r2, r0
   1c064:	e06325c2 	rsb	r2, r3, r2, asr #11
   1c068:	e062ca02 	rsb	ip, r2, r2, lsl #20
   1c06c:	e082c18c 	add	ip, r2, ip, lsl #3
   1c070:	e062c28c 	rsb	ip, r2, ip, lsl #5
   1c074:	e080c20c 	add	ip, r0, ip, lsl #4
   1c078:	e35c003c 	cmp	ip, #60	; 0x3c
   1c07c:	d1a0300e 	movle	r3, lr
   1c080:	ca00004d 	bgt	1c1bc <initrd_image+0xe1bc>
   1c084:	e59f1158 	ldr	r1, [pc, #344]	; 1c1e4 <initrd_image+0xe1e4>
   1c088:	e1a00004 	mov	r0, r4
   1c08c:	e08f1001 	add	r1, pc, r1
   1c090:	e58dc000 	str	ip, [sp]
   1c094:	ebffffb0 	bl	1bf5c <initrd_image+0xdf5c>
   1c098:	e1a00004 	mov	r0, r4
   1c09c:	e28dd008 	add	sp, sp, #8
   1c0a0:	e8bd8010 	pop	{r4, pc}
   1c0a4:	e350003c 	cmp	r0, #60	; 0x3c
   1c0a8:	da00000d 	ble	1c0e4 <initrd_image+0xe0e4>
   1c0ac:	e59f3134 	ldr	r3, [pc, #308]	; 1c1e8 <initrd_image+0xe1e8>
   1c0b0:	e1a02fc0 	asr	r2, r0, #31
   1c0b4:	e0c31093 	smull	r1, r3, r3, r0
   1c0b8:	e0833000 	add	r3, r3, r0
   1c0bc:	e06222c3 	rsb	r2, r2, r3, asr #5
   1c0c0:	e59f1124 	ldr	r1, [pc, #292]	; 1c1ec <initrd_image+0xe1ec>
   1c0c4:	e0423202 	sub	r3, r2, r2, lsl #4
   1c0c8:	e0803103 	add	r3, r0, r3, lsl #2
   1c0cc:	e08f1001 	add	r1, pc, r1
   1c0d0:	e1a00004 	mov	r0, r4
   1c0d4:	ebffffa0 	bl	1bf5c <initrd_image+0xdf5c>
   1c0d8:	e1a00004 	mov	r0, r4
   1c0dc:	e28dd008 	add	sp, sp, #8
   1c0e0:	e8bd8010 	pop	{r4, pc}
   1c0e4:	e1a02000 	mov	r2, r0
   1c0e8:	e1a00001 	mov	r0, r1
   1c0ec:	e59f10fc 	ldr	r1, [pc, #252]	; 1c1f0 <initrd_image+0xe1f0>
   1c0f0:	e08f1001 	add	r1, pc, r1
   1c0f4:	ebffff98 	bl	1bf5c <initrd_image+0xdf5c>
   1c0f8:	e1a00004 	mov	r0, r4
   1c0fc:	e28dd008 	add	sp, sp, #8
   1c100:	e8bd8010 	pop	{r4, pc}
   1c104:	e59f20e8 	ldr	r2, [pc, #232]	; 1c1f4 <initrd_image+0xe1f4>
   1c108:	e1a03fc0 	asr	r3, r0, #31
   1c10c:	e0c21092 	smull	r1, r2, r2, r0
   1c110:	e0822000 	add	r2, r2, r0
   1c114:	e0632842 	rsb	r2, r3, r2, asr #16
   1c118:	e082c082 	add	ip, r2, r2, lsl #1
   1c11c:	e06cc20c 	rsb	ip, ip, ip, lsl #4
   1c120:	e06cc20c 	rsb	ip, ip, ip, lsl #4
   1c124:	e040038c 	sub	r0, r0, ip, lsl #7
   1c128:	e3500ee1 	cmp	r0, #3600	; 0xe10
   1c12c:	ca000005 	bgt	1c148 <initrd_image+0xe148>
   1c130:	e350003c 	cmp	r0, #60	; 0x3c
   1c134:	da00001e 	ble	1c1b4 <initrd_image+0xe1b4>
   1c138:	e59f10a8 	ldr	r1, [pc, #168]	; 1c1e8 <initrd_image+0xe1e8>
   1c13c:	e1a0300e 	mov	r3, lr
   1c140:	e0ce1091 	smull	r1, lr, r1, r0
   1c144:	ea00000c 	b	1c17c <initrd_image+0xe17c>
   1c148:	e59f3090 	ldr	r3, [pc, #144]	; 1c1e0 <initrd_image+0xe1e0>
   1c14c:	e0c31093 	smull	r1, r3, r3, r0
   1c150:	e1a01fc0 	asr	r1, r0, #31
   1c154:	e0833000 	add	r3, r3, r0
   1c158:	e06135c3 	rsb	r3, r1, r3, asr #11
   1c15c:	e0631a03 	rsb	r1, r3, r3, lsl #20
   1c160:	e0831181 	add	r1, r3, r1, lsl #3
   1c164:	e0631281 	rsb	r1, r3, r1, lsl #5
   1c168:	e0800201 	add	r0, r0, r1, lsl #4
   1c16c:	e350003c 	cmp	r0, #60	; 0x3c
   1c170:	da000006 	ble	1c190 <initrd_image+0xe190>
   1c174:	e59fe06c 	ldr	lr, [pc, #108]	; 1c1e8 <initrd_image+0xe1e8>
   1c178:	e0ce109e 	smull	r1, lr, lr, r0
   1c17c:	e08e1000 	add	r1, lr, r0
   1c180:	e1a0efc0 	asr	lr, r0, #31
   1c184:	e06ee2c1 	rsb	lr, lr, r1, asr #5
   1c188:	e04e120e 	sub	r1, lr, lr, lsl #4
   1c18c:	e0800101 	add	r0, r0, r1, lsl #2
   1c190:	e59f1060 	ldr	r1, [pc, #96]	; 1c1f8 <initrd_image+0xe1f8>
   1c194:	e58d0004 	str	r0, [sp, #4]
   1c198:	e08f1001 	add	r1, pc, r1
   1c19c:	e1a00004 	mov	r0, r4
   1c1a0:	e58de000 	str	lr, [sp]
   1c1a4:	ebffff6c 	bl	1bf5c <initrd_image+0xdf5c>
   1c1a8:	e1a00004 	mov	r0, r4
   1c1ac:	e28dd008 	add	sp, sp, #8
   1c1b0:	e8bd8010 	pop	{r4, pc}
   1c1b4:	e1a0300e 	mov	r3, lr
   1c1b8:	eafffff4 	b	1c190 <initrd_image+0xe190>
   1c1bc:	e59fe024 	ldr	lr, [pc, #36]	; 1c1e8 <initrd_image+0xe1e8>
   1c1c0:	e1a03fcc 	asr	r3, ip, #31
   1c1c4:	e0ce1c9e 	smull	r1, lr, lr, ip
   1c1c8:	e08ee00c 	add	lr, lr, ip
   1c1cc:	e06332ce 	rsb	r3, r3, lr, asr #5
   1c1d0:	e0431203 	sub	r1, r3, r3, lsl #4
   1c1d4:	e08cc101 	add	ip, ip, r1, lsl #2
   1c1d8:	eaffffa9 	b	1c084 <initrd_image+0xe084>
   1c1dc:	00015180 	andeq	r5, r1, r0, lsl #3
   1c1e0:	91a2b3c5 			; <UNDEFINED> instruction: 0x91a2b3c5
   1c1e4:	00000a98 	muleq	r0, r8, sl
   1c1e8:	88888889 	stmhi	r8, {r0, r3, r7, fp, pc}
   1c1ec:	00000a5c 	andeq	r0, r0, ip, asr sl
   1c1f0:	00000a3c 	andeq	r0, r0, ip, lsr sl
   1c1f4:	c22e4507 	eorgt	r4, lr, #29360128	; 0x1c00000
   1c1f8:	00000988 	andeq	r0, r0, r8, lsl #19
   1c1fc:	e52d7004 	push	{r7}		; (str r7, [sp, #-4]!)
   1c200:	e3a07001 	mov	r7, #1
   1c204:	ef000000 	svc	0x00000000
   1c208:	e49d7004 	pop	{r7}		; (ldr r7, [sp], #4)
   1c20c:	e12fff1e 	bx	lr
   1c210:	e52d7004 	push	{r7}		; (str r7, [sp, #-4]!)
   1c214:	e3a07003 	mov	r7, #3
   1c218:	ef000000 	svc	0x00000000
   1c21c:	e49d7004 	pop	{r7}		; (ldr r7, [sp], #4)
   1c220:	e12fff1e 	bx	lr
   1c224:	e52d7004 	push	{r7}		; (str r7, [sp, #-4]!)
   1c228:	e3a07004 	mov	r7, #4
   1c22c:	ef000000 	svc	0x00000000
   1c230:	e49d7004 	pop	{r7}		; (ldr r7, [sp], #4)
   1c234:	e12fff1e 	bx	lr
   1c238:	e52d7004 	push	{r7}		; (str r7, [sp, #-4]!)
   1c23c:	e3a07005 	mov	r7, #5
   1c240:	ef000000 	svc	0x00000000
   1c244:	e49d7004 	pop	{r7}		; (ldr r7, [sp], #4)
   1c248:	e12fff1e 	bx	lr
   1c24c:	e52d7004 	push	{r7}		; (str r7, [sp, #-4]!)
   1c250:	e3a07006 	mov	r7, #6
   1c254:	ef000000 	svc	0x00000000
   1c258:	e49d7004 	pop	{r7}		; (ldr r7, [sp], #4)
   1c25c:	e12fff1e 	bx	lr
   1c260:	e52d7004 	push	{r7}		; (str r7, [sp, #-4]!)
   1c264:	e3a07007 	mov	r7, #7
   1c268:	ef000000 	svc	0x00000000
   1c26c:	e49d7004 	pop	{r7}		; (ldr r7, [sp], #4)
   1c270:	e12fff1e 	bx	lr
   1c274:	e52d7004 	push	{r7}		; (str r7, [sp, #-4]!)
   1c278:	e3a0700b 	mov	r7, #11
   1c27c:	ef000000 	svc	0x00000000
   1c280:	e49d7004 	pop	{r7}		; (ldr r7, [sp], #4)
   1c284:	e12fff1e 	bx	lr
   1c288:	e52d7004 	push	{r7}		; (str r7, [sp, #-4]!)
   1c28c:	e3a0700c 	mov	r7, #12
   1c290:	ef000000 	svc	0x00000000
   1c294:	e49d7004 	pop	{r7}		; (ldr r7, [sp], #4)
   1c298:	e12fff1e 	bx	lr
   1c29c:	e52d7004 	push	{r7}		; (str r7, [sp, #-4]!)
   1c2a0:	e3a070b7 	mov	r7, #183	; 0xb7
   1c2a4:	ef000000 	svc	0x00000000
   1c2a8:	e49d7004 	pop	{r7}		; (ldr r7, [sp], #4)
   1c2ac:	e12fff1e 	bx	lr
   1c2b0:	e52d7004 	push	{r7}		; (str r7, [sp, #-4]!)
   1c2b4:	e3a07014 	mov	r7, #20
   1c2b8:	ef000000 	svc	0x00000000
   1c2bc:	e49d7004 	pop	{r7}		; (ldr r7, [sp], #4)
   1c2c0:	e12fff1e 	bx	lr
   1c2c4:	e52d7004 	push	{r7}		; (str r7, [sp, #-4]!)
   1c2c8:	e3a0702b 	mov	r7, #43	; 0x2b
   1c2cc:	ef000000 	svc	0x00000000
   1c2d0:	e49d7004 	pop	{r7}		; (ldr r7, [sp], #4)
   1c2d4:	e12fff1e 	bx	lr
   1c2d8:	e52d7004 	push	{r7}		; (str r7, [sp, #-4]!)
   1c2dc:	e3a0706a 	mov	r7, #106	; 0x6a
   1c2e0:	ef000000 	svc	0x00000000
   1c2e4:	e49d7004 	pop	{r7}		; (ldr r7, [sp], #4)
   1c2e8:	e12fff1e 	bx	lr
   1c2ec:	e52d7004 	push	{r7}		; (str r7, [sp, #-4]!)
   1c2f0:	e3a07074 	mov	r7, #116	; 0x74
   1c2f4:	ef000000 	svc	0x00000000
   1c2f8:	e49d7004 	pop	{r7}		; (ldr r7, [sp], #4)
   1c2fc:	e12fff1e 	bx	lr
   1c300:	e52d7004 	push	{r7}		; (str r7, [sp, #-4]!)
   1c304:	e3a0707a 	mov	r7, #122	; 0x7a
   1c308:	ef000000 	svc	0x00000000
   1c30c:	e49d7004 	pop	{r7}		; (ldr r7, [sp], #4)
   1c310:	e12fff1e 	bx	lr
   1c314:	e52d7004 	push	{r7}		; (str r7, [sp, #-4]!)
   1c318:	e3a0708d 	mov	r7, #141	; 0x8d
   1c31c:	ef000000 	svc	0x00000000
   1c320:	e49d7004 	pop	{r7}		; (ldr r7, [sp], #4)
   1c324:	e12fff1e 	bx	lr
   1c328:	e52d7004 	push	{r7}		; (str r7, [sp, #-4]!)
   1c32c:	e3a070a2 	mov	r7, #162	; 0xa2
   1c330:	ef000000 	svc	0x00000000
   1c334:	e49d7004 	pop	{r7}		; (ldr r7, [sp], #4)
   1c338:	e12fff1e 	bx	lr
   1c33c:	e52d7004 	push	{r7}		; (str r7, [sp, #-4]!)
   1c340:	e3a070be 	mov	r7, #190	; 0xbe
   1c344:	ef000000 	svc	0x00000000
   1c348:	e49d7004 	pop	{r7}		; (ldr r7, [sp], #4)
   1c34c:	e12fff1e 	bx	lr
   1c350:	e52d7004 	push	{r7}		; (str r7, [sp, #-4]!)
   1c354:	e3a07036 	mov	r7, #54	; 0x36
   1c358:	ef000000 	svc	0x00000000
   1c35c:	e49d7004 	pop	{r7}		; (ldr r7, [sp], #4)
   1c360:	e12fff1e 	bx	lr
   1c364:	e52d7004 	push	{r7}		; (str r7, [sp, #-4]!)
   1c368:	e3a07036 	mov	r7, #54	; 0x36
   1c36c:	ef000000 	svc	0x00000000
   1c370:	e49d7004 	pop	{r7}		; (ldr r7, [sp], #4)
   1c374:	e12fff1e 	bx	lr
   1c378:	e52d7004 	push	{r7}		; (str r7, [sp, #-4]!)
   1c37c:	e3a0700d 	mov	r7, #13
   1c380:	ef000000 	svc	0x00000000
   1c384:	e49d7004 	pop	{r7}		; (ldr r7, [sp], #4)
   1c388:	e12fff1e 	bx	lr
   1c38c:	e52d7004 	push	{r7}		; (str r7, [sp, #-4]!)
   1c390:	e3a07058 	mov	r7, #88	; 0x58
   1c394:	ef000000 	svc	0x00000000
   1c398:	e49d7004 	pop	{r7}		; (ldr r7, [sp], #4)
   1c39c:	e12fff1e 	bx	lr
   1c3a0:	e92d4070 	push	{r4, r5, r6, lr}
   1c3a4:	e3a00000 	mov	r0, #0
   1c3a8:	e24dd010 	sub	sp, sp, #16
   1c3ac:	ebffff18 	bl	1c014 <initrd_image+0xe014>
   1c3b0:	e1a05000 	mov	r5, r0
   1c3b4:	e59f607c 	ldr	r6, [pc, #124]	; 1c438 <initrd_image+0xe438>
   1c3b8:	e08f6006 	add	r6, pc, r6
   1c3bc:	e1a00006 	mov	r0, r6
   1c3c0:	ebfffed2 	bl	1bf10 <initrd_image+0xdf10>
   1c3c4:	e3a01801 	mov	r1, #65536	; 0x10000
   1c3c8:	e2511001 	subs	r1, r1, #1
   1c3cc:	1afffffd 	bne	1c3c8 <initrd_image+0xe3c8>
   1c3d0:	e3a00000 	mov	r0, #0
   1c3d4:	ebffff0e 	bl	1c014 <initrd_image+0xe014>
   1c3d8:	e0404005 	sub	r4, r0, r5
   1c3dc:	e3540005 	cmp	r4, #5
   1c3e0:	dafffff5 	ble	1c3bc <initrd_image+0xe3bc>
   1c3e4:	e1a0000d 	mov	r0, sp
   1c3e8:	ebffffb5 	bl	1c2c4 <initrd_image+0xe2c4>
   1c3ec:	e59d3000 	ldr	r3, [sp]
   1c3f0:	e1a01004 	mov	r1, r4
   1c3f4:	e3530000 	cmp	r3, #0
   1c3f8:	e283503f 	add	r5, r3, #63	; 0x3f
   1c3fc:	a1a05003 	movge	r5, r3
   1c400:	e1a05345 	asr	r5, r5, #6
   1c404:	e0850105 	add	r0, r5, r5, lsl #2
   1c408:	e0800100 	add	r0, r0, r0, lsl #2
   1c40c:	e1a00100 	lsl	r0, r0, #2
   1c410:	ebfffdae 	bl	1bad0 <initrd_image+0xdad0>
   1c414:	e1a03000 	mov	r3, r0
   1c418:	e59f001c 	ldr	r0, [pc, #28]	; 1c43c <initrd_image+0xe43c>
   1c41c:	e1a02005 	mov	r2, r5
   1c420:	e1a01004 	mov	r1, r4
   1c424:	e08f0000 	add	r0, pc, r0
   1c428:	ebfffeb8 	bl	1bf10 <initrd_image+0xdf10>
   1c42c:	e3a00000 	mov	r0, #0
   1c430:	e28dd010 	add	sp, sp, #16
   1c434:	e8bd8070 	pop	{r4, r5, r6, pc}
   1c438:	00000700 	andeq	r0, r0, r0, lsl #14
   1c43c:	00000698 	muleq	r0, r8, r6
	...
   1cac0:	00000041 	andeq	r0, r0, r1, asr #32
   1cac4:	6d69540a 	cfstrdvs	mvd5, [r9, #-40]!	; 0xffffffd8
   1cac8:	75722065 	ldrbvc	r2, [r2, #-101]!	; 0xffffff9b
   1cacc:	6e696e6e 	cdpvs	14, 6, cr6, cr9, cr14, {3}
   1cad0:	3a412067 	bcc	1064c74 <__bss_end+0x102bc74>
   1cad4:	6c615720 	stclvs	7, cr5, [r1], #-128	; 0xffffff80
   1cad8:	6f6c636c 	svcvs	0x006c636c
   1cadc:	203a6b63 	eorscs	r6, sl, r3, ror #22
   1cae0:	73206425 			; <UNDEFINED> instruction: 0x73206425
   1cae4:	6e6f6365 	cdpvs	3, 6, cr6, cr15, cr5, {3}
   1cae8:	202c7364 	eorcs	r7, ip, r4, ror #6
   1caec:	72657355 	rsbvc	r7, r5, #1409286145	; 0x54000001
   1caf0:	6425203a 	strtvs	r2, [r5], #-58	; 0xffffffc6
   1caf4:	63657320 	cmnvs	r5, #32, 6	; 0x80000000
   1caf8:	73646e6f 	cmnvc	r4, #1776	; 0x6f0
   1cafc:	7552202c 	ldrbvc	r2, [r2, #-44]	; 0xffffffd4
   1cb00:	6e696e6e 	cdpvs	14, 6, cr6, cr9, cr14, {3}
   1cb04:	64252067 	strtvs	r2, [r5], #-103	; 0xffffff99
   1cb08:	6f202525 	svcvs	0x00202525
   1cb0c:	69742066 	ldmdbvs	r4!, {r1, r2, r5, r6, sp}^
   1cb10:	000a656d 	andeq	r6, sl, sp, ror #10
   1cb14:	69766944 	ldmdbvs	r6!, {r2, r6, r8, fp, sp, lr}^
   1cb18:	6e6f6973 			; <UNDEFINED> instruction: 0x6e6f6973
   1cb1c:	20796220 	rsbscs	r6, r9, r0, lsr #4
   1cb20:	6f72657a 	svcvs	0x0072657a
   1cb24:	00000a21 	andeq	r0, r0, r1, lsr #20
   1cb28:	20646425 	rsbcs	r6, r4, r5, lsr #8
   1cb2c:	20686425 	rsbcs	r6, r8, r5, lsr #8
   1cb30:	206d6425 	rsbcs	r6, sp, r5, lsr #8
   1cb34:	00736425 	rsbseq	r6, r3, r5, lsr #8
	...
   1cb40:	eafb0000 	b	ffedcb48 <__bss_end+0xffea3b48>
   1cb44:	00000000 	andeq	r0, r0, r0
   1cb48:	78100000 	ldmdavc	r0, {}	; <UNPREDICTABLE>
   1cb4c:	308a2a1b 	addcc	r2, sl, fp, lsl sl
   1cb50:	6e697270 	mcrvs	2, 3, r7, cr9, cr0, {3}
   1cb54:	00006274 	andeq	r6, r0, r4, ror r2
	...
   1cb60:	e92d4010 	push	{r4, lr}
   1cb64:	eb000235 	bl	1d440 <initrd_image+0xf440>
   1cb68:	e8bd4010 	pop	{r4, lr}
   1cb6c:	ea0001ca 	b	1d29c <initrd_image+0xf29c>
   1cb70:	e92d4010 	push	{r4, lr}
   1cb74:	e2514000 	subs	r4, r1, #0
   1cb78:	0a000009 	beq	1cba4 <initrd_image+0xeba4>
   1cb7c:	e1540000 	cmp	r4, r0
   1cb80:	e1a02000 	mov	r2, r0
   1cb84:	8a00000b 	bhi	1cbb8 <initrd_image+0xebb8>
   1cb88:	e1a03004 	mov	r3, r4
   1cb8c:	e3a00000 	mov	r0, #0
   1cb90:	e0833004 	add	r3, r3, r4
   1cb94:	e1520003 	cmp	r2, r3
   1cb98:	e2800001 	add	r0, r0, #1
   1cb9c:	2afffffb 	bcs	1cb90 <initrd_image+0xeb90>
   1cba0:	e8bd8010 	pop	{r4, pc}
   1cba4:	e59f0014 	ldr	r0, [pc, #20]	; 1cbc0 <initrd_image+0xebc0>
   1cba8:	e08f0000 	add	r0, pc, r0
   1cbac:	eb0000ff 	bl	1cfb0 <initrd_image+0xefb0>
   1cbb0:	e1a00004 	mov	r0, r4
   1cbb4:	e8bd8010 	pop	{r4, pc}
   1cbb8:	e3a00000 	mov	r0, #0
   1cbbc:	e8bd8010 	pop	{r4, pc}
   1cbc0:	00001004 	andeq	r1, r0, r4
   1cbc4:	e5d13000 	ldrb	r3, [r1]
   1cbc8:	e3530000 	cmp	r3, #0
   1cbcc:	0a0000f4 	beq	1cfa4 <initrd_image+0xefa4>
   1cbd0:	e92d4ff0 	push	{r4, r5, r6, r7, r8, r9, sl, fp, lr}
   1cbd4:	e24dd024 	sub	sp, sp, #36	; 0x24
   1cbd8:	e1a08002 	mov	r8, r2
   1cbdc:	e28d200c 	add	r2, sp, #12
   1cbe0:	e1a0a000 	mov	sl, r0
   1cbe4:	e59f93c0 	ldr	r9, [pc, #960]	; 1cfac <initrd_image+0xefac>
   1cbe8:	e3a00000 	mov	r0, #0
   1cbec:	e58d2004 	str	r2, [sp, #4]
   1cbf0:	ea000009 	b	1cc1c <initrd_image+0xec1c>
   1cbf4:	e7ca3000 	strb	r3, [sl, r0]
   1cbf8:	e2800001 	add	r0, r0, #1
   1cbfc:	e3500c01 	cmp	r0, #256	; 0x100
   1cc00:	0a0000a6 	beq	1cea0 <initrd_image+0xeea0>
   1cc04:	e2811001 	add	r1, r1, #1
   1cc08:	e35000ff 	cmp	r0, #255	; 0xff
   1cc0c:	0a000037 	beq	1ccf0 <initrd_image+0xecf0>
   1cc10:	e5d13000 	ldrb	r3, [r1]
   1cc14:	e3530000 	cmp	r3, #0
   1cc18:	0a000034 	beq	1ccf0 <initrd_image+0xecf0>
   1cc1c:	e3530025 	cmp	r3, #37	; 0x25
   1cc20:	1afffff3 	bne	1cbf4 <initrd_image+0xebf4>
   1cc24:	e5d13001 	ldrb	r3, [r1, #1]
   1cc28:	e243c030 	sub	ip, r3, #48	; 0x30
   1cc2c:	e6efc07c 	uxtb	ip, ip
   1cc30:	e35c0009 	cmp	ip, #9
   1cc34:	83a0c000 	movhi	ip, #0
   1cc38:	83a0b020 	movhi	fp, #32
   1cc3c:	82811001 	addhi	r1, r1, #1
   1cc40:	9a000045 	bls	1cd5c <initrd_image+0xed5c>
   1cc44:	e3530069 	cmp	r3, #105	; 0x69
   1cc48:	13530064 	cmpne	r3, #100	; 0x64
   1cc4c:	1a000029 	bne	1ccf8 <initrd_image+0xecf8>
   1cc50:	e4983004 	ldr	r3, [r8], #4
   1cc54:	e2811001 	add	r1, r1, #1
   1cc58:	e3530000 	cmp	r3, #0
   1cc5c:	a3a07000 	movge	r7, #0
   1cc60:	ba00004e 	blt	1cda0 <initrd_image+0xeda0>
   1cc64:	e3a05009 	mov	r5, #9
   1cc68:	e2877009 	add	r7, r7, #9
   1cc6c:	e28d6016 	add	r6, sp, #22
   1cc70:	e0842399 	umull	r2, r4, r9, r3
   1cc74:	e1a041a4 	lsr	r4, r4, #3
   1cc78:	e0842104 	add	r2, r4, r4, lsl #2
   1cc7c:	e0432082 	sub	r2, r3, r2, lsl #1
   1cc80:	e1a0e005 	mov	lr, r5
   1cc84:	e2822030 	add	r2, r2, #48	; 0x30
   1cc88:	e2455001 	sub	r5, r5, #1
   1cc8c:	e3530009 	cmp	r3, #9
   1cc90:	e6ef2072 	uxtb	r2, r2
   1cc94:	e1a03004 	mov	r3, r4
   1cc98:	e0474005 	sub	r4, r7, r5
   1cc9c:	e5662001 	strb	r2, [r6, #-1]!
   1cca0:	e6ef4074 	uxtb	r4, r4
   1cca4:	8afffff1 	bhi	1cc70 <initrd_image+0xec70>
   1cca8:	e15c0004 	cmp	ip, r4
   1ccac:	8a000043 	bhi	1cdc0 <initrd_image+0xedc0>
   1ccb0:	e59d4004 	ldr	r4, [sp, #4]
   1ccb4:	e26ec00a 	rsb	ip, lr, #10
   1ccb8:	e2403001 	sub	r3, r0, #1
   1ccbc:	e08a3003 	add	r3, sl, r3
   1ccc0:	e084e00e 	add	lr, r4, lr
   1ccc4:	e08cc000 	add	ip, ip, r0
   1ccc8:	ea000000 	b	1ccd0 <initrd_image+0xecd0>
   1cccc:	e5fe2001 	ldrb	r2, [lr, #1]!
   1ccd0:	e2800001 	add	r0, r0, #1
   1ccd4:	e3500c01 	cmp	r0, #256	; 0x100
   1ccd8:	e5e32001 	strb	r2, [r3, #1]!
   1ccdc:	0affffcb 	beq	1cc10 <initrd_image+0xec10>
   1cce0:	e15c0000 	cmp	ip, r0
   1cce4:	1afffff8 	bne	1cccc <initrd_image+0xeccc>
   1cce8:	e35000ff 	cmp	r0, #255	; 0xff
   1ccec:	1affffc7 	bne	1cc10 <initrd_image+0xec10>
   1ccf0:	e28dd024 	add	sp, sp, #36	; 0x24
   1ccf4:	e8bd8ff0 	pop	{r4, r5, r6, r7, r8, r9, sl, fp, pc}
   1ccf8:	e353006c 	cmp	r3, #108	; 0x6c
   1ccfc:	0a00006a 	beq	1ceac <initrd_image+0xeeac>
   1cd00:	e20320f7 	and	r2, r3, #247	; 0xf7
   1cd04:	e3520070 	cmp	r2, #112	; 0x70
   1cd08:	0a00003d 	beq	1ce04 <initrd_image+0xee04>
   1cd0c:	e3530063 	cmp	r3, #99	; 0x63
   1cd10:	0a00005c 	beq	1ce88 <initrd_image+0xee88>
   1cd14:	e3530025 	cmp	r3, #37	; 0x25
   1cd18:	0a000089 	beq	1cf44 <initrd_image+0xef44>
   1cd1c:	e3530073 	cmp	r3, #115	; 0x73
   1cd20:	1affffb8 	bne	1cc08 <initrd_image+0xec08>
   1cd24:	e498c004 	ldr	ip, [r8], #4
   1cd28:	e2402001 	sub	r2, r0, #1
   1cd2c:	e2811001 	add	r1, r1, #1
   1cd30:	e08a2002 	add	r2, sl, r2
   1cd34:	e04cc000 	sub	ip, ip, r0
   1cd38:	ea000003 	b	1cd4c <initrd_image+0xed4c>
   1cd3c:	e2800001 	add	r0, r0, #1
   1cd40:	e3500c01 	cmp	r0, #256	; 0x100
   1cd44:	e5e23001 	strb	r3, [r2, #1]!
   1cd48:	0affffb0 	beq	1cc10 <initrd_image+0xec10>
   1cd4c:	e7dc3000 	ldrb	r3, [ip, r0]
   1cd50:	e3530000 	cmp	r3, #0
   1cd54:	1afffff8 	bne	1cd3c <initrd_image+0xed3c>
   1cd58:	eaffffaa 	b	1cc08 <initrd_image+0xec08>
   1cd5c:	e3530030 	cmp	r3, #48	; 0x30
   1cd60:	e5d13002 	ldrb	r3, [r1, #2]
   1cd64:	03a0b030 	moveq	fp, #48	; 0x30
   1cd68:	e2432030 	sub	r2, r3, #48	; 0x30
   1cd6c:	13a0b020 	movne	fp, #32
   1cd70:	e3520009 	cmp	r2, #9
   1cd74:	e2811002 	add	r1, r1, #2
   1cd78:	8affffb1 	bhi	1cc44 <initrd_image+0xec44>
   1cd7c:	e08cc10c 	add	ip, ip, ip, lsl #2
   1cd80:	e083c08c 	add	ip, r3, ip, lsl #1
   1cd84:	e5f13001 	ldrb	r3, [r1, #1]!
   1cd88:	e24cc030 	sub	ip, ip, #48	; 0x30
   1cd8c:	e2432030 	sub	r2, r3, #48	; 0x30
   1cd90:	e3520009 	cmp	r2, #9
   1cd94:	e20cc0ff 	and	ip, ip, #255	; 0xff
   1cd98:	9afffff7 	bls	1cd7c <initrd_image+0xed7c>
   1cd9c:	eaffffa8 	b	1cc44 <initrd_image+0xec44>
   1cda0:	e3a0202d 	mov	r2, #45	; 0x2d
   1cda4:	e7ca2000 	strb	r2, [sl, r0]
   1cda8:	e2800001 	add	r0, r0, #1
   1cdac:	e3500c01 	cmp	r0, #256	; 0x100
   1cdb0:	0a00003a 	beq	1cea0 <initrd_image+0xeea0>
   1cdb4:	e3a07001 	mov	r7, #1
   1cdb8:	e2633000 	rsb	r3, r3, #0
   1cdbc:	eaffffa8 	b	1cc64 <initrd_image+0xec64>
   1cdc0:	e04c4004 	sub	r4, ip, r4
   1cdc4:	e3540000 	cmp	r4, #0
   1cdc8:	daffffb8 	ble	1ccb0 <initrd_image+0xecb0>
   1cdcc:	e35000ff 	cmp	r0, #255	; 0xff
   1cdd0:	e7cab000 	strb	fp, [sl, r0]
   1cdd4:	e08ac000 	add	ip, sl, r0
   1cdd8:	e2803001 	add	r3, r0, #1
   1cddc:	0a000006 	beq	1cdfc <initrd_image+0xedfc>
   1cde0:	e0840000 	add	r0, r4, r0
   1cde4:	e1500003 	cmp	r0, r3
   1cde8:	e2833001 	add	r3, r3, #1
   1cdec:	0affffaf 	beq	1ccb0 <initrd_image+0xecb0>
   1cdf0:	e3530c01 	cmp	r3, #256	; 0x100
   1cdf4:	e5ecb001 	strb	fp, [ip, #1]!
   1cdf8:	1afffff9 	bne	1cde4 <initrd_image+0xede4>
   1cdfc:	e3a00c01 	mov	r0, #256	; 0x100
   1ce00:	eaffffaa 	b	1ccb0 <initrd_image+0xecb0>
   1ce04:	e3a0e009 	mov	lr, #9
   1ce08:	e4982004 	ldr	r2, [r8], #4
   1ce0c:	e2811001 	add	r1, r1, #1
   1ce10:	e28d5016 	add	r5, sp, #22
   1ce14:	ea000000 	b	1ce1c <initrd_image+0xee1c>
   1ce18:	e1a0e006 	mov	lr, r6
   1ce1c:	e202300f 	and	r3, r2, #15
   1ce20:	e3530009 	cmp	r3, #9
   1ce24:	92833030 	addls	r3, r3, #48	; 0x30
   1ce28:	82833057 	addhi	r3, r3, #87	; 0x57
   1ce2c:	e26e400a 	rsb	r4, lr, #10
   1ce30:	e352000f 	cmp	r2, #15
   1ce34:	e24e6001 	sub	r6, lr, #1
   1ce38:	e1a02222 	lsr	r2, r2, #4
   1ce3c:	e5653001 	strb	r3, [r5, #-1]!
   1ce40:	e6ef7074 	uxtb	r7, r4
   1ce44:	8afffff3 	bhi	1ce18 <initrd_image+0xee18>
   1ce48:	e15c0007 	cmp	ip, r7
   1ce4c:	8a000042 	bhi	1cf5c <initrd_image+0xef5c>
   1ce50:	e59d2004 	ldr	r2, [sp, #4]
   1ce54:	e0844000 	add	r4, r4, r0
   1ce58:	e082e00e 	add	lr, r2, lr
   1ce5c:	e2402001 	sub	r2, r0, #1
   1ce60:	e08a2002 	add	r2, sl, r2
   1ce64:	ea000000 	b	1ce6c <initrd_image+0xee6c>
   1ce68:	e5fe3001 	ldrb	r3, [lr, #1]!
   1ce6c:	e2800001 	add	r0, r0, #1
   1ce70:	e3500c01 	cmp	r0, #256	; 0x100
   1ce74:	e5e23001 	strb	r3, [r2, #1]!
   1ce78:	0affff64 	beq	1cc10 <initrd_image+0xec10>
   1ce7c:	e1500004 	cmp	r0, r4
   1ce80:	1afffff8 	bne	1ce68 <initrd_image+0xee68>
   1ce84:	eaffff5f 	b	1cc08 <initrd_image+0xec08>
   1ce88:	e4983004 	ldr	r3, [r8], #4
   1ce8c:	e2811001 	add	r1, r1, #1
   1ce90:	e7ca3000 	strb	r3, [sl, r0]
   1ce94:	e2800001 	add	r0, r0, #1
   1ce98:	e3500c01 	cmp	r0, #256	; 0x100
   1ce9c:	1affff59 	bne	1cc08 <initrd_image+0xec08>
   1cea0:	e3a00c01 	mov	r0, #256	; 0x100
   1cea4:	e28dd024 	add	sp, sp, #36	; 0x24
   1cea8:	e8bd8ff0 	pop	{r4, r5, r6, r7, r8, r9, sl, fp, pc}
   1ceac:	e2888007 	add	r8, r8, #7
   1ceb0:	e3c88007 	bic	r8, r8, #7
   1ceb4:	e598c004 	ldr	ip, [r8, #4]
   1ceb8:	e3a0e011 	mov	lr, #17
   1cebc:	e4983008 	ldr	r3, [r8], #8
   1cec0:	e2811003 	add	r1, r1, #3
   1cec4:	e28d401e 	add	r4, sp, #30
   1cec8:	ea000000 	b	1ced0 <initrd_image+0xeed0>
   1cecc:	e1a0e005 	mov	lr, r5
   1ced0:	e3a05000 	mov	r5, #0
   1ced4:	e203200f 	and	r2, r3, #15
   1ced8:	e352000a 	cmp	r2, #10
   1cedc:	e2d55000 	sbcs	r5, r5, #0
   1cee0:	32822030 	addcc	r2, r2, #48	; 0x30
   1cee4:	22822057 	addcs	r2, r2, #87	; 0x57
   1cee8:	e3530010 	cmp	r3, #16
   1ceec:	e2dc5000 	sbcs	r5, ip, #0
   1cef0:	e1a03223 	lsr	r3, r3, #4
   1cef4:	e1833e0c 	orr	r3, r3, ip, lsl #28
   1cef8:	e24e5001 	sub	r5, lr, #1
   1cefc:	e1a0c22c 	lsr	ip, ip, #4
   1cf00:	e5642001 	strb	r2, [r4, #-1]!
   1cf04:	2afffff0 	bcs	1cecc <initrd_image+0xeecc>
   1cf08:	e59d3004 	ldr	r3, [sp, #4]
   1cf0c:	e240c001 	sub	ip, r0, #1
   1cf10:	e2804012 	add	r4, r0, #18
   1cf14:	e08ac00c 	add	ip, sl, ip
   1cf18:	e044400e 	sub	r4, r4, lr
   1cf1c:	e083300e 	add	r3, r3, lr
   1cf20:	ea000000 	b	1cf28 <initrd_image+0xef28>
   1cf24:	e5f32001 	ldrb	r2, [r3, #1]!
   1cf28:	e2800001 	add	r0, r0, #1
   1cf2c:	e3500c01 	cmp	r0, #256	; 0x100
   1cf30:	e5ec2001 	strb	r2, [ip, #1]!
   1cf34:	0affff35 	beq	1cc10 <initrd_image+0xec10>
   1cf38:	e1500004 	cmp	r0, r4
   1cf3c:	1afffff8 	bne	1cf24 <initrd_image+0xef24>
   1cf40:	eaffff30 	b	1cc08 <initrd_image+0xec08>
   1cf44:	e7ca3000 	strb	r3, [sl, r0]
   1cf48:	e2800001 	add	r0, r0, #1
   1cf4c:	e3500c01 	cmp	r0, #256	; 0x100
   1cf50:	e2811001 	add	r1, r1, #1
   1cf54:	1affff2b 	bne	1cc08 <initrd_image+0xec08>
   1cf58:	eaffffd0 	b	1cea0 <initrd_image+0xeea0>
   1cf5c:	e04cc007 	sub	ip, ip, r7
   1cf60:	e35c0000 	cmp	ip, #0
   1cf64:	daffffb9 	ble	1ce50 <initrd_image+0xee50>
   1cf68:	e35000ff 	cmp	r0, #255	; 0xff
   1cf6c:	e7cab000 	strb	fp, [sl, r0]
   1cf70:	e08a5000 	add	r5, sl, r0
   1cf74:	e2802001 	add	r2, r0, #1
   1cf78:	0a000007 	beq	1cf9c <initrd_image+0xef9c>
   1cf7c:	e08c0000 	add	r0, ip, r0
   1cf80:	e1a0c005 	mov	ip, r5
   1cf84:	e1520000 	cmp	r2, r0
   1cf88:	e2822001 	add	r2, r2, #1
   1cf8c:	0affffaf 	beq	1ce50 <initrd_image+0xee50>
   1cf90:	e3520c01 	cmp	r2, #256	; 0x100
   1cf94:	e5ecb001 	strb	fp, [ip, #1]!
   1cf98:	1afffff9 	bne	1cf84 <initrd_image+0xef84>
   1cf9c:	e3a00c01 	mov	r0, #256	; 0x100
   1cfa0:	eaffffaa 	b	1ce50 <initrd_image+0xee50>
   1cfa4:	e1a00003 	mov	r0, r3
   1cfa8:	e12fff1e 	bx	lr
   1cfac:	cccccccd 	stclgt	12, cr12, [ip], {205}	; 0xcd
   1cfb0:	e92d000f 	push	{r0, r1, r2, r3}
   1cfb4:	e92d4030 	push	{r4, r5, lr}
   1cfb8:	e24ddf43 	sub	sp, sp, #268	; 0x10c
   1cfbc:	e28d5008 	add	r5, sp, #8
   1cfc0:	e28d2f47 	add	r2, sp, #284	; 0x11c
   1cfc4:	e59d1118 	ldr	r1, [sp, #280]	; 0x118
   1cfc8:	e1a00005 	mov	r0, r5
   1cfcc:	e58d2004 	str	r2, [sp, #4]
   1cfd0:	ebfffefb 	bl	1cbc4 <initrd_image+0xebc4>
   1cfd4:	e1a04000 	mov	r4, r0
   1cfd8:	e1a01005 	mov	r1, r5
   1cfdc:	e1a02004 	mov	r2, r4
   1cfe0:	e3a00001 	mov	r0, #1
   1cfe4:	eb0000b6 	bl	1d2c4 <initrd_image+0xf2c4>
   1cfe8:	e1a00004 	mov	r0, r4
   1cfec:	e28ddf43 	add	sp, sp, #268	; 0x10c
   1cff0:	e8bd4030 	pop	{r4, r5, lr}
   1cff4:	e28dd010 	add	sp, sp, #16
   1cff8:	e12fff1e 	bx	lr
   1cffc:	e92d000e 	push	{r1, r2, r3}
   1d000:	e92d4010 	push	{r4, lr}
   1d004:	e24dd00c 	sub	sp, sp, #12
   1d008:	e28d2018 	add	r2, sp, #24
   1d00c:	e59d1014 	ldr	r1, [sp, #20]
   1d010:	e1a04000 	mov	r4, r0
   1d014:	e58d2004 	str	r2, [sp, #4]
   1d018:	ebfffee9 	bl	1cbc4 <initrd_image+0xebc4>
   1d01c:	e3a02000 	mov	r2, #0
   1d020:	e7c42000 	strb	r2, [r4, r0]
   1d024:	e28dd00c 	add	sp, sp, #12
   1d028:	e8bd4010 	pop	{r4, lr}
   1d02c:	e28dd00c 	add	sp, sp, #12
   1d030:	e12fff1e 	bx	lr
   1d034:	e92d4010 	push	{r4, lr}
   1d038:	e3a04000 	mov	r4, #0
   1d03c:	e1a03000 	mov	r3, r0
   1d040:	e24dd008 	sub	sp, sp, #8
   1d044:	e1a0000d 	mov	r0, sp
   1d048:	e1a01004 	mov	r1, r4
   1d04c:	e88d0018 	stm	sp, {r3, r4}
   1d050:	eb0000dc 	bl	1d3c8 <initrd_image+0xf3c8>
   1d054:	e1a00004 	mov	r0, r4
   1d058:	e28dd008 	add	sp, sp, #8
   1d05c:	e8bd8010 	pop	{r4, pc}
   1d060:	e1a03000 	mov	r3, r0
   1d064:	e59f2044 	ldr	r2, [pc, #68]	; 1d0b0 <initrd_image+0xf0b0>
   1d068:	e52de004 	push	{lr}		; (str lr, [sp, #-4]!)
   1d06c:	e082c392 	umull	ip, r2, r2, r3
   1d070:	e1a02922 	lsr	r2, r2, #18
   1d074:	e062c282 	rsb	ip, r2, r2, lsl #5
   1d078:	e06cc30c 	rsb	ip, ip, ip, lsl #6
   1d07c:	e082c18c 	add	ip, r2, ip, lsl #3
   1d080:	e043330c 	sub	r3, r3, ip, lsl #6
   1d084:	e063c283 	rsb	ip, r3, r3, lsl #5
   1d088:	e24dd00c 	sub	sp, sp, #12
   1d08c:	e083310c 	add	r3, r3, ip, lsl #2
   1d090:	e1a03183 	lsl	r3, r3, #3
   1d094:	e3a01000 	mov	r1, #0
   1d098:	e1a0000d 	mov	r0, sp
   1d09c:	e1cd20f0 	strd	r2, [sp]
   1d0a0:	eb0000c8 	bl	1d3c8 <initrd_image+0xf3c8>
   1d0a4:	e3a00000 	mov	r0, #0
   1d0a8:	e28dd00c 	add	sp, sp, #12
   1d0ac:	e49df004 	pop	{pc}		; (ldr pc, [sp], #4)
   1d0b0:	431bde83 	tstmi	fp, #2096	; 0x830
   1d0b4:	e92d4010 	push	{r4, lr}
   1d0b8:	e1a04000 	mov	r4, r0
   1d0bc:	eb0000d5 	bl	1d418 <initrd_image+0xf418>
   1d0c0:	e3540000 	cmp	r4, #0
   1d0c4:	15840000 	strne	r0, [r4]
   1d0c8:	e8bd8010 	pop	{r4, pc}
   1d0cc:	e92d4010 	push	{r4, lr}
   1d0d0:	e3a0e000 	mov	lr, #0
   1d0d4:	e59f31a0 	ldr	r3, [pc, #416]	; 1d27c <initrd_image+0xf27c>
   1d0d8:	e1a04001 	mov	r4, r1
   1d0dc:	e1500003 	cmp	r0, r3
   1d0e0:	e24dd008 	sub	sp, sp, #8
   1d0e4:	e5c1e000 	strb	lr, [r1]
   1d0e8:	ca00002d 	bgt	1d1a4 <initrd_image+0xf1a4>
   1d0ec:	e3500ee1 	cmp	r0, #3600	; 0xe10
   1d0f0:	da000013 	ble	1d144 <initrd_image+0xf144>
   1d0f4:	e59f2184 	ldr	r2, [pc, #388]	; 1d280 <initrd_image+0xf280>
   1d0f8:	e1a03fc0 	asr	r3, r0, #31
   1d0fc:	e0c21092 	smull	r1, r2, r2, r0
   1d100:	e0822000 	add	r2, r2, r0
   1d104:	e06325c2 	rsb	r2, r3, r2, asr #11
   1d108:	e062ca02 	rsb	ip, r2, r2, lsl #20
   1d10c:	e082c18c 	add	ip, r2, ip, lsl #3
   1d110:	e062c28c 	rsb	ip, r2, ip, lsl #5
   1d114:	e080c20c 	add	ip, r0, ip, lsl #4
   1d118:	e35c003c 	cmp	ip, #60	; 0x3c
   1d11c:	d1a0300e 	movle	r3, lr
   1d120:	ca00004d 	bgt	1d25c <initrd_image+0xf25c>
   1d124:	e59f1158 	ldr	r1, [pc, #344]	; 1d284 <initrd_image+0xf284>
   1d128:	e1a00004 	mov	r0, r4
   1d12c:	e08f1001 	add	r1, pc, r1
   1d130:	e58dc000 	str	ip, [sp]
   1d134:	ebffffb0 	bl	1cffc <initrd_image+0xeffc>
   1d138:	e1a00004 	mov	r0, r4
   1d13c:	e28dd008 	add	sp, sp, #8
   1d140:	e8bd8010 	pop	{r4, pc}
   1d144:	e350003c 	cmp	r0, #60	; 0x3c
   1d148:	da00000d 	ble	1d184 <initrd_image+0xf184>
   1d14c:	e59f3134 	ldr	r3, [pc, #308]	; 1d288 <initrd_image+0xf288>
   1d150:	e1a02fc0 	asr	r2, r0, #31
   1d154:	e0c31093 	smull	r1, r3, r3, r0
   1d158:	e0833000 	add	r3, r3, r0
   1d15c:	e06222c3 	rsb	r2, r2, r3, asr #5
   1d160:	e59f1124 	ldr	r1, [pc, #292]	; 1d28c <initrd_image+0xf28c>
   1d164:	e0423202 	sub	r3, r2, r2, lsl #4
   1d168:	e0803103 	add	r3, r0, r3, lsl #2
   1d16c:	e08f1001 	add	r1, pc, r1
   1d170:	e1a00004 	mov	r0, r4
   1d174:	ebffffa0 	bl	1cffc <initrd_image+0xeffc>
   1d178:	e1a00004 	mov	r0, r4
   1d17c:	e28dd008 	add	sp, sp, #8
   1d180:	e8bd8010 	pop	{r4, pc}
   1d184:	e1a02000 	mov	r2, r0
   1d188:	e1a00001 	mov	r0, r1
   1d18c:	e59f10fc 	ldr	r1, [pc, #252]	; 1d290 <initrd_image+0xf290>
   1d190:	e08f1001 	add	r1, pc, r1
   1d194:	ebffff98 	bl	1cffc <initrd_image+0xeffc>
   1d198:	e1a00004 	mov	r0, r4
   1d19c:	e28dd008 	add	sp, sp, #8
   1d1a0:	e8bd8010 	pop	{r4, pc}
   1d1a4:	e59f20e8 	ldr	r2, [pc, #232]	; 1d294 <initrd_image+0xf294>
   1d1a8:	e1a03fc0 	asr	r3, r0, #31
   1d1ac:	e0c21092 	smull	r1, r2, r2, r0
   1d1b0:	e0822000 	add	r2, r2, r0
   1d1b4:	e0632842 	rsb	r2, r3, r2, asr #16
   1d1b8:	e082c082 	add	ip, r2, r2, lsl #1
   1d1bc:	e06cc20c 	rsb	ip, ip, ip, lsl #4
   1d1c0:	e06cc20c 	rsb	ip, ip, ip, lsl #4
   1d1c4:	e040038c 	sub	r0, r0, ip, lsl #7
   1d1c8:	e3500ee1 	cmp	r0, #3600	; 0xe10
   1d1cc:	ca000005 	bgt	1d1e8 <initrd_image+0xf1e8>
   1d1d0:	e350003c 	cmp	r0, #60	; 0x3c
   1d1d4:	da00001e 	ble	1d254 <initrd_image+0xf254>
   1d1d8:	e59f10a8 	ldr	r1, [pc, #168]	; 1d288 <initrd_image+0xf288>
   1d1dc:	e1a0300e 	mov	r3, lr
   1d1e0:	e0ce1091 	smull	r1, lr, r1, r0
   1d1e4:	ea00000c 	b	1d21c <initrd_image+0xf21c>
   1d1e8:	e59f3090 	ldr	r3, [pc, #144]	; 1d280 <initrd_image+0xf280>
   1d1ec:	e0c31093 	smull	r1, r3, r3, r0
   1d1f0:	e1a01fc0 	asr	r1, r0, #31
   1d1f4:	e0833000 	add	r3, r3, r0
   1d1f8:	e06135c3 	rsb	r3, r1, r3, asr #11
   1d1fc:	e0631a03 	rsb	r1, r3, r3, lsl #20
   1d200:	e0831181 	add	r1, r3, r1, lsl #3
   1d204:	e0631281 	rsb	r1, r3, r1, lsl #5
   1d208:	e0800201 	add	r0, r0, r1, lsl #4
   1d20c:	e350003c 	cmp	r0, #60	; 0x3c
   1d210:	da000006 	ble	1d230 <initrd_image+0xf230>
   1d214:	e59fe06c 	ldr	lr, [pc, #108]	; 1d288 <initrd_image+0xf288>
   1d218:	e0ce109e 	smull	r1, lr, lr, r0
   1d21c:	e08e1000 	add	r1, lr, r0
   1d220:	e1a0efc0 	asr	lr, r0, #31
   1d224:	e06ee2c1 	rsb	lr, lr, r1, asr #5
   1d228:	e04e120e 	sub	r1, lr, lr, lsl #4
   1d22c:	e0800101 	add	r0, r0, r1, lsl #2
   1d230:	e59f1060 	ldr	r1, [pc, #96]	; 1d298 <initrd_image+0xf298>
   1d234:	e58d0004 	str	r0, [sp, #4]
   1d238:	e08f1001 	add	r1, pc, r1
   1d23c:	e1a00004 	mov	r0, r4
   1d240:	e58de000 	str	lr, [sp]
   1d244:	ebffff6c 	bl	1cffc <initrd_image+0xeffc>
   1d248:	e1a00004 	mov	r0, r4
   1d24c:	e28dd008 	add	sp, sp, #8
   1d250:	e8bd8010 	pop	{r4, pc}
   1d254:	e1a0300e 	mov	r3, lr
   1d258:	eafffff4 	b	1d230 <initrd_image+0xf230>
   1d25c:	e59fe024 	ldr	lr, [pc, #36]	; 1d288 <initrd_image+0xf288>
   1d260:	e1a03fcc 	asr	r3, ip, #31
   1d264:	e0ce1c9e 	smull	r1, lr, lr, ip
   1d268:	e08ee00c 	add	lr, lr, ip
   1d26c:	e06332ce 	rsb	r3, r3, lr, asr #5
   1d270:	e0431203 	sub	r1, r3, r3, lsl #4
   1d274:	e08cc101 	add	ip, ip, r1, lsl #2
   1d278:	eaffffa9 	b	1d124 <initrd_image+0xf124>
   1d27c:	00015180 	andeq	r5, r1, r0, lsl #3
   1d280:	91a2b3c5 			; <UNDEFINED> instruction: 0x91a2b3c5
   1d284:	00000a98 	muleq	r0, r8, sl
   1d288:	88888889 	stmhi	r8, {r0, r3, r7, fp, pc}
   1d28c:	00000a5c 	andeq	r0, r0, ip, asr sl
   1d290:	00000a3c 	andeq	r0, r0, ip, lsr sl
   1d294:	c22e4507 	eorgt	r4, lr, #29360128	; 0x1c00000
   1d298:	00000988 	andeq	r0, r0, r8, lsl #19
   1d29c:	e52d7004 	push	{r7}		; (str r7, [sp, #-4]!)
   1d2a0:	e3a07001 	mov	r7, #1
   1d2a4:	ef000000 	svc	0x00000000
   1d2a8:	e49d7004 	pop	{r7}		; (ldr r7, [sp], #4)
   1d2ac:	e12fff1e 	bx	lr
   1d2b0:	e52d7004 	push	{r7}		; (str r7, [sp, #-4]!)
   1d2b4:	e3a07003 	mov	r7, #3
   1d2b8:	ef000000 	svc	0x00000000
   1d2bc:	e49d7004 	pop	{r7}		; (ldr r7, [sp], #4)
   1d2c0:	e12fff1e 	bx	lr
   1d2c4:	e52d7004 	push	{r7}		; (str r7, [sp, #-4]!)
   1d2c8:	e3a07004 	mov	r7, #4
   1d2cc:	ef000000 	svc	0x00000000
   1d2d0:	e49d7004 	pop	{r7}		; (ldr r7, [sp], #4)
   1d2d4:	e12fff1e 	bx	lr
   1d2d8:	e52d7004 	push	{r7}		; (str r7, [sp, #-4]!)
   1d2dc:	e3a07005 	mov	r7, #5
   1d2e0:	ef000000 	svc	0x00000000
   1d2e4:	e49d7004 	pop	{r7}		; (ldr r7, [sp], #4)
   1d2e8:	e12fff1e 	bx	lr
   1d2ec:	e52d7004 	push	{r7}		; (str r7, [sp, #-4]!)
   1d2f0:	e3a07006 	mov	r7, #6
   1d2f4:	ef000000 	svc	0x00000000
   1d2f8:	e49d7004 	pop	{r7}		; (ldr r7, [sp], #4)
   1d2fc:	e12fff1e 	bx	lr
   1d300:	e52d7004 	push	{r7}		; (str r7, [sp, #-4]!)
   1d304:	e3a07007 	mov	r7, #7
   1d308:	ef000000 	svc	0x00000000
   1d30c:	e49d7004 	pop	{r7}		; (ldr r7, [sp], #4)
   1d310:	e12fff1e 	bx	lr
   1d314:	e52d7004 	push	{r7}		; (str r7, [sp, #-4]!)
   1d318:	e3a0700b 	mov	r7, #11
   1d31c:	ef000000 	svc	0x00000000
   1d320:	e49d7004 	pop	{r7}		; (ldr r7, [sp], #4)
   1d324:	e12fff1e 	bx	lr
   1d328:	e52d7004 	push	{r7}		; (str r7, [sp, #-4]!)
   1d32c:	e3a0700c 	mov	r7, #12
   1d330:	ef000000 	svc	0x00000000
   1d334:	e49d7004 	pop	{r7}		; (ldr r7, [sp], #4)
   1d338:	e12fff1e 	bx	lr
   1d33c:	e52d7004 	push	{r7}		; (str r7, [sp, #-4]!)
   1d340:	e3a070b7 	mov	r7, #183	; 0xb7
   1d344:	ef000000 	svc	0x00000000
   1d348:	e49d7004 	pop	{r7}		; (ldr r7, [sp], #4)
   1d34c:	e12fff1e 	bx	lr
   1d350:	e52d7004 	push	{r7}		; (str r7, [sp, #-4]!)
   1d354:	e3a07014 	mov	r7, #20
   1d358:	ef000000 	svc	0x00000000
   1d35c:	e49d7004 	pop	{r7}		; (ldr r7, [sp], #4)
   1d360:	e12fff1e 	bx	lr
   1d364:	e52d7004 	push	{r7}		; (str r7, [sp, #-4]!)
   1d368:	e3a0702b 	mov	r7, #43	; 0x2b
   1d36c:	ef000000 	svc	0x00000000
   1d370:	e49d7004 	pop	{r7}		; (ldr r7, [sp], #4)
   1d374:	e12fff1e 	bx	lr
   1d378:	e52d7004 	push	{r7}		; (str r7, [sp, #-4]!)
   1d37c:	e3a0706a 	mov	r7, #106	; 0x6a
   1d380:	ef000000 	svc	0x00000000
   1d384:	e49d7004 	pop	{r7}		; (ldr r7, [sp], #4)
   1d388:	e12fff1e 	bx	lr
   1d38c:	e52d7004 	push	{r7}		; (str r7, [sp, #-4]!)
   1d390:	e3a07074 	mov	r7, #116	; 0x74
   1d394:	ef000000 	svc	0x00000000
   1d398:	e49d7004 	pop	{r7}		; (ldr r7, [sp], #4)
   1d39c:	e12fff1e 	bx	lr
   1d3a0:	e52d7004 	push	{r7}		; (str r7, [sp, #-4]!)
   1d3a4:	e3a0707a 	mov	r7, #122	; 0x7a
   1d3a8:	ef000000 	svc	0x00000000
   1d3ac:	e49d7004 	pop	{r7}		; (ldr r7, [sp], #4)
   1d3b0:	e12fff1e 	bx	lr
   1d3b4:	e52d7004 	push	{r7}		; (str r7, [sp, #-4]!)
   1d3b8:	e3a0708d 	mov	r7, #141	; 0x8d
   1d3bc:	ef000000 	svc	0x00000000
   1d3c0:	e49d7004 	pop	{r7}		; (ldr r7, [sp], #4)
   1d3c4:	e12fff1e 	bx	lr
   1d3c8:	e52d7004 	push	{r7}		; (str r7, [sp, #-4]!)
   1d3cc:	e3a070a2 	mov	r7, #162	; 0xa2
   1d3d0:	ef000000 	svc	0x00000000
   1d3d4:	e49d7004 	pop	{r7}		; (ldr r7, [sp], #4)
   1d3d8:	e12fff1e 	bx	lr
   1d3dc:	e52d7004 	push	{r7}		; (str r7, [sp, #-4]!)
   1d3e0:	e3a070be 	mov	r7, #190	; 0xbe
   1d3e4:	ef000000 	svc	0x00000000
   1d3e8:	e49d7004 	pop	{r7}		; (ldr r7, [sp], #4)
   1d3ec:	e12fff1e 	bx	lr
   1d3f0:	e52d7004 	push	{r7}		; (str r7, [sp, #-4]!)
   1d3f4:	e3a07036 	mov	r7, #54	; 0x36
   1d3f8:	ef000000 	svc	0x00000000
   1d3fc:	e49d7004 	pop	{r7}		; (ldr r7, [sp], #4)
   1d400:	e12fff1e 	bx	lr
   1d404:	e52d7004 	push	{r7}		; (str r7, [sp, #-4]!)
   1d408:	e3a07036 	mov	r7, #54	; 0x36
   1d40c:	ef000000 	svc	0x00000000
   1d410:	e49d7004 	pop	{r7}		; (ldr r7, [sp], #4)
   1d414:	e12fff1e 	bx	lr
   1d418:	e52d7004 	push	{r7}		; (str r7, [sp, #-4]!)
   1d41c:	e3a0700d 	mov	r7, #13
   1d420:	ef000000 	svc	0x00000000
   1d424:	e49d7004 	pop	{r7}		; (ldr r7, [sp], #4)
   1d428:	e12fff1e 	bx	lr
   1d42c:	e52d7004 	push	{r7}		; (str r7, [sp, #-4]!)
   1d430:	e3a07058 	mov	r7, #88	; 0x58
   1d434:	ef000000 	svc	0x00000000
   1d438:	e49d7004 	pop	{r7}		; (ldr r7, [sp], #4)
   1d43c:	e12fff1e 	bx	lr
   1d440:	e92d4070 	push	{r4, r5, r6, lr}
   1d444:	e3a00000 	mov	r0, #0
   1d448:	e24dd010 	sub	sp, sp, #16
   1d44c:	ebffff18 	bl	1d0b4 <initrd_image+0xf0b4>
   1d450:	e1a05000 	mov	r5, r0
   1d454:	e59f607c 	ldr	r6, [pc, #124]	; 1d4d8 <initrd_image+0xf4d8>
   1d458:	e08f6006 	add	r6, pc, r6
   1d45c:	e1a00006 	mov	r0, r6
   1d460:	ebfffed2 	bl	1cfb0 <initrd_image+0xefb0>
   1d464:	e3a01801 	mov	r1, #65536	; 0x10000
   1d468:	e2511001 	subs	r1, r1, #1
   1d46c:	1afffffd 	bne	1d468 <initrd_image+0xf468>
   1d470:	e3a00000 	mov	r0, #0
   1d474:	ebffff0e 	bl	1d0b4 <initrd_image+0xf0b4>
   1d478:	e0404005 	sub	r4, r0, r5
   1d47c:	e3540005 	cmp	r4, #5
   1d480:	dafffff5 	ble	1d45c <initrd_image+0xf45c>
   1d484:	e1a0000d 	mov	r0, sp
   1d488:	ebffffb5 	bl	1d364 <initrd_image+0xf364>
   1d48c:	e59d3000 	ldr	r3, [sp]
   1d490:	e1a01004 	mov	r1, r4
   1d494:	e3530000 	cmp	r3, #0
   1d498:	e283503f 	add	r5, r3, #63	; 0x3f
   1d49c:	a1a05003 	movge	r5, r3
   1d4a0:	e1a05345 	asr	r5, r5, #6
   1d4a4:	e0850105 	add	r0, r5, r5, lsl #2
   1d4a8:	e0800100 	add	r0, r0, r0, lsl #2
   1d4ac:	e1a00100 	lsl	r0, r0, #2
   1d4b0:	ebfffdae 	bl	1cb70 <initrd_image+0xeb70>
   1d4b4:	e1a03000 	mov	r3, r0
   1d4b8:	e59f001c 	ldr	r0, [pc, #28]	; 1d4dc <initrd_image+0xf4dc>
   1d4bc:	e1a02005 	mov	r2, r5
   1d4c0:	e1a01004 	mov	r1, r4
   1d4c4:	e08f0000 	add	r0, pc, r0
   1d4c8:	ebfffeb8 	bl	1cfb0 <initrd_image+0xefb0>
   1d4cc:	e3a00000 	mov	r0, #0
   1d4d0:	e28dd010 	add	sp, sp, #16
   1d4d4:	e8bd8070 	pop	{r4, r5, r6, pc}
   1d4d8:	00000700 	andeq	r0, r0, r0, lsl #14
   1d4dc:	00000698 	muleq	r0, r8, r6
	...
   1db60:	00000042 	andeq	r0, r0, r2, asr #32
   1db64:	6d69540a 	cfstrdvs	mvd5, [r9, #-40]!	; 0xffffffd8
   1db68:	75722065 	ldrbvc	r2, [r2, #-101]!	; 0xffffff9b
   1db6c:	6e696e6e 	cdpvs	14, 6, cr6, cr9, cr14, {3}
   1db70:	3a422067 	bcc	10a5d14 <__bss_end+0x106cd14>
   1db74:	6c615720 	stclvs	7, cr5, [r1], #-128	; 0xffffff80
   1db78:	6f6c636c 	svcvs	0x006c636c
   1db7c:	203a6b63 	eorscs	r6, sl, r3, ror #22
   1db80:	73206425 			; <UNDEFINED> instruction: 0x73206425
   1db84:	6e6f6365 	cdpvs	3, 6, cr6, cr15, cr5, {3}
   1db88:	202c7364 	eorcs	r7, ip, r4, ror #6
   1db8c:	72657355 	rsbvc	r7, r5, #1409286145	; 0x54000001
   1db90:	6425203a 	strtvs	r2, [r5], #-58	; 0xffffffc6
   1db94:	63657320 	cmnvs	r5, #32, 6	; 0x80000000
   1db98:	73646e6f 	cmnvc	r4, #1776	; 0x6f0
   1db9c:	7552202c 	ldrbvc	r2, [r2, #-44]	; 0xffffffd4
   1dba0:	6e696e6e 	cdpvs	14, 6, cr6, cr9, cr14, {3}
   1dba4:	64252067 	strtvs	r2, [r5], #-103	; 0xffffff99
   1dba8:	6f202525 	svcvs	0x00202525
   1dbac:	69742066 	ldmdbvs	r4!, {r1, r2, r5, r6, sp}^
   1dbb0:	000a656d 	andeq	r6, sl, sp, ror #10
   1dbb4:	69766944 	ldmdbvs	r6!, {r2, r6, r8, fp, sp, lr}^
   1dbb8:	6e6f6973 			; <UNDEFINED> instruction: 0x6e6f6973
   1dbbc:	20796220 	rsbscs	r6, r9, r0, lsr #4
   1dbc0:	6f72657a 	svcvs	0x0072657a
   1dbc4:	00000a21 	andeq	r0, r0, r1, lsr #20
   1dbc8:	20646425 	rsbcs	r6, r4, r5, lsr #8
   1dbcc:	20686425 	rsbcs	r6, r8, r5, lsr #8
   1dbd0:	206d6425 	rsbcs	r6, sp, r5, lsr #8
   1dbd4:	00736425 	rsbseq	r6, r3, r5, lsr #8
	...
   1dbe0:	1a0c0100 	bne	31dfe8 <__bss_end+0x2e4fe8>
   1dbe4:	00000000 	andeq	r0, r0, r0
   1dbe8:	04100000 	ldreq	r0, [r0], #-0
   1dbec:	e27f878f 	rsbs	r8, pc, #37486592	; 0x23c0000
   1dbf0:	00647770 	rsbeq	r7, r4, r0, ror r7
	...
   1dc00:	e92d4010 	push	{r4, lr}
   1dc04:	eb000186 	bl	1e224 <initrd_image+0x10224>
   1dc08:	e8bd4010 	pop	{r4, lr}
   1dc0c:	ea00011b 	b	1e080 <initrd_image+0x10080>
   1dc10:	e5d13000 	ldrb	r3, [r1]
   1dc14:	e3530000 	cmp	r3, #0
   1dc18:	0a0000f4 	beq	1dff0 <initrd_image+0xfff0>
   1dc1c:	e92d4ff0 	push	{r4, r5, r6, r7, r8, r9, sl, fp, lr}
   1dc20:	e24dd024 	sub	sp, sp, #36	; 0x24
   1dc24:	e1a08002 	mov	r8, r2
   1dc28:	e28d200c 	add	r2, sp, #12
   1dc2c:	e1a0a000 	mov	sl, r0
   1dc30:	e59f93c0 	ldr	r9, [pc, #960]	; 1dff8 <initrd_image+0xfff8>
   1dc34:	e3a00000 	mov	r0, #0
   1dc38:	e58d2004 	str	r2, [sp, #4]
   1dc3c:	ea000009 	b	1dc68 <initrd_image+0xfc68>
   1dc40:	e7ca3000 	strb	r3, [sl, r0]
   1dc44:	e2800001 	add	r0, r0, #1
   1dc48:	e3500c01 	cmp	r0, #256	; 0x100
   1dc4c:	0a0000a6 	beq	1deec <initrd_image+0xfeec>
   1dc50:	e2811001 	add	r1, r1, #1
   1dc54:	e35000ff 	cmp	r0, #255	; 0xff
   1dc58:	0a000037 	beq	1dd3c <initrd_image+0xfd3c>
   1dc5c:	e5d13000 	ldrb	r3, [r1]
   1dc60:	e3530000 	cmp	r3, #0
   1dc64:	0a000034 	beq	1dd3c <initrd_image+0xfd3c>
   1dc68:	e3530025 	cmp	r3, #37	; 0x25
   1dc6c:	1afffff3 	bne	1dc40 <initrd_image+0xfc40>
   1dc70:	e5d13001 	ldrb	r3, [r1, #1]
   1dc74:	e243c030 	sub	ip, r3, #48	; 0x30
   1dc78:	e6efc07c 	uxtb	ip, ip
   1dc7c:	e35c0009 	cmp	ip, #9
   1dc80:	83a0c000 	movhi	ip, #0
   1dc84:	83a0b020 	movhi	fp, #32
   1dc88:	82811001 	addhi	r1, r1, #1
   1dc8c:	9a000045 	bls	1dda8 <initrd_image+0xfda8>
   1dc90:	e3530069 	cmp	r3, #105	; 0x69
   1dc94:	13530064 	cmpne	r3, #100	; 0x64
   1dc98:	1a000029 	bne	1dd44 <initrd_image+0xfd44>
   1dc9c:	e4983004 	ldr	r3, [r8], #4
   1dca0:	e2811001 	add	r1, r1, #1
   1dca4:	e3530000 	cmp	r3, #0
   1dca8:	a3a07000 	movge	r7, #0
   1dcac:	ba00004e 	blt	1ddec <initrd_image+0xfdec>
   1dcb0:	e3a05009 	mov	r5, #9
   1dcb4:	e2877009 	add	r7, r7, #9
   1dcb8:	e28d6016 	add	r6, sp, #22
   1dcbc:	e0842399 	umull	r2, r4, r9, r3
   1dcc0:	e1a041a4 	lsr	r4, r4, #3
   1dcc4:	e0842104 	add	r2, r4, r4, lsl #2
   1dcc8:	e0432082 	sub	r2, r3, r2, lsl #1
   1dccc:	e1a0e005 	mov	lr, r5
   1dcd0:	e2822030 	add	r2, r2, #48	; 0x30
   1dcd4:	e2455001 	sub	r5, r5, #1
   1dcd8:	e3530009 	cmp	r3, #9
   1dcdc:	e6ef2072 	uxtb	r2, r2
   1dce0:	e1a03004 	mov	r3, r4
   1dce4:	e0474005 	sub	r4, r7, r5
   1dce8:	e5662001 	strb	r2, [r6, #-1]!
   1dcec:	e6ef4074 	uxtb	r4, r4
   1dcf0:	8afffff1 	bhi	1dcbc <initrd_image+0xfcbc>
   1dcf4:	e15c0004 	cmp	ip, r4
   1dcf8:	8a000043 	bhi	1de0c <initrd_image+0xfe0c>
   1dcfc:	e59d4004 	ldr	r4, [sp, #4]
   1dd00:	e26ec00a 	rsb	ip, lr, #10
   1dd04:	e2403001 	sub	r3, r0, #1
   1dd08:	e08a3003 	add	r3, sl, r3
   1dd0c:	e084e00e 	add	lr, r4, lr
   1dd10:	e08cc000 	add	ip, ip, r0
   1dd14:	ea000000 	b	1dd1c <initrd_image+0xfd1c>
   1dd18:	e5fe2001 	ldrb	r2, [lr, #1]!
   1dd1c:	e2800001 	add	r0, r0, #1
   1dd20:	e3500c01 	cmp	r0, #256	; 0x100
   1dd24:	e5e32001 	strb	r2, [r3, #1]!
   1dd28:	0affffcb 	beq	1dc5c <initrd_image+0xfc5c>
   1dd2c:	e15c0000 	cmp	ip, r0
   1dd30:	1afffff8 	bne	1dd18 <initrd_image+0xfd18>
   1dd34:	e35000ff 	cmp	r0, #255	; 0xff
   1dd38:	1affffc7 	bne	1dc5c <initrd_image+0xfc5c>
   1dd3c:	e28dd024 	add	sp, sp, #36	; 0x24
   1dd40:	e8bd8ff0 	pop	{r4, r5, r6, r7, r8, r9, sl, fp, pc}
   1dd44:	e353006c 	cmp	r3, #108	; 0x6c
   1dd48:	0a00006a 	beq	1def8 <initrd_image+0xfef8>
   1dd4c:	e20320f7 	and	r2, r3, #247	; 0xf7
   1dd50:	e3520070 	cmp	r2, #112	; 0x70
   1dd54:	0a00003d 	beq	1de50 <initrd_image+0xfe50>
   1dd58:	e3530063 	cmp	r3, #99	; 0x63
   1dd5c:	0a00005c 	beq	1ded4 <initrd_image+0xfed4>
   1dd60:	e3530025 	cmp	r3, #37	; 0x25
   1dd64:	0a000089 	beq	1df90 <initrd_image+0xff90>
   1dd68:	e3530073 	cmp	r3, #115	; 0x73
   1dd6c:	1affffb8 	bne	1dc54 <initrd_image+0xfc54>
   1dd70:	e498c004 	ldr	ip, [r8], #4
   1dd74:	e2402001 	sub	r2, r0, #1
   1dd78:	e2811001 	add	r1, r1, #1
   1dd7c:	e08a2002 	add	r2, sl, r2
   1dd80:	e04cc000 	sub	ip, ip, r0
   1dd84:	ea000003 	b	1dd98 <initrd_image+0xfd98>
   1dd88:	e2800001 	add	r0, r0, #1
   1dd8c:	e3500c01 	cmp	r0, #256	; 0x100
   1dd90:	e5e23001 	strb	r3, [r2, #1]!
   1dd94:	0affffb0 	beq	1dc5c <initrd_image+0xfc5c>
   1dd98:	e7dc3000 	ldrb	r3, [ip, r0]
   1dd9c:	e3530000 	cmp	r3, #0
   1dda0:	1afffff8 	bne	1dd88 <initrd_image+0xfd88>
   1dda4:	eaffffaa 	b	1dc54 <initrd_image+0xfc54>
   1dda8:	e3530030 	cmp	r3, #48	; 0x30
   1ddac:	e5d13002 	ldrb	r3, [r1, #2]
   1ddb0:	03a0b030 	moveq	fp, #48	; 0x30
   1ddb4:	e2432030 	sub	r2, r3, #48	; 0x30
   1ddb8:	13a0b020 	movne	fp, #32
   1ddbc:	e3520009 	cmp	r2, #9
   1ddc0:	e2811002 	add	r1, r1, #2
   1ddc4:	8affffb1 	bhi	1dc90 <initrd_image+0xfc90>
   1ddc8:	e08cc10c 	add	ip, ip, ip, lsl #2
   1ddcc:	e083c08c 	add	ip, r3, ip, lsl #1
   1ddd0:	e5f13001 	ldrb	r3, [r1, #1]!
   1ddd4:	e24cc030 	sub	ip, ip, #48	; 0x30
   1ddd8:	e2432030 	sub	r2, r3, #48	; 0x30
   1dddc:	e3520009 	cmp	r2, #9
   1dde0:	e20cc0ff 	and	ip, ip, #255	; 0xff
   1dde4:	9afffff7 	bls	1ddc8 <initrd_image+0xfdc8>
   1dde8:	eaffffa8 	b	1dc90 <initrd_image+0xfc90>
   1ddec:	e3a0202d 	mov	r2, #45	; 0x2d
   1ddf0:	e7ca2000 	strb	r2, [sl, r0]
   1ddf4:	e2800001 	add	r0, r0, #1
   1ddf8:	e3500c01 	cmp	r0, #256	; 0x100
   1ddfc:	0a00003a 	beq	1deec <initrd_image+0xfeec>
   1de00:	e3a07001 	mov	r7, #1
   1de04:	e2633000 	rsb	r3, r3, #0
   1de08:	eaffffa8 	b	1dcb0 <initrd_image+0xfcb0>
   1de0c:	e04c4004 	sub	r4, ip, r4
   1de10:	e3540000 	cmp	r4, #0
   1de14:	daffffb8 	ble	1dcfc <initrd_image+0xfcfc>
   1de18:	e35000ff 	cmp	r0, #255	; 0xff
   1de1c:	e7cab000 	strb	fp, [sl, r0]
   1de20:	e08ac000 	add	ip, sl, r0
   1de24:	e2803001 	add	r3, r0, #1
   1de28:	0a000006 	beq	1de48 <initrd_image+0xfe48>
   1de2c:	e0840000 	add	r0, r4, r0
   1de30:	e1500003 	cmp	r0, r3
   1de34:	e2833001 	add	r3, r3, #1
   1de38:	0affffaf 	beq	1dcfc <initrd_image+0xfcfc>
   1de3c:	e3530c01 	cmp	r3, #256	; 0x100
   1de40:	e5ecb001 	strb	fp, [ip, #1]!
   1de44:	1afffff9 	bne	1de30 <initrd_image+0xfe30>
   1de48:	e3a00c01 	mov	r0, #256	; 0x100
   1de4c:	eaffffaa 	b	1dcfc <initrd_image+0xfcfc>
   1de50:	e3a0e009 	mov	lr, #9
   1de54:	e4982004 	ldr	r2, [r8], #4
   1de58:	e2811001 	add	r1, r1, #1
   1de5c:	e28d5016 	add	r5, sp, #22
   1de60:	ea000000 	b	1de68 <initrd_image+0xfe68>
   1de64:	e1a0e006 	mov	lr, r6
   1de68:	e202300f 	and	r3, r2, #15
   1de6c:	e3530009 	cmp	r3, #9
   1de70:	92833030 	addls	r3, r3, #48	; 0x30
   1de74:	82833057 	addhi	r3, r3, #87	; 0x57
   1de78:	e26e400a 	rsb	r4, lr, #10
   1de7c:	e352000f 	cmp	r2, #15
   1de80:	e24e6001 	sub	r6, lr, #1
   1de84:	e1a02222 	lsr	r2, r2, #4
   1de88:	e5653001 	strb	r3, [r5, #-1]!
   1de8c:	e6ef7074 	uxtb	r7, r4
   1de90:	8afffff3 	bhi	1de64 <initrd_image+0xfe64>
   1de94:	e15c0007 	cmp	ip, r7
   1de98:	8a000042 	bhi	1dfa8 <initrd_image+0xffa8>
   1de9c:	e59d2004 	ldr	r2, [sp, #4]
   1dea0:	e0844000 	add	r4, r4, r0
   1dea4:	e082e00e 	add	lr, r2, lr
   1dea8:	e2402001 	sub	r2, r0, #1
   1deac:	e08a2002 	add	r2, sl, r2
   1deb0:	ea000000 	b	1deb8 <initrd_image+0xfeb8>
   1deb4:	e5fe3001 	ldrb	r3, [lr, #1]!
   1deb8:	e2800001 	add	r0, r0, #1
   1debc:	e3500c01 	cmp	r0, #256	; 0x100
   1dec0:	e5e23001 	strb	r3, [r2, #1]!
   1dec4:	0affff64 	beq	1dc5c <initrd_image+0xfc5c>
   1dec8:	e1500004 	cmp	r0, r4
   1decc:	1afffff8 	bne	1deb4 <initrd_image+0xfeb4>
   1ded0:	eaffff5f 	b	1dc54 <initrd_image+0xfc54>
   1ded4:	e4983004 	ldr	r3, [r8], #4
   1ded8:	e2811001 	add	r1, r1, #1
   1dedc:	e7ca3000 	strb	r3, [sl, r0]
   1dee0:	e2800001 	add	r0, r0, #1
   1dee4:	e3500c01 	cmp	r0, #256	; 0x100
   1dee8:	1affff59 	bne	1dc54 <initrd_image+0xfc54>
   1deec:	e3a00c01 	mov	r0, #256	; 0x100
   1def0:	e28dd024 	add	sp, sp, #36	; 0x24
   1def4:	e8bd8ff0 	pop	{r4, r5, r6, r7, r8, r9, sl, fp, pc}
   1def8:	e2888007 	add	r8, r8, #7
   1defc:	e3c88007 	bic	r8, r8, #7
   1df00:	e598c004 	ldr	ip, [r8, #4]
   1df04:	e3a0e011 	mov	lr, #17
   1df08:	e4983008 	ldr	r3, [r8], #8
   1df0c:	e2811003 	add	r1, r1, #3
   1df10:	e28d401e 	add	r4, sp, #30
   1df14:	ea000000 	b	1df1c <initrd_image+0xff1c>
   1df18:	e1a0e005 	mov	lr, r5
   1df1c:	e3a05000 	mov	r5, #0
   1df20:	e203200f 	and	r2, r3, #15
   1df24:	e352000a 	cmp	r2, #10
   1df28:	e2d55000 	sbcs	r5, r5, #0
   1df2c:	32822030 	addcc	r2, r2, #48	; 0x30
   1df30:	22822057 	addcs	r2, r2, #87	; 0x57
   1df34:	e3530010 	cmp	r3, #16
   1df38:	e2dc5000 	sbcs	r5, ip, #0
   1df3c:	e1a03223 	lsr	r3, r3, #4
   1df40:	e1833e0c 	orr	r3, r3, ip, lsl #28
   1df44:	e24e5001 	sub	r5, lr, #1
   1df48:	e1a0c22c 	lsr	ip, ip, #4
   1df4c:	e5642001 	strb	r2, [r4, #-1]!
   1df50:	2afffff0 	bcs	1df18 <initrd_image+0xff18>
   1df54:	e59d3004 	ldr	r3, [sp, #4]
   1df58:	e240c001 	sub	ip, r0, #1
   1df5c:	e2804012 	add	r4, r0, #18
   1df60:	e08ac00c 	add	ip, sl, ip
   1df64:	e044400e 	sub	r4, r4, lr
   1df68:	e083300e 	add	r3, r3, lr
   1df6c:	ea000000 	b	1df74 <initrd_image+0xff74>
   1df70:	e5f32001 	ldrb	r2, [r3, #1]!
   1df74:	e2800001 	add	r0, r0, #1
   1df78:	e3500c01 	cmp	r0, #256	; 0x100
   1df7c:	e5ec2001 	strb	r2, [ip, #1]!
   1df80:	0affff35 	beq	1dc5c <initrd_image+0xfc5c>
   1df84:	e1500004 	cmp	r0, r4
   1df88:	1afffff8 	bne	1df70 <initrd_image+0xff70>
   1df8c:	eaffff30 	b	1dc54 <initrd_image+0xfc54>
   1df90:	e7ca3000 	strb	r3, [sl, r0]
   1df94:	e2800001 	add	r0, r0, #1
   1df98:	e3500c01 	cmp	r0, #256	; 0x100
   1df9c:	e2811001 	add	r1, r1, #1
   1dfa0:	1affff2b 	bne	1dc54 <initrd_image+0xfc54>
   1dfa4:	eaffffd0 	b	1deec <initrd_image+0xfeec>
   1dfa8:	e04cc007 	sub	ip, ip, r7
   1dfac:	e35c0000 	cmp	ip, #0
   1dfb0:	daffffb9 	ble	1de9c <initrd_image+0xfe9c>
   1dfb4:	e35000ff 	cmp	r0, #255	; 0xff
   1dfb8:	e7cab000 	strb	fp, [sl, r0]
   1dfbc:	e08a5000 	add	r5, sl, r0
   1dfc0:	e2802001 	add	r2, r0, #1
   1dfc4:	0a000007 	beq	1dfe8 <initrd_image+0xffe8>
   1dfc8:	e08c0000 	add	r0, ip, r0
   1dfcc:	e1a0c005 	mov	ip, r5
   1dfd0:	e1520000 	cmp	r2, r0
   1dfd4:	e2822001 	add	r2, r2, #1
   1dfd8:	0affffaf 	beq	1de9c <initrd_image+0xfe9c>
   1dfdc:	e3520c01 	cmp	r2, #256	; 0x100
   1dfe0:	e5ecb001 	strb	fp, [ip, #1]!
   1dfe4:	1afffff9 	bne	1dfd0 <initrd_image+0xffd0>
   1dfe8:	e3a00c01 	mov	r0, #256	; 0x100
   1dfec:	eaffffaa 	b	1de9c <initrd_image+0xfe9c>
   1dff0:	e1a00003 	mov	r0, r3
   1dff4:	e12fff1e 	bx	lr
   1dff8:	cccccccd 	stclgt	12, cr12, [ip], {205}	; 0xcd
   1dffc:	e92d000f 	push	{r0, r1, r2, r3}
   1e000:	e92d4030 	push	{r4, r5, lr}
   1e004:	e24ddf43 	sub	sp, sp, #268	; 0x10c
   1e008:	e28d5008 	add	r5, sp, #8
   1e00c:	e28d2f47 	add	r2, sp, #284	; 0x11c
   1e010:	e59d1118 	ldr	r1, [sp, #280]	; 0x118
   1e014:	e1a00005 	mov	r0, r5
   1e018:	e58d2004 	str	r2, [sp, #4]
   1e01c:	ebfffefb 	bl	1dc10 <initrd_image+0xfc10>
   1e020:	e1a04000 	mov	r4, r0
   1e024:	e1a01005 	mov	r1, r5
   1e028:	e1a02004 	mov	r2, r4
   1e02c:	e3a00001 	mov	r0, #1
   1e030:	eb00001c 	bl	1e0a8 <initrd_image+0x100a8>
   1e034:	e1a00004 	mov	r0, r4
   1e038:	e28ddf43 	add	sp, sp, #268	; 0x10c
   1e03c:	e8bd4030 	pop	{r4, r5, lr}
   1e040:	e28dd010 	add	sp, sp, #16
   1e044:	e12fff1e 	bx	lr
   1e048:	e92d000e 	push	{r1, r2, r3}
   1e04c:	e92d4010 	push	{r4, lr}
   1e050:	e24dd00c 	sub	sp, sp, #12
   1e054:	e28d2018 	add	r2, sp, #24
   1e058:	e59d1014 	ldr	r1, [sp, #20]
   1e05c:	e1a04000 	mov	r4, r0
   1e060:	e58d2004 	str	r2, [sp, #4]
   1e064:	ebfffee9 	bl	1dc10 <initrd_image+0xfc10>
   1e068:	e3a02000 	mov	r2, #0
   1e06c:	e7c42000 	strb	r2, [r4, r0]
   1e070:	e28dd00c 	add	sp, sp, #12
   1e074:	e8bd4010 	pop	{r4, lr}
   1e078:	e28dd00c 	add	sp, sp, #12
   1e07c:	e12fff1e 	bx	lr
   1e080:	e52d7004 	push	{r7}		; (str r7, [sp, #-4]!)
   1e084:	e3a07001 	mov	r7, #1
   1e088:	ef000000 	svc	0x00000000
   1e08c:	e49d7004 	pop	{r7}		; (ldr r7, [sp], #4)
   1e090:	e12fff1e 	bx	lr
   1e094:	e52d7004 	push	{r7}		; (str r7, [sp, #-4]!)
   1e098:	e3a07003 	mov	r7, #3
   1e09c:	ef000000 	svc	0x00000000
   1e0a0:	e49d7004 	pop	{r7}		; (ldr r7, [sp], #4)
   1e0a4:	e12fff1e 	bx	lr
   1e0a8:	e52d7004 	push	{r7}		; (str r7, [sp, #-4]!)
   1e0ac:	e3a07004 	mov	r7, #4
   1e0b0:	ef000000 	svc	0x00000000
   1e0b4:	e49d7004 	pop	{r7}		; (ldr r7, [sp], #4)
   1e0b8:	e12fff1e 	bx	lr
   1e0bc:	e52d7004 	push	{r7}		; (str r7, [sp, #-4]!)
   1e0c0:	e3a07005 	mov	r7, #5
   1e0c4:	ef000000 	svc	0x00000000
   1e0c8:	e49d7004 	pop	{r7}		; (ldr r7, [sp], #4)
   1e0cc:	e12fff1e 	bx	lr
   1e0d0:	e52d7004 	push	{r7}		; (str r7, [sp, #-4]!)
   1e0d4:	e3a07006 	mov	r7, #6
   1e0d8:	ef000000 	svc	0x00000000
   1e0dc:	e49d7004 	pop	{r7}		; (ldr r7, [sp], #4)
   1e0e0:	e12fff1e 	bx	lr
   1e0e4:	e52d7004 	push	{r7}		; (str r7, [sp, #-4]!)
   1e0e8:	e3a07007 	mov	r7, #7
   1e0ec:	ef000000 	svc	0x00000000
   1e0f0:	e49d7004 	pop	{r7}		; (ldr r7, [sp], #4)
   1e0f4:	e12fff1e 	bx	lr
   1e0f8:	e52d7004 	push	{r7}		; (str r7, [sp, #-4]!)
   1e0fc:	e3a0700b 	mov	r7, #11
   1e100:	ef000000 	svc	0x00000000
   1e104:	e49d7004 	pop	{r7}		; (ldr r7, [sp], #4)
   1e108:	e12fff1e 	bx	lr
   1e10c:	e52d7004 	push	{r7}		; (str r7, [sp, #-4]!)
   1e110:	e3a0700c 	mov	r7, #12
   1e114:	ef000000 	svc	0x00000000
   1e118:	e49d7004 	pop	{r7}		; (ldr r7, [sp], #4)
   1e11c:	e12fff1e 	bx	lr
   1e120:	e52d7004 	push	{r7}		; (str r7, [sp, #-4]!)
   1e124:	e3a070b7 	mov	r7, #183	; 0xb7
   1e128:	ef000000 	svc	0x00000000
   1e12c:	e49d7004 	pop	{r7}		; (ldr r7, [sp], #4)
   1e130:	e12fff1e 	bx	lr
   1e134:	e52d7004 	push	{r7}		; (str r7, [sp, #-4]!)
   1e138:	e3a07014 	mov	r7, #20
   1e13c:	ef000000 	svc	0x00000000
   1e140:	e49d7004 	pop	{r7}		; (ldr r7, [sp], #4)
   1e144:	e12fff1e 	bx	lr
   1e148:	e52d7004 	push	{r7}		; (str r7, [sp, #-4]!)
   1e14c:	e3a0702b 	mov	r7, #43	; 0x2b
   1e150:	ef000000 	svc	0x00000000
   1e154:	e49d7004 	pop	{r7}		; (ldr r7, [sp], #4)
   1e158:	e12fff1e 	bx	lr
   1e15c:	e52d7004 	push	{r7}		; (str r7, [sp, #-4]!)
   1e160:	e3a0706a 	mov	r7, #106	; 0x6a
   1e164:	ef000000 	svc	0x00000000
   1e168:	e49d7004 	pop	{r7}		; (ldr r7, [sp], #4)
   1e16c:	e12fff1e 	bx	lr
   1e170:	e52d7004 	push	{r7}		; (str r7, [sp, #-4]!)
   1e174:	e3a07074 	mov	r7, #116	; 0x74
   1e178:	ef000000 	svc	0x00000000
   1e17c:	e49d7004 	pop	{r7}		; (ldr r7, [sp], #4)
   1e180:	e12fff1e 	bx	lr
   1e184:	e52d7004 	push	{r7}		; (str r7, [sp, #-4]!)
   1e188:	e3a0707a 	mov	r7, #122	; 0x7a
   1e18c:	ef000000 	svc	0x00000000
   1e190:	e49d7004 	pop	{r7}		; (ldr r7, [sp], #4)
   1e194:	e12fff1e 	bx	lr
   1e198:	e52d7004 	push	{r7}		; (str r7, [sp, #-4]!)
   1e19c:	e3a0708d 	mov	r7, #141	; 0x8d
   1e1a0:	ef000000 	svc	0x00000000
   1e1a4:	e49d7004 	pop	{r7}		; (ldr r7, [sp], #4)
   1e1a8:	e12fff1e 	bx	lr
   1e1ac:	e52d7004 	push	{r7}		; (str r7, [sp, #-4]!)
   1e1b0:	e3a070a2 	mov	r7, #162	; 0xa2
   1e1b4:	ef000000 	svc	0x00000000
   1e1b8:	e49d7004 	pop	{r7}		; (ldr r7, [sp], #4)
   1e1bc:	e12fff1e 	bx	lr
   1e1c0:	e52d7004 	push	{r7}		; (str r7, [sp, #-4]!)
   1e1c4:	e3a070be 	mov	r7, #190	; 0xbe
   1e1c8:	ef000000 	svc	0x00000000
   1e1cc:	e49d7004 	pop	{r7}		; (ldr r7, [sp], #4)
   1e1d0:	e12fff1e 	bx	lr
   1e1d4:	e52d7004 	push	{r7}		; (str r7, [sp, #-4]!)
   1e1d8:	e3a07036 	mov	r7, #54	; 0x36
   1e1dc:	ef000000 	svc	0x00000000
   1e1e0:	e49d7004 	pop	{r7}		; (ldr r7, [sp], #4)
   1e1e4:	e12fff1e 	bx	lr
   1e1e8:	e52d7004 	push	{r7}		; (str r7, [sp, #-4]!)
   1e1ec:	e3a07036 	mov	r7, #54	; 0x36
   1e1f0:	ef000000 	svc	0x00000000
   1e1f4:	e49d7004 	pop	{r7}		; (ldr r7, [sp], #4)
   1e1f8:	e12fff1e 	bx	lr
   1e1fc:	e52d7004 	push	{r7}		; (str r7, [sp, #-4]!)
   1e200:	e3a0700d 	mov	r7, #13
   1e204:	ef000000 	svc	0x00000000
   1e208:	e49d7004 	pop	{r7}		; (ldr r7, [sp], #4)
   1e20c:	e12fff1e 	bx	lr
   1e210:	e52d7004 	push	{r7}		; (str r7, [sp, #-4]!)
   1e214:	e3a07058 	mov	r7, #88	; 0x58
   1e218:	ef000000 	svc	0x00000000
   1e21c:	e49d7004 	pop	{r7}		; (ldr r7, [sp], #4)
   1e220:	e12fff1e 	bx	lr
   1e224:	e92d4010 	push	{r4, lr}
   1e228:	e24ddc01 	sub	sp, sp, #256	; 0x100
   1e22c:	e1a0400d 	mov	r4, sp
   1e230:	e3a01c01 	mov	r1, #256	; 0x100
   1e234:	e1a00004 	mov	r0, r4
   1e238:	ebffffb8 	bl	1e120 <initrd_image+0x10120>
   1e23c:	e59f0014 	ldr	r0, [pc, #20]	; 1e258 <initrd_image+0x10258>
   1e240:	e1a01004 	mov	r1, r4
   1e244:	e08f0000 	add	r0, pc, r0
   1e248:	ebffff6b 	bl	1dffc <initrd_image+0xfffc>
   1e24c:	e3a00000 	mov	r0, #0
   1e250:	e28ddc01 	add	sp, sp, #256	; 0x100
   1e254:	e8bd8010 	pop	{r4, pc}
   1e258:	000009b4 			; <UNDEFINED> instruction: 0x000009b4
	...
   1ec00:	000a7325 	andeq	r7, sl, r5, lsr #6
	...
   1ec10:	8a3d0100 	bhi	f5f018 <__bss_end+0xf26018>
   1ec14:	00000000 	andeq	r0, r0, r0
   1ec18:	4c310000 	ldcmi	0, cr0, [r1], #-0
   1ec1c:	be2b9620 	cfmadda32lt	mvax1, mvax9, mvfx11, mvfx0
   1ec20:	6c656873 	stclvs	8, cr6, [r5], #-460	; 0xfffffe34
   1ec24:	0000006c 	andeq	r0, r0, ip, rrx
	...
   1ec30:	e92d4010 	push	{r4, lr}
   1ec34:	eb0004b0 	bl	1fefc <initrd_image+0x11efc>
   1ec38:	e8bd4010 	pop	{r4, lr}
   1ec3c:	ea000445 	b	1fd58 <initrd_image+0x11d58>
   1ec40:	e3a03000 	mov	r3, #0
   1ec44:	e92d4070 	push	{r4, r5, r6, lr}
   1ec48:	e59f1614 	ldr	r1, [pc, #1556]	; 1f264 <initrd_image+0x11264>
   1ec4c:	e24dde25 	sub	sp, sp, #592	; 0x250
   1ec50:	e3a02004 	mov	r2, #4
   1ec54:	e08f1001 	add	r1, pc, r1
   1ec58:	e1a04000 	mov	r4, r0
   1ec5c:	e58d3000 	str	r3, [sp]
   1ec60:	eb000305 	bl	1f87c <initrd_image+0x1187c>
   1ec64:	e3500000 	cmp	r0, #0
   1ec68:	1a00000c 	bne	1eca0 <initrd_image+0x10ca0>
   1ec6c:	e5d43004 	ldrb	r3, [r4, #4]
   1ec70:	e3530000 	cmp	r3, #0
   1ec74:	1a000002 	bne	1ec84 <initrd_image+0x10c84>
   1ec78:	e59d0000 	ldr	r0, [sp]
   1ec7c:	e28dde25 	add	sp, sp, #592	; 0x250
   1ec80:	e8bd8070 	pop	{r4, r5, r6, pc}
   1ec84:	e59f05dc 	ldr	r0, [pc, #1500]	; 1f268 <initrd_image+0x11268>
   1ec88:	e2841005 	add	r1, r4, #5
   1ec8c:	e08f0000 	add	r0, pc, r0
   1ec90:	eb0002b6 	bl	1f770 <initrd_image+0x11770>
   1ec94:	e59d0000 	ldr	r0, [sp]
   1ec98:	e28dde25 	add	sp, sp, #592	; 0x250
   1ec9c:	e8bd8070 	pop	{r4, r5, r6, pc}
   1eca0:	e59f15c4 	ldr	r1, [pc, #1476]	; 1f26c <initrd_image+0x1126c>
   1eca4:	e3a02003 	mov	r2, #3
   1eca8:	e1a00004 	mov	r0, r4
   1ecac:	e08f1001 	add	r1, pc, r1
   1ecb0:	eb0002f1 	bl	1f87c <initrd_image+0x1187c>
   1ecb4:	e3500000 	cmp	r0, #0
   1ecb8:	0a000018 	beq	1ed20 <initrd_image+0x10d20>
   1ecbc:	e59f15ac 	ldr	r1, [pc, #1452]	; 1f270 <initrd_image+0x11270>
   1ecc0:	e3a02002 	mov	r2, #2
   1ecc4:	e1a00004 	mov	r0, r4
   1ecc8:	e08f1001 	add	r1, pc, r1
   1eccc:	eb0002ea 	bl	1f87c <initrd_image+0x1187c>
   1ecd0:	e3500000 	cmp	r0, #0
   1ecd4:	1a000017 	bne	1ed38 <initrd_image+0x10d38>
   1ecd8:	e1a00004 	mov	r0, r4
   1ecdc:	eb0002f8 	bl	1f8c4 <initrd_image+0x118c4>
   1ece0:	e3500003 	cmp	r0, #3
   1ece4:	ca000026 	bgt	1ed84 <initrd_image+0x10d84>
   1ece8:	e59f0584 	ldr	r0, [pc, #1412]	; 1f274 <initrd_image+0x11274>
   1ecec:	e08f0000 	add	r0, pc, r0
   1ecf0:	eb00043b 	bl	1fde4 <initrd_image+0x11de4>
   1ecf4:	e58d0000 	str	r0, [sp]
   1ecf8:	e59d3000 	ldr	r3, [sp]
   1ecfc:	e3530000 	cmp	r3, #0
   1ed00:	aaffffdc 	bge	1ec78 <initrd_image+0x10c78>
   1ed04:	e1a00003 	mov	r0, r3
   1ed08:	eb000190 	bl	1f350 <initrd_image+0x11350>
   1ed0c:	e1a01000 	mov	r1, r0
   1ed10:	e59f0560 	ldr	r0, [pc, #1376]	; 1f278 <initrd_image+0x11278>
   1ed14:	e08f0000 	add	r0, pc, r0
   1ed18:	eb000294 	bl	1f770 <initrd_image+0x11770>
   1ed1c:	eaffffd5 	b	1ec78 <initrd_image+0x10c78>
   1ed20:	e59f0554 	ldr	r0, [pc, #1364]	; 1f27c <initrd_image+0x1127c>
   1ed24:	e08f0000 	add	r0, pc, r0
   1ed28:	eb000290 	bl	1f770 <initrd_image+0x11770>
   1ed2c:	e59d0000 	ldr	r0, [sp]
   1ed30:	e28dde25 	add	sp, sp, #592	; 0x250
   1ed34:	e8bd8070 	pop	{r4, r5, r6, pc}
   1ed38:	e59f1540 	ldr	r1, [pc, #1344]	; 1f280 <initrd_image+0x11280>
   1ed3c:	e3a02005 	mov	r2, #5
   1ed40:	e1a00004 	mov	r0, r4
   1ed44:	e08f1001 	add	r1, pc, r1
   1ed48:	eb0002cb 	bl	1f87c <initrd_image+0x1187c>
   1ed4c:	e3500000 	cmp	r0, #0
   1ed50:	0a000008 	beq	1ed78 <initrd_image+0x10d78>
   1ed54:	e59f1528 	ldr	r1, [pc, #1320]	; 1f284 <initrd_image+0x11284>
   1ed58:	e3a02008 	mov	r2, #8
   1ed5c:	e1a00004 	mov	r0, r4
   1ed60:	e08f1001 	add	r1, pc, r1
   1ed64:	eb0002c4 	bl	1f87c <initrd_image+0x1187c>
   1ed68:	e3500000 	cmp	r0, #0
   1ed6c:	1a000008 	bne	1ed94 <initrd_image+0x10d94>
   1ed70:	eb0003da 	bl	1fce0 <initrd_image+0x11ce0>
   1ed74:	eaffffbf 	b	1ec78 <initrd_image+0x10c78>
   1ed78:	e5d40005 	ldrb	r0, [r4, #5]
   1ed7c:	eb0003d1 	bl	1fcc8 <initrd_image+0x11cc8>
   1ed80:	eaffffbc 	b	1ec78 <initrd_image+0x10c78>
   1ed84:	e2840003 	add	r0, r4, #3
   1ed88:	eb000415 	bl	1fde4 <initrd_image+0x11de4>
   1ed8c:	e58d0000 	str	r0, [sp]
   1ed90:	eaffffd8 	b	1ecf8 <initrd_image+0x10cf8>
   1ed94:	e59f14ec 	ldr	r1, [pc, #1260]	; 1f288 <initrd_image+0x11288>
   1ed98:	e3a02006 	mov	r2, #6
   1ed9c:	e1a00004 	mov	r0, r4
   1eda0:	e08f1001 	add	r1, pc, r1
   1eda4:	eb0002b4 	bl	1f87c <initrd_image+0x1187c>
   1eda8:	e3500000 	cmp	r0, #0
   1edac:	1a000005 	bne	1edc8 <initrd_image+0x10dc8>
   1edb0:	eb000415 	bl	1fe0c <initrd_image+0x11e0c>
   1edb4:	e1a01000 	mov	r1, r0
   1edb8:	e59f04cc 	ldr	r0, [pc, #1228]	; 1f28c <initrd_image+0x1128c>
   1edbc:	e08f0000 	add	r0, pc, r0
   1edc0:	eb00026a 	bl	1f770 <initrd_image+0x11770>
   1edc4:	eaffffab 	b	1ec78 <initrd_image+0x10c78>
   1edc8:	e59f14c0 	ldr	r1, [pc, #1216]	; 1f290 <initrd_image+0x11290>
   1edcc:	e3a02004 	mov	r2, #4
   1edd0:	e1a00004 	mov	r0, r4
   1edd4:	e08f1001 	add	r1, pc, r1
   1edd8:	eb0002a7 	bl	1f87c <initrd_image+0x1187c>
   1eddc:	e3500000 	cmp	r0, #0
   1ede0:	03a03001 	moveq	r3, #1
   1ede4:	058d3000 	streq	r3, [sp]
   1ede8:	0affffa2 	beq	1ec78 <initrd_image+0x10c78>
   1edec:	e59f14a0 	ldr	r1, [pc, #1184]	; 1f294 <initrd_image+0x11294>
   1edf0:	e3a02006 	mov	r2, #6
   1edf4:	e1a00004 	mov	r0, r4
   1edf8:	e08f1001 	add	r1, pc, r1
   1edfc:	eb00029e 	bl	1f87c <initrd_image+0x1187c>
   1ee00:	e3500000 	cmp	r0, #0
   1ee04:	1a000002 	bne	1ee14 <initrd_image+0x10e14>
   1ee08:	e5d40006 	ldrb	r0, [r4, #6]
   1ee0c:	eb00039d 	bl	1fc88 <initrd_image+0x11c88>
   1ee10:	eaffff98 	b	1ec78 <initrd_image+0x10c78>
   1ee14:	e59f147c 	ldr	r1, [pc, #1148]	; 1f298 <initrd_image+0x11298>
   1ee18:	e3a02004 	mov	r2, #4
   1ee1c:	e1a00004 	mov	r0, r4
   1ee20:	e08f1001 	add	r1, pc, r1
   1ee24:	eb000294 	bl	1f87c <initrd_image+0x1187c>
   1ee28:	e3500000 	cmp	r0, #0
   1ee2c:	1a000035 	bne	1ef08 <initrd_image+0x10f08>
   1ee30:	e59f1464 	ldr	r1, [pc, #1124]	; 1f29c <initrd_image+0x1129c>
   1ee34:	e59f0464 	ldr	r0, [pc, #1124]	; 1f2a0 <initrd_image+0x112a0>
   1ee38:	e08f1001 	add	r1, pc, r1
   1ee3c:	e08f0000 	add	r0, pc, r0
   1ee40:	eb00024a 	bl	1f770 <initrd_image+0x11770>
   1ee44:	e59f0458 	ldr	r0, [pc, #1112]	; 1f2a4 <initrd_image+0x112a4>
   1ee48:	e08f0000 	add	r0, pc, r0
   1ee4c:	eb000247 	bl	1f770 <initrd_image+0x11770>
   1ee50:	e59f0450 	ldr	r0, [pc, #1104]	; 1f2a8 <initrd_image+0x112a8>
   1ee54:	e08f0000 	add	r0, pc, r0
   1ee58:	eb000244 	bl	1f770 <initrd_image+0x11770>
   1ee5c:	e59f0448 	ldr	r0, [pc, #1096]	; 1f2ac <initrd_image+0x112ac>
   1ee60:	e08f0000 	add	r0, pc, r0
   1ee64:	eb000241 	bl	1f770 <initrd_image+0x11770>
   1ee68:	e59f0440 	ldr	r0, [pc, #1088]	; 1f2b0 <initrd_image+0x112b0>
   1ee6c:	e08f0000 	add	r0, pc, r0
   1ee70:	eb00023e 	bl	1f770 <initrd_image+0x11770>
   1ee74:	e59f0438 	ldr	r0, [pc, #1080]	; 1f2b4 <initrd_image+0x112b4>
   1ee78:	e08f0000 	add	r0, pc, r0
   1ee7c:	eb00023b 	bl	1f770 <initrd_image+0x11770>
   1ee80:	e59f0430 	ldr	r0, [pc, #1072]	; 1f2b8 <initrd_image+0x112b8>
   1ee84:	e08f0000 	add	r0, pc, r0
   1ee88:	eb000238 	bl	1f770 <initrd_image+0x11770>
   1ee8c:	e59f0428 	ldr	r0, [pc, #1064]	; 1f2bc <initrd_image+0x112bc>
   1ee90:	e08f0000 	add	r0, pc, r0
   1ee94:	eb000235 	bl	1f770 <initrd_image+0x11770>
   1ee98:	e59f0420 	ldr	r0, [pc, #1056]	; 1f2c0 <initrd_image+0x112c0>
   1ee9c:	e08f0000 	add	r0, pc, r0
   1eea0:	eb000232 	bl	1f770 <initrd_image+0x11770>
   1eea4:	e59f0418 	ldr	r0, [pc, #1048]	; 1f2c4 <initrd_image+0x112c4>
   1eea8:	e08f0000 	add	r0, pc, r0
   1eeac:	eb00022f 	bl	1f770 <initrd_image+0x11770>
   1eeb0:	e59f0410 	ldr	r0, [pc, #1040]	; 1f2c8 <initrd_image+0x112c8>
   1eeb4:	e08f0000 	add	r0, pc, r0
   1eeb8:	eb00022c 	bl	1f770 <initrd_image+0x11770>
   1eebc:	e59f0408 	ldr	r0, [pc, #1032]	; 1f2cc <initrd_image+0x112cc>
   1eec0:	e08f0000 	add	r0, pc, r0
   1eec4:	eb000229 	bl	1f770 <initrd_image+0x11770>
   1eec8:	e59f0400 	ldr	r0, [pc, #1024]	; 1f2d0 <initrd_image+0x112d0>
   1eecc:	e08f0000 	add	r0, pc, r0
   1eed0:	eb000226 	bl	1f770 <initrd_image+0x11770>
   1eed4:	e59f03f8 	ldr	r0, [pc, #1016]	; 1f2d4 <initrd_image+0x112d4>
   1eed8:	e08f0000 	add	r0, pc, r0
   1eedc:	eb000223 	bl	1f770 <initrd_image+0x11770>
   1eee0:	e59f03f0 	ldr	r0, [pc, #1008]	; 1f2d8 <initrd_image+0x112d8>
   1eee4:	e08f0000 	add	r0, pc, r0
   1eee8:	eb000220 	bl	1f770 <initrd_image+0x11770>
   1eeec:	e59f03e8 	ldr	r0, [pc, #1000]	; 1f2dc <initrd_image+0x112dc>
   1eef0:	e08f0000 	add	r0, pc, r0
   1eef4:	eb00021d 	bl	1f770 <initrd_image+0x11770>
   1eef8:	e59f03e0 	ldr	r0, [pc, #992]	; 1f2e0 <initrd_image+0x112e0>
   1eefc:	e08f0000 	add	r0, pc, r0
   1ef00:	eb00021a 	bl	1f770 <initrd_image+0x11770>
   1ef04:	eaffff5b 	b	1ec78 <initrd_image+0x10c78>
   1ef08:	e59f13d4 	ldr	r1, [pc, #980]	; 1f2e4 <initrd_image+0x112e4>
   1ef0c:	e3a02006 	mov	r2, #6
   1ef10:	e1a00004 	mov	r0, r4
   1ef14:	e08f1001 	add	r1, pc, r1
   1ef18:	eb000257 	bl	1f87c <initrd_image+0x1187c>
   1ef1c:	e3500000 	cmp	r0, #0
   1ef20:	1a000005 	bne	1ef3c <initrd_image+0x10f3c>
   1ef24:	e59f03bc 	ldr	r0, [pc, #956]	; 1f2e8 <initrd_image+0x112e8>
   1ef28:	e3a0101b 	mov	r1, #27
   1ef2c:	e5d42006 	ldrb	r2, [r4, #6]
   1ef30:	e08f0000 	add	r0, pc, r0
   1ef34:	eb00020d 	bl	1f770 <initrd_image+0x11770>
   1ef38:	eaffff4e 	b	1ec78 <initrd_image+0x10c78>
   1ef3c:	e59f13a8 	ldr	r1, [pc, #936]	; 1f2ec <initrd_image+0x112ec>
   1ef40:	e3a02003 	mov	r2, #3
   1ef44:	e1a00004 	mov	r0, r4
   1ef48:	e08f1001 	add	r1, pc, r1
   1ef4c:	eb00024a 	bl	1f87c <initrd_image+0x1187c>
   1ef50:	e3500000 	cmp	r0, #0
   1ef54:	1a000005 	bne	1ef70 <initrd_image+0x10f70>
   1ef58:	e59f1390 	ldr	r1, [pc, #912]	; 1f2f0 <initrd_image+0x112f0>
   1ef5c:	e59f0390 	ldr	r0, [pc, #912]	; 1f2f4 <initrd_image+0x112f4>
   1ef60:	e08f1001 	add	r1, pc, r1
   1ef64:	e08f0000 	add	r0, pc, r0
   1ef68:	eb000200 	bl	1f770 <initrd_image+0x11770>
   1ef6c:	eaffff41 	b	1ec78 <initrd_image+0x10c78>
   1ef70:	e59f1380 	ldr	r1, [pc, #896]	; 1f2f8 <initrd_image+0x112f8>
   1ef74:	e3a02006 	mov	r2, #6
   1ef78:	e1a00004 	mov	r0, r4
   1ef7c:	e08f1001 	add	r1, pc, r1
   1ef80:	eb00023d 	bl	1f87c <initrd_image+0x1187c>
   1ef84:	e2505000 	subs	r5, r0, #0
   1ef88:	1a000018 	bne	1eff0 <initrd_image+0x10ff0>
   1ef8c:	e28d000c 	add	r0, sp, #12
   1ef90:	eb0003a2 	bl	1fe20 <initrd_image+0x11e20>
   1ef94:	e28d4e15 	add	r4, sp, #336	; 0x150
   1ef98:	e1a00005 	mov	r0, r5
   1ef9c:	eb0002a9 	bl	1fa48 <initrd_image+0x11a48>
   1efa0:	e3a02c01 	mov	r2, #256	; 0x100
   1efa4:	e1a01004 	mov	r1, r4
   1efa8:	eb0002ac 	bl	1fa60 <initrd_image+0x11a60>
   1efac:	e1a01000 	mov	r1, r0
   1efb0:	e59f0344 	ldr	r0, [pc, #836]	; 1f2fc <initrd_image+0x112fc>
   1efb4:	e08f0000 	add	r0, pc, r0
   1efb8:	eb0001ec 	bl	1f770 <initrd_image+0x11770>
   1efbc:	e59d300c 	ldr	r3, [sp, #12]
   1efc0:	e1a01004 	mov	r1, r4
   1efc4:	e3530000 	cmp	r3, #0
   1efc8:	e283003f 	add	r0, r3, #63	; 0x3f
   1efcc:	a1a00003 	movge	r0, r3
   1efd0:	e3a02c01 	mov	r2, #256	; 0x100
   1efd4:	e1a00340 	asr	r0, r0, #6
   1efd8:	eb0002a0 	bl	1fa60 <initrd_image+0x11a60>
   1efdc:	e1a01000 	mov	r1, r0
   1efe0:	e59f0318 	ldr	r0, [pc, #792]	; 1f300 <initrd_image+0x11300>
   1efe4:	e08f0000 	add	r0, pc, r0
   1efe8:	eb0001e0 	bl	1f770 <initrd_image+0x11770>
   1efec:	eaffff21 	b	1ec78 <initrd_image+0x10c78>
   1eff0:	e59f130c 	ldr	r1, [pc, #780]	; 1f304 <initrd_image+0x11304>
   1eff4:	e3a02005 	mov	r2, #5
   1eff8:	e1a00004 	mov	r0, r4
   1effc:	e08f1001 	add	r1, pc, r1
   1f000:	eb00021d 	bl	1f87c <initrd_image+0x1187c>
   1f004:	e3500000 	cmp	r0, #0
   1f008:	1a000004 	bne	1f020 <initrd_image+0x11020>
   1f00c:	e59f02f4 	ldr	r0, [pc, #756]	; 1f308 <initrd_image+0x11308>
   1f010:	e08f0000 	add	r0, pc, r0
   1f014:	eb0001d5 	bl	1f770 <initrd_image+0x11770>
   1f018:	eb000269 	bl	1f9c4 <initrd_image+0x119c4>
   1f01c:	eaffff15 	b	1ec78 <initrd_image+0x10c78>
   1f020:	e59f12e4 	ldr	r1, [pc, #740]	; 1f30c <initrd_image+0x1130c>
   1f024:	e3a02005 	mov	r2, #5
   1f028:	e1a00004 	mov	r0, r4
   1f02c:	e08f1001 	add	r1, pc, r1
   1f030:	eb000211 	bl	1f87c <initrd_image+0x1187c>
   1f034:	e3500000 	cmp	r0, #0
   1f038:	1a000009 	bne	1f064 <initrd_image+0x11064>
   1f03c:	e2840006 	add	r0, r4, #6
   1f040:	eb000229 	bl	1f8ec <initrd_image+0x118ec>
   1f044:	e1a04000 	mov	r4, r0
   1f048:	e59f02c0 	ldr	r0, [pc, #704]	; 1f310 <initrd_image+0x11310>
   1f04c:	e1a01004 	mov	r1, r4
   1f050:	e08f0000 	add	r0, pc, r0
   1f054:	eb0001c5 	bl	1f770 <initrd_image+0x11770>
   1f058:	e1a00004 	mov	r0, r4
   1f05c:	eb000259 	bl	1f9c8 <initrd_image+0x119c8>
   1f060:	eaffff04 	b	1ec78 <initrd_image+0x10c78>
   1f064:	e59f12a8 	ldr	r1, [pc, #680]	; 1f314 <initrd_image+0x11314>
   1f068:	e3a02004 	mov	r2, #4
   1f06c:	e1a00004 	mov	r0, r4
   1f070:	e08f1001 	add	r1, pc, r1
   1f074:	eb000200 	bl	1f87c <initrd_image+0x1187c>
   1f078:	e3500000 	cmp	r0, #0
   1f07c:	1a00000d 	bne	1f0b8 <initrd_image+0x110b8>
   1f080:	eb000322 	bl	1fd10 <initrd_image+0x11d10>
   1f084:	e1a03000 	mov	r3, r0
   1f088:	e59f2288 	ldr	r2, [pc, #648]	; 1f318 <initrd_image+0x11318>
   1f08c:	e083c183 	add	ip, r3, r3, lsl #3
   1f090:	e59f1284 	ldr	r1, [pc, #644]	; 1f31c <initrd_image+0x1131c>
   1f094:	e082c29c 	umull	ip, r2, ip, r2
   1f098:	e0813193 	umull	r3, r1, r3, r1
   1f09c:	e59f027c 	ldr	r0, [pc, #636]	; 1f320 <initrd_image+0x11320>
   1f0a0:	e1a02622 	lsr	r2, r2, #12
   1f0a4:	e2822020 	add	r2, r2, #32
   1f0a8:	e1a01321 	lsr	r1, r1, #6
   1f0ac:	e08f0000 	add	r0, pc, r0
   1f0b0:	eb0001ae 	bl	1f770 <initrd_image+0x11770>
   1f0b4:	eafffeef 	b	1ec78 <initrd_image+0x10c78>
   1f0b8:	e59f1264 	ldr	r1, [pc, #612]	; 1f324 <initrd_image+0x11324>
   1f0bc:	e3a02006 	mov	r2, #6
   1f0c0:	e1a00004 	mov	r0, r4
   1f0c4:	e08f1001 	add	r1, pc, r1
   1f0c8:	eb0001eb 	bl	1f87c <initrd_image+0x1187c>
   1f0cc:	e3500000 	cmp	r0, #0
   1f0d0:	1a000005 	bne	1f0ec <initrd_image+0x110ec>
   1f0d4:	eb0001c6 	bl	1f7f4 <initrd_image+0x117f4>
   1f0d8:	e1a01000 	mov	r1, r0
   1f0dc:	e59f0244 	ldr	r0, [pc, #580]	; 1f328 <initrd_image+0x11328>
   1f0e0:	e08f0000 	add	r0, pc, r0
   1f0e4:	eb0001a1 	bl	1f770 <initrd_image+0x11770>
   1f0e8:	eafffee2 	b	1ec78 <initrd_image+0x10c78>
   1f0ec:	e1a00004 	mov	r0, r4
   1f0f0:	eb0001f3 	bl	1f8c4 <initrd_image+0x118c4>
   1f0f4:	e3500000 	cmp	r0, #0
   1f0f8:	0afffede 	beq	1ec78 <initrd_image+0x10c78>
   1f0fc:	e3a02000 	mov	r2, #0
   1f100:	e1a00002 	mov	r0, r2
   1f104:	e59fc220 	ldr	ip, [pc, #544]	; 1f32c <initrd_image+0x1132c>
   1f108:	e08fc00c 	add	ip, pc, ip
   1f10c:	e0843002 	add	r3, r4, r2
   1f110:	e48c3004 	str	r3, [ip], #4
   1f114:	e7d42002 	ldrb	r2, [r4, r2]
   1f118:	e3520026 	cmp	r2, #38	; 0x26
   1f11c:	0a00000a 	beq	1f14c <initrd_image+0x1114c>
   1f120:	e1a0e003 	mov	lr, r3
   1f124:	e0432004 	sub	r2, r3, r4
   1f128:	e4d31001 	ldrb	r1, [r3], #1
   1f12c:	e21150df 	ands	r5, r1, #223	; 0xdf
   1f130:	1afffffa 	bne	1f120 <initrd_image+0x11120>
   1f134:	e3510000 	cmp	r1, #0
   1f138:	e2800001 	add	r0, r0, #1
   1f13c:	0a000043 	beq	1f250 <initrd_image+0x11250>
   1f140:	e5ce5000 	strb	r5, [lr]
   1f144:	e2822001 	add	r2, r2, #1
   1f148:	eaffffef 	b	1f10c <initrd_image+0x1110c>
   1f14c:	e3a02000 	mov	r2, #0
   1f150:	e3a01001 	mov	r1, #1
   1f154:	e59f31d4 	ldr	r3, [pc, #468]	; 1f330 <initrd_image+0x11330>
   1f158:	e58d1004 	str	r1, [sp, #4]
   1f15c:	e08f3003 	add	r3, pc, r3
   1f160:	e7832100 	str	r2, [r3, r0, lsl #2]
   1f164:	e3a05000 	mov	r5, #0
   1f168:	e1a06005 	mov	r6, r5
   1f16c:	ea000003 	b	1f180 <initrd_image+0x11180>
   1f170:	e7d43005 	ldrb	r3, [r4, r5]
   1f174:	e2855001 	add	r5, r5, #1
   1f178:	e353002f 	cmp	r3, #47	; 0x2f
   1f17c:	02866001 	addeq	r6, r6, #1
   1f180:	e1a00004 	mov	r0, r4
   1f184:	eb0001ce 	bl	1f8c4 <initrd_image+0x118c4>
   1f188:	e1550000 	cmp	r5, r0
   1f18c:	bafffff7 	blt	1f170 <initrd_image+0x11170>
   1f190:	e3560000 	cmp	r6, #0
   1f194:	e1a02004 	mov	r2, r4
   1f198:	0a000027 	beq	1f23c <initrd_image+0x1123c>
   1f19c:	e59f1190 	ldr	r1, [pc, #400]	; 1f334 <initrd_image+0x11334>
   1f1a0:	e28d0050 	add	r0, sp, #80	; 0x50
   1f1a4:	e08f1001 	add	r1, pc, r1
   1f1a8:	eb000183 	bl	1f7bc <initrd_image+0x117bc>
   1f1ac:	e28d4050 	add	r4, sp, #80	; 0x50
   1f1b0:	e1a00004 	mov	r0, r4
   1f1b4:	e28d101c 	add	r1, sp, #28
   1f1b8:	eb00031d 	bl	1fe34 <initrd_image+0x11e34>
   1f1bc:	e3500000 	cmp	r0, #0
   1f1c0:	ba000018 	blt	1f228 <initrd_image+0x11228>
   1f1c4:	eb000333 	bl	1fe98 <initrd_image+0x11e98>
   1f1c8:	e2504000 	subs	r4, r0, #0
   1f1cc:	0a00000f 	beq	1f210 <initrd_image+0x11210>
   1f1d0:	e59d3004 	ldr	r3, [sp, #4]
   1f1d4:	e3530000 	cmp	r3, #0
   1f1d8:	1afffea6 	bne	1ec78 <initrd_image+0x10c78>
   1f1dc:	e59f0154 	ldr	r0, [pc, #340]	; 1f338 <initrd_image+0x11338>
   1f1e0:	e1a01004 	mov	r1, r4
   1f1e4:	e08f0000 	add	r0, pc, r0
   1f1e8:	eb000160 	bl	1f770 <initrd_image+0x11770>
   1f1ec:	e28d1008 	add	r1, sp, #8
   1f1f0:	e1a00004 	mov	r0, r4
   1f1f4:	e59d2004 	ldr	r2, [sp, #4]
   1f1f8:	eb0002ef 	bl	1fdbc <initrd_image+0x11dbc>
   1f1fc:	e59f0138 	ldr	r0, [pc, #312]	; 1f33c <initrd_image+0x1133c>
   1f200:	e59d1008 	ldr	r1, [sp, #8]
   1f204:	e08f0000 	add	r0, pc, r0
   1f208:	eb000158 	bl	1f770 <initrd_image+0x11770>
   1f20c:	eafffe99 	b	1ec78 <initrd_image+0x10c78>
   1f210:	e59f1128 	ldr	r1, [pc, #296]	; 1f340 <initrd_image+0x11340>
   1f214:	e1a02004 	mov	r2, r4
   1f218:	e08f1001 	add	r1, pc, r1
   1f21c:	e28d0050 	add	r0, sp, #80	; 0x50
   1f220:	eb0002ea 	bl	1fdd0 <initrd_image+0x11dd0>
   1f224:	eafffe93 	b	1ec78 <initrd_image+0x10c78>
   1f228:	e59f0114 	ldr	r0, [pc, #276]	; 1f344 <initrd_image+0x11344>
   1f22c:	e1a01004 	mov	r1, r4
   1f230:	e08f0000 	add	r0, pc, r0
   1f234:	eb00014d 	bl	1f770 <initrd_image+0x11770>
   1f238:	eafffe8e 	b	1ec78 <initrd_image+0x10c78>
   1f23c:	e59f1104 	ldr	r1, [pc, #260]	; 1f348 <initrd_image+0x11348>
   1f240:	e28d0050 	add	r0, sp, #80	; 0x50
   1f244:	e08f1001 	add	r1, pc, r1
   1f248:	eb00015b 	bl	1f7bc <initrd_image+0x117bc>
   1f24c:	eaffffd6 	b	1f1ac <initrd_image+0x111ac>
   1f250:	e59f30f4 	ldr	r3, [pc, #244]	; 1f34c <initrd_image+0x1134c>
   1f254:	e58d1004 	str	r1, [sp, #4]
   1f258:	e08f3003 	add	r3, pc, r3
   1f25c:	e7831100 	str	r1, [r3, r0, lsl #2]
   1f260:	eaffffbf 	b	1f164 <initrd_image+0x11164>
   1f264:	00001fd4 	ldrdeq	r1, [r0], -r4
   1f268:	00002268 	andeq	r2, r0, r8, ror #4
   1f26c:	00001f84 	andeq	r1, r0, r4, lsl #31
   1f270:	00001f74 	andeq	r1, r0, r4, ror pc
   1f274:	00001f54 	andeq	r1, r0, r4, asr pc
   1f278:	00001f34 	andeq	r1, r0, r4, lsr pc
   1f27c:	00001f10 	andeq	r1, r0, r0, lsl pc
   1f280:	00001f24 	andeq	r1, r0, r4, lsr #30
   1f284:	00001f10 	andeq	r1, r0, r0, lsl pc
   1f288:	00001edc 	ldrdeq	r1, [r0], -ip
   1f28c:	00001ec8 	andeq	r1, r0, r8, asr #29
   1f290:	00001ec4 	andeq	r1, r0, r4, asr #29
   1f294:	00001ea8 	andeq	r1, r0, r8, lsr #29
   1f298:	00001e88 	andeq	r1, r0, r8, lsl #29
   1f29c:	00001e78 	andeq	r1, r0, r8, ror lr
   1f2a0:	00001e7c 	andeq	r1, r0, ip, ror lr
   1f2a4:	00001e8c 	andeq	r1, r0, ip, lsl #29
   1f2a8:	00001eac 	andeq	r1, r0, ip, lsr #29
   1f2ac:	00001ebc 			; <UNDEFINED> instruction: 0x00001ebc
   1f2b0:	00001ecc 	andeq	r1, r0, ip, asr #29
   1f2b4:	00001ee4 	andeq	r1, r0, r4, ror #29
   1f2b8:	00001ef4 	strdeq	r1, [r0], -r4
   1f2bc:	00001f0c 	andeq	r1, r0, ip, lsl #30
   1f2c0:	00001f24 	andeq	r1, r0, r4, lsr #30
   1f2c4:	00001f40 	andeq	r1, r0, r0, asr #30
   1f2c8:	00001f58 	andeq	r1, r0, r8, asr pc
   1f2cc:	00001f6c 	andeq	r1, r0, ip, ror #30
   1f2d0:	00001f80 	andeq	r1, r0, r0, lsl #31
   1f2d4:	00001f94 	muleq	r0, r4, pc	; <UNPREDICTABLE>
   1f2d8:	00001fa8 	andeq	r1, r0, r8, lsr #31
   1f2dc:	00001fc0 	andeq	r1, r0, r0, asr #31
   1f2e0:	00002044 	andeq	r2, r0, r4, asr #32
   1f2e4:	00001fb4 			; <UNDEFINED> instruction: 0x00001fb4
   1f2e8:	00001fa0 	andeq	r1, r0, r0, lsr #31
   1f2ec:	00001f94 	muleq	r0, r4, pc	; <UNPREDICTABLE>
   1f2f0:	00001d50 	andeq	r1, r0, r0, asr sp
   1f2f4:	00001f7c 	andeq	r1, r0, ip, ror pc
   1f2f8:	00001f7c 	andeq	r1, r0, ip, ror pc
   1f2fc:	00001f4c 	andeq	r1, r0, ip, asr #30
   1f300:	00001f34 	andeq	r1, r0, r4, lsr pc
   1f304:	00001f30 	andeq	r1, r0, r0, lsr pc
   1f308:	00001f24 	andeq	r1, r0, r4, lsr #30
   1f30c:	00001f18 	andeq	r1, r0, r8, lsl pc
   1f310:	00001efc 	strdeq	r1, [r0], -ip
   1f314:	00001ef4 	strdeq	r1, [r0], -r4
   1f318:	d1b71759 			; <UNDEFINED> instruction: 0xd1b71759
   1f31c:	10624dd3 	ldrdne	r4, [r2], #-211	; 0xffffff2d	; <UNPREDICTABLE>
   1f320:	00001ec0 	andeq	r1, r0, r0, asr #29
   1f324:	00001ec8 	andeq	r1, r0, r8, asr #29
   1f328:	00001eb4 			; <UNDEFINED> instruction: 0x00001eb4
   1f32c:	00003b20 	andeq	r3, r0, r0, lsr #22
   1f330:	00003acc 	andeq	r3, r0, ip, asr #21
   1f334:	00001df4 	strdeq	r1, [r0], -r4
   1f338:	00001ddc 	ldrdeq	r1, [r0], -ip
   1f33c:	00001dd8 	ldrdeq	r1, [r0], -r8
   1f340:	00003a10 	andeq	r3, r0, r0, lsl sl
   1f344:	00001d74 	andeq	r1, r0, r4, ror sp
   1f348:	00001d58 	andeq	r1, r0, r8, asr sp
   1f34c:	000039d0 	ldrdeq	r3, [r0], -r0
   1f350:	e3500000 	cmp	r0, #0
   1f354:	b2600000 	rsblt	r0, r0, #0
   1f358:	e3500027 	cmp	r0, #39	; 0x27
   1f35c:	ca000003 	bgt	1f370 <initrd_image+0x11370>
   1f360:	e59f3014 	ldr	r3, [pc, #20]	; 1f37c <initrd_image+0x1137c>
   1f364:	e08f3003 	add	r3, pc, r3
   1f368:	e7930100 	ldr	r0, [r3, r0, lsl #2]
   1f36c:	e12fff1e 	bx	lr
   1f370:	e59f0008 	ldr	r0, [pc, #8]	; 1f380 <initrd_image+0x11380>
   1f374:	e08f0000 	add	r0, pc, r0
   1f378:	e12fff1e 	bx	lr
   1f37c:	00002970 	andeq	r2, r0, r0, ror r9
   1f380:	000028b4 			; <UNDEFINED> instruction: 0x000028b4
   1f384:	e5d13000 	ldrb	r3, [r1]
   1f388:	e3530000 	cmp	r3, #0
   1f38c:	0a0000f4 	beq	1f764 <initrd_image+0x11764>
   1f390:	e92d4ff0 	push	{r4, r5, r6, r7, r8, r9, sl, fp, lr}
   1f394:	e24dd024 	sub	sp, sp, #36	; 0x24
   1f398:	e1a08002 	mov	r8, r2
   1f39c:	e28d200c 	add	r2, sp, #12
   1f3a0:	e1a0a000 	mov	sl, r0
   1f3a4:	e59f93c0 	ldr	r9, [pc, #960]	; 1f76c <initrd_image+0x1176c>
   1f3a8:	e3a00000 	mov	r0, #0
   1f3ac:	e58d2004 	str	r2, [sp, #4]
   1f3b0:	ea000009 	b	1f3dc <initrd_image+0x113dc>
   1f3b4:	e7ca3000 	strb	r3, [sl, r0]
   1f3b8:	e2800001 	add	r0, r0, #1
   1f3bc:	e3500c01 	cmp	r0, #256	; 0x100
   1f3c0:	0a0000a6 	beq	1f660 <initrd_image+0x11660>
   1f3c4:	e2811001 	add	r1, r1, #1
   1f3c8:	e35000ff 	cmp	r0, #255	; 0xff
   1f3cc:	0a000037 	beq	1f4b0 <initrd_image+0x114b0>
   1f3d0:	e5d13000 	ldrb	r3, [r1]
   1f3d4:	e3530000 	cmp	r3, #0
   1f3d8:	0a000034 	beq	1f4b0 <initrd_image+0x114b0>
   1f3dc:	e3530025 	cmp	r3, #37	; 0x25
   1f3e0:	1afffff3 	bne	1f3b4 <initrd_image+0x113b4>
   1f3e4:	e5d13001 	ldrb	r3, [r1, #1]
   1f3e8:	e243c030 	sub	ip, r3, #48	; 0x30
   1f3ec:	e6efc07c 	uxtb	ip, ip
   1f3f0:	e35c0009 	cmp	ip, #9
   1f3f4:	83a0c000 	movhi	ip, #0
   1f3f8:	83a0b020 	movhi	fp, #32
   1f3fc:	82811001 	addhi	r1, r1, #1
   1f400:	9a000045 	bls	1f51c <initrd_image+0x1151c>
   1f404:	e3530069 	cmp	r3, #105	; 0x69
   1f408:	13530064 	cmpne	r3, #100	; 0x64
   1f40c:	1a000029 	bne	1f4b8 <initrd_image+0x114b8>
   1f410:	e4983004 	ldr	r3, [r8], #4
   1f414:	e2811001 	add	r1, r1, #1
   1f418:	e3530000 	cmp	r3, #0
   1f41c:	a3a07000 	movge	r7, #0
   1f420:	ba00004e 	blt	1f560 <initrd_image+0x11560>
   1f424:	e3a05009 	mov	r5, #9
   1f428:	e2877009 	add	r7, r7, #9
   1f42c:	e28d6016 	add	r6, sp, #22
   1f430:	e0842399 	umull	r2, r4, r9, r3
   1f434:	e1a041a4 	lsr	r4, r4, #3
   1f438:	e0842104 	add	r2, r4, r4, lsl #2
   1f43c:	e0432082 	sub	r2, r3, r2, lsl #1
   1f440:	e1a0e005 	mov	lr, r5
   1f444:	e2822030 	add	r2, r2, #48	; 0x30
   1f448:	e2455001 	sub	r5, r5, #1
   1f44c:	e3530009 	cmp	r3, #9
   1f450:	e6ef2072 	uxtb	r2, r2
   1f454:	e1a03004 	mov	r3, r4
   1f458:	e0474005 	sub	r4, r7, r5
   1f45c:	e5662001 	strb	r2, [r6, #-1]!
   1f460:	e6ef4074 	uxtb	r4, r4
   1f464:	8afffff1 	bhi	1f430 <initrd_image+0x11430>
   1f468:	e15c0004 	cmp	ip, r4
   1f46c:	8a000043 	bhi	1f580 <initrd_image+0x11580>
   1f470:	e59d4004 	ldr	r4, [sp, #4]
   1f474:	e26ec00a 	rsb	ip, lr, #10
   1f478:	e2403001 	sub	r3, r0, #1
   1f47c:	e08a3003 	add	r3, sl, r3
   1f480:	e084e00e 	add	lr, r4, lr
   1f484:	e08cc000 	add	ip, ip, r0
   1f488:	ea000000 	b	1f490 <initrd_image+0x11490>
   1f48c:	e5fe2001 	ldrb	r2, [lr, #1]!
   1f490:	e2800001 	add	r0, r0, #1
   1f494:	e3500c01 	cmp	r0, #256	; 0x100
   1f498:	e5e32001 	strb	r2, [r3, #1]!
   1f49c:	0affffcb 	beq	1f3d0 <initrd_image+0x113d0>
   1f4a0:	e15c0000 	cmp	ip, r0
   1f4a4:	1afffff8 	bne	1f48c <initrd_image+0x1148c>
   1f4a8:	e35000ff 	cmp	r0, #255	; 0xff
   1f4ac:	1affffc7 	bne	1f3d0 <initrd_image+0x113d0>
   1f4b0:	e28dd024 	add	sp, sp, #36	; 0x24
   1f4b4:	e8bd8ff0 	pop	{r4, r5, r6, r7, r8, r9, sl, fp, pc}
   1f4b8:	e353006c 	cmp	r3, #108	; 0x6c
   1f4bc:	0a00006a 	beq	1f66c <initrd_image+0x1166c>
   1f4c0:	e20320f7 	and	r2, r3, #247	; 0xf7
   1f4c4:	e3520070 	cmp	r2, #112	; 0x70
   1f4c8:	0a00003d 	beq	1f5c4 <initrd_image+0x115c4>
   1f4cc:	e3530063 	cmp	r3, #99	; 0x63
   1f4d0:	0a00005c 	beq	1f648 <initrd_image+0x11648>
   1f4d4:	e3530025 	cmp	r3, #37	; 0x25
   1f4d8:	0a000089 	beq	1f704 <initrd_image+0x11704>
   1f4dc:	e3530073 	cmp	r3, #115	; 0x73
   1f4e0:	1affffb8 	bne	1f3c8 <initrd_image+0x113c8>
   1f4e4:	e498c004 	ldr	ip, [r8], #4
   1f4e8:	e2402001 	sub	r2, r0, #1
   1f4ec:	e2811001 	add	r1, r1, #1
   1f4f0:	e08a2002 	add	r2, sl, r2
   1f4f4:	e04cc000 	sub	ip, ip, r0
   1f4f8:	ea000003 	b	1f50c <initrd_image+0x1150c>
   1f4fc:	e2800001 	add	r0, r0, #1
   1f500:	e3500c01 	cmp	r0, #256	; 0x100
   1f504:	e5e23001 	strb	r3, [r2, #1]!
   1f508:	0affffb0 	beq	1f3d0 <initrd_image+0x113d0>
   1f50c:	e7dc3000 	ldrb	r3, [ip, r0]
   1f510:	e3530000 	cmp	r3, #0
   1f514:	1afffff8 	bne	1f4fc <initrd_image+0x114fc>
   1f518:	eaffffaa 	b	1f3c8 <initrd_image+0x113c8>
   1f51c:	e3530030 	cmp	r3, #48	; 0x30
   1f520:	e5d13002 	ldrb	r3, [r1, #2]
   1f524:	03a0b030 	moveq	fp, #48	; 0x30
   1f528:	e2432030 	sub	r2, r3, #48	; 0x30
   1f52c:	13a0b020 	movne	fp, #32
   1f530:	e3520009 	cmp	r2, #9
   1f534:	e2811002 	add	r1, r1, #2
   1f538:	8affffb1 	bhi	1f404 <initrd_image+0x11404>
   1f53c:	e08cc10c 	add	ip, ip, ip, lsl #2
   1f540:	e083c08c 	add	ip, r3, ip, lsl #1
   1f544:	e5f13001 	ldrb	r3, [r1, #1]!
   1f548:	e24cc030 	sub	ip, ip, #48	; 0x30
   1f54c:	e2432030 	sub	r2, r3, #48	; 0x30
   1f550:	e3520009 	cmp	r2, #9
   1f554:	e20cc0ff 	and	ip, ip, #255	; 0xff
   1f558:	9afffff7 	bls	1f53c <initrd_image+0x1153c>
   1f55c:	eaffffa8 	b	1f404 <initrd_image+0x11404>
   1f560:	e3a0202d 	mov	r2, #45	; 0x2d
   1f564:	e7ca2000 	strb	r2, [sl, r0]
   1f568:	e2800001 	add	r0, r0, #1
   1f56c:	e3500c01 	cmp	r0, #256	; 0x100
   1f570:	0a00003a 	beq	1f660 <initrd_image+0x11660>
   1f574:	e3a07001 	mov	r7, #1
   1f578:	e2633000 	rsb	r3, r3, #0
   1f57c:	eaffffa8 	b	1f424 <initrd_image+0x11424>
   1f580:	e04c4004 	sub	r4, ip, r4
   1f584:	e3540000 	cmp	r4, #0
   1f588:	daffffb8 	ble	1f470 <initrd_image+0x11470>
   1f58c:	e35000ff 	cmp	r0, #255	; 0xff
   1f590:	e7cab000 	strb	fp, [sl, r0]
   1f594:	e08ac000 	add	ip, sl, r0
   1f598:	e2803001 	add	r3, r0, #1
   1f59c:	0a000006 	beq	1f5bc <initrd_image+0x115bc>
   1f5a0:	e0840000 	add	r0, r4, r0
   1f5a4:	e1500003 	cmp	r0, r3
   1f5a8:	e2833001 	add	r3, r3, #1
   1f5ac:	0affffaf 	beq	1f470 <initrd_image+0x11470>
   1f5b0:	e3530c01 	cmp	r3, #256	; 0x100
   1f5b4:	e5ecb001 	strb	fp, [ip, #1]!
   1f5b8:	1afffff9 	bne	1f5a4 <initrd_image+0x115a4>
   1f5bc:	e3a00c01 	mov	r0, #256	; 0x100
   1f5c0:	eaffffaa 	b	1f470 <initrd_image+0x11470>
   1f5c4:	e3a0e009 	mov	lr, #9
   1f5c8:	e4982004 	ldr	r2, [r8], #4
   1f5cc:	e2811001 	add	r1, r1, #1
   1f5d0:	e28d5016 	add	r5, sp, #22
   1f5d4:	ea000000 	b	1f5dc <initrd_image+0x115dc>
   1f5d8:	e1a0e006 	mov	lr, r6
   1f5dc:	e202300f 	and	r3, r2, #15
   1f5e0:	e3530009 	cmp	r3, #9
   1f5e4:	92833030 	addls	r3, r3, #48	; 0x30
   1f5e8:	82833057 	addhi	r3, r3, #87	; 0x57
   1f5ec:	e26e400a 	rsb	r4, lr, #10
   1f5f0:	e352000f 	cmp	r2, #15
   1f5f4:	e24e6001 	sub	r6, lr, #1
   1f5f8:	e1a02222 	lsr	r2, r2, #4
   1f5fc:	e5653001 	strb	r3, [r5, #-1]!
   1f600:	e6ef7074 	uxtb	r7, r4
   1f604:	8afffff3 	bhi	1f5d8 <initrd_image+0x115d8>
   1f608:	e15c0007 	cmp	ip, r7
   1f60c:	8a000042 	bhi	1f71c <initrd_image+0x1171c>
   1f610:	e59d2004 	ldr	r2, [sp, #4]
   1f614:	e0844000 	add	r4, r4, r0
   1f618:	e082e00e 	add	lr, r2, lr
   1f61c:	e2402001 	sub	r2, r0, #1
   1f620:	e08a2002 	add	r2, sl, r2
   1f624:	ea000000 	b	1f62c <initrd_image+0x1162c>
   1f628:	e5fe3001 	ldrb	r3, [lr, #1]!
   1f62c:	e2800001 	add	r0, r0, #1
   1f630:	e3500c01 	cmp	r0, #256	; 0x100
   1f634:	e5e23001 	strb	r3, [r2, #1]!
   1f638:	0affff64 	beq	1f3d0 <initrd_image+0x113d0>
   1f63c:	e1500004 	cmp	r0, r4
   1f640:	1afffff8 	bne	1f628 <initrd_image+0x11628>
   1f644:	eaffff5f 	b	1f3c8 <initrd_image+0x113c8>
   1f648:	e4983004 	ldr	r3, [r8], #4
   1f64c:	e2811001 	add	r1, r1, #1
   1f650:	e7ca3000 	strb	r3, [sl, r0]
   1f654:	e2800001 	add	r0, r0, #1
   1f658:	e3500c01 	cmp	r0, #256	; 0x100
   1f65c:	1affff59 	bne	1f3c8 <initrd_image+0x113c8>
   1f660:	e3a00c01 	mov	r0, #256	; 0x100
   1f664:	e28dd024 	add	sp, sp, #36	; 0x24
   1f668:	e8bd8ff0 	pop	{r4, r5, r6, r7, r8, r9, sl, fp, pc}
   1f66c:	e2888007 	add	r8, r8, #7
   1f670:	e3c88007 	bic	r8, r8, #7
   1f674:	e598c004 	ldr	ip, [r8, #4]
   1f678:	e3a0e011 	mov	lr, #17
   1f67c:	e4983008 	ldr	r3, [r8], #8
   1f680:	e2811003 	add	r1, r1, #3
   1f684:	e28d401e 	add	r4, sp, #30
   1f688:	ea000000 	b	1f690 <initrd_image+0x11690>
   1f68c:	e1a0e005 	mov	lr, r5
   1f690:	e3a05000 	mov	r5, #0
   1f694:	e203200f 	and	r2, r3, #15
   1f698:	e352000a 	cmp	r2, #10
   1f69c:	e2d55000 	sbcs	r5, r5, #0
   1f6a0:	32822030 	addcc	r2, r2, #48	; 0x30
   1f6a4:	22822057 	addcs	r2, r2, #87	; 0x57
   1f6a8:	e3530010 	cmp	r3, #16
   1f6ac:	e2dc5000 	sbcs	r5, ip, #0
   1f6b0:	e1a03223 	lsr	r3, r3, #4
   1f6b4:	e1833e0c 	orr	r3, r3, ip, lsl #28
   1f6b8:	e24e5001 	sub	r5, lr, #1
   1f6bc:	e1a0c22c 	lsr	ip, ip, #4
   1f6c0:	e5642001 	strb	r2, [r4, #-1]!
   1f6c4:	2afffff0 	bcs	1f68c <initrd_image+0x1168c>
   1f6c8:	e59d3004 	ldr	r3, [sp, #4]
   1f6cc:	e240c001 	sub	ip, r0, #1
   1f6d0:	e2804012 	add	r4, r0, #18
   1f6d4:	e08ac00c 	add	ip, sl, ip
   1f6d8:	e044400e 	sub	r4, r4, lr
   1f6dc:	e083300e 	add	r3, r3, lr
   1f6e0:	ea000000 	b	1f6e8 <initrd_image+0x116e8>
   1f6e4:	e5f32001 	ldrb	r2, [r3, #1]!
   1f6e8:	e2800001 	add	r0, r0, #1
   1f6ec:	e3500c01 	cmp	r0, #256	; 0x100
   1f6f0:	e5ec2001 	strb	r2, [ip, #1]!
   1f6f4:	0affff35 	beq	1f3d0 <initrd_image+0x113d0>
   1f6f8:	e1500004 	cmp	r0, r4
   1f6fc:	1afffff8 	bne	1f6e4 <initrd_image+0x116e4>
   1f700:	eaffff30 	b	1f3c8 <initrd_image+0x113c8>
   1f704:	e7ca3000 	strb	r3, [sl, r0]
   1f708:	e2800001 	add	r0, r0, #1
   1f70c:	e3500c01 	cmp	r0, #256	; 0x100
   1f710:	e2811001 	add	r1, r1, #1
   1f714:	1affff2b 	bne	1f3c8 <initrd_image+0x113c8>
   1f718:	eaffffd0 	b	1f660 <initrd_image+0x11660>
   1f71c:	e04cc007 	sub	ip, ip, r7
   1f720:	e35c0000 	cmp	ip, #0
   1f724:	daffffb9 	ble	1f610 <initrd_image+0x11610>
   1f728:	e35000ff 	cmp	r0, #255	; 0xff
   1f72c:	e7cab000 	strb	fp, [sl, r0]
   1f730:	e08a5000 	add	r5, sl, r0
   1f734:	e2802001 	add	r2, r0, #1
   1f738:	0a000007 	beq	1f75c <initrd_image+0x1175c>
   1f73c:	e08c0000 	add	r0, ip, r0
   1f740:	e1a0c005 	mov	ip, r5
   1f744:	e1520000 	cmp	r2, r0
   1f748:	e2822001 	add	r2, r2, #1
   1f74c:	0affffaf 	beq	1f610 <initrd_image+0x11610>
   1f750:	e3520c01 	cmp	r2, #256	; 0x100
   1f754:	e5ecb001 	strb	fp, [ip, #1]!
   1f758:	1afffff9 	bne	1f744 <initrd_image+0x11744>
   1f75c:	e3a00c01 	mov	r0, #256	; 0x100
   1f760:	eaffffaa 	b	1f610 <initrd_image+0x11610>
   1f764:	e1a00003 	mov	r0, r3
   1f768:	e12fff1e 	bx	lr
   1f76c:	cccccccd 	stclgt	12, cr12, [ip], {205}	; 0xcd
   1f770:	e92d000f 	push	{r0, r1, r2, r3}
   1f774:	e92d4030 	push	{r4, r5, lr}
   1f778:	e24ddf43 	sub	sp, sp, #268	; 0x10c
   1f77c:	e28d5008 	add	r5, sp, #8
   1f780:	e28d2f47 	add	r2, sp, #284	; 0x11c
   1f784:	e59d1118 	ldr	r1, [sp, #280]	; 0x118
   1f788:	e1a00005 	mov	r0, r5
   1f78c:	e58d2004 	str	r2, [sp, #4]
   1f790:	ebfffefb 	bl	1f384 <initrd_image+0x11384>
   1f794:	e1a04000 	mov	r4, r0
   1f798:	e1a01005 	mov	r1, r5
   1f79c:	e1a02004 	mov	r2, r4
   1f7a0:	e3a00001 	mov	r0, #1
   1f7a4:	eb000175 	bl	1fd80 <initrd_image+0x11d80>
   1f7a8:	e1a00004 	mov	r0, r4
   1f7ac:	e28ddf43 	add	sp, sp, #268	; 0x10c
   1f7b0:	e8bd4030 	pop	{r4, r5, lr}
   1f7b4:	e28dd010 	add	sp, sp, #16
   1f7b8:	e12fff1e 	bx	lr
   1f7bc:	e92d000e 	push	{r1, r2, r3}
   1f7c0:	e92d4010 	push	{r4, lr}
   1f7c4:	e24dd00c 	sub	sp, sp, #12
   1f7c8:	e28d2018 	add	r2, sp, #24
   1f7cc:	e59d1014 	ldr	r1, [sp, #20]
   1f7d0:	e1a04000 	mov	r4, r0
   1f7d4:	e58d2004 	str	r2, [sp, #4]
   1f7d8:	ebfffee9 	bl	1f384 <initrd_image+0x11384>
   1f7dc:	e3a02000 	mov	r2, #0
   1f7e0:	e7c42000 	strb	r2, [r4, r0]
   1f7e4:	e28dd00c 	add	sp, sp, #12
   1f7e8:	e8bd4010 	pop	{r4, lr}
   1f7ec:	e28dd00c 	add	sp, sp, #12
   1f7f0:	e12fff1e 	bx	lr
   1f7f4:	e52de004 	push	{lr}		; (str lr, [sp, #-4]!)
   1f7f8:	e24dd00c 	sub	sp, sp, #12
   1f7fc:	e28d0004 	add	r0, sp, #4
   1f800:	eb000148 	bl	1fd28 <initrd_image+0x11d28>
   1f804:	e3500003 	cmp	r0, #3
   1f808:	c59d0004 	ldrgt	r0, [sp, #4]
   1f80c:	da000001 	ble	1f818 <initrd_image+0x11818>
   1f810:	e28dd00c 	add	sp, sp, #12
   1f814:	e49df004 	pop	{pc}		; (ldr pc, [sp], #4)
   1f818:	e59f000c 	ldr	r0, [pc, #12]	; 1f82c <initrd_image+0x1182c>
   1f81c:	e08f0000 	add	r0, pc, r0
   1f820:	ebffffd2 	bl	1f770 <initrd_image+0x11770>
   1f824:	e3e00000 	mvn	r0, #0
   1f828:	eafffff8 	b	1f810 <initrd_image+0x11810>
   1f82c:	000017fc 	strdeq	r1, [r0], -ip
   1f830:	e3a02001 	mov	r2, #1
   1f834:	e52de004 	push	{lr}		; (str lr, [sp, #-4]!)
   1f838:	e24dd00c 	sub	sp, sp, #12
   1f83c:	e58d0004 	str	r0, [sp, #4]
   1f840:	e28d1004 	add	r1, sp, #4
   1f844:	e1a00002 	mov	r0, r2
   1f848:	eb00014c 	bl	1fd80 <initrd_image+0x11d80>
   1f84c:	e28dd00c 	add	sp, sp, #12
   1f850:	e49df004 	pop	{pc}		; (ldr pc, [sp], #4)
   1f854:	e3a00000 	mov	r0, #0
   1f858:	e52de004 	push	{lr}		; (str lr, [sp, #-4]!)
   1f85c:	e24dd00c 	sub	sp, sp, #12
   1f860:	e3a02001 	mov	r2, #1
   1f864:	e28d1004 	add	r1, sp, #4
   1f868:	e58d0004 	str	r0, [sp, #4]
   1f86c:	eb00013e 	bl	1fd6c <initrd_image+0x11d6c>
   1f870:	e59d0004 	ldr	r0, [sp, #4]
   1f874:	e28dd00c 	add	sp, sp, #12
   1f878:	e49df004 	pop	{pc}		; (ldr pc, [sp], #4)
   1f87c:	e3520000 	cmp	r2, #0
   1f880:	0a00000d 	beq	1f8bc <initrd_image+0x118bc>
   1f884:	e92d4010 	push	{r4, lr}
   1f888:	e1a04000 	mov	r4, r0
   1f88c:	e240c001 	sub	ip, r0, #1
   1f890:	e241e001 	sub	lr, r1, #1
   1f894:	e1a0300c 	mov	r3, ip
   1f898:	e5fe1001 	ldrb	r1, [lr, #1]!
   1f89c:	e5fc0001 	ldrb	r0, [ip, #1]!
   1f8a0:	e0500001 	subs	r0, r0, r1
   1f8a4:	18bd8010 	popne	{r4, pc}
   1f8a8:	e2833002 	add	r3, r3, #2
   1f8ac:	e0433004 	sub	r3, r3, r4
   1f8b0:	e1520003 	cmp	r2, r3
   1f8b4:	1afffff6 	bne	1f894 <initrd_image+0x11894>
   1f8b8:	e8bd8010 	pop	{r4, pc}
   1f8bc:	e1a00002 	mov	r0, r2
   1f8c0:	e12fff1e 	bx	lr
   1f8c4:	e1a03000 	mov	r3, r0
   1f8c8:	e5d00000 	ldrb	r0, [r0]
   1f8cc:	e3500000 	cmp	r0, #0
   1f8d0:	012fff1e 	bxeq	lr
   1f8d4:	e2631001 	rsb	r1, r3, #1
   1f8d8:	e0810003 	add	r0, r1, r3
   1f8dc:	e5f32001 	ldrb	r2, [r3, #1]!
   1f8e0:	e3520000 	cmp	r2, #0
   1f8e4:	1afffffb 	bne	1f8d8 <initrd_image+0x118d8>
   1f8e8:	e12fff1e 	bx	lr
   1f8ec:	e5d03000 	ldrb	r3, [r0]
   1f8f0:	e1a02000 	mov	r2, r0
   1f8f4:	e3530000 	cmp	r3, #0
   1f8f8:	0a000007 	beq	1f91c <initrd_image+0x1191c>
   1f8fc:	e3a00000 	mov	r0, #0
   1f900:	e2431030 	sub	r1, r3, #48	; 0x30
   1f904:	e5f23001 	ldrb	r3, [r2, #1]!
   1f908:	e0800100 	add	r0, r0, r0, lsl #2
   1f90c:	e3530000 	cmp	r3, #0
   1f910:	e0810080 	add	r0, r1, r0, lsl #1
   1f914:	1afffff9 	bne	1f900 <initrd_image+0x11900>
   1f918:	e12fff1e 	bx	lr
   1f91c:	e1a00003 	mov	r0, r3
   1f920:	e12fff1e 	bx	lr
   1f924:	e92d41f0 	push	{r4, r5, r6, r7, r8, lr}
   1f928:	e2103003 	ands	r3, r0, #3
   1f92c:	e1a0c000 	mov	ip, r0
   1f930:	0a000006 	beq	1f950 <initrd_image+0x11950>
   1f934:	e2522004 	subs	r2, r2, #4
   1f938:	ba00001a 	blt	1f9a8 <initrd_image+0x119a8>
   1f93c:	e3530002 	cmp	r3, #2
   1f940:	b4cc1001 	strblt	r1, [ip], #1
   1f944:	d4cc1001 	strble	r1, [ip], #1
   1f948:	e4cc1001 	strb	r1, [ip], #1
   1f94c:	e0822003 	add	r2, r2, r3
   1f950:	e1811401 	orr	r1, r1, r1, lsl #8
   1f954:	e1811801 	orr	r1, r1, r1, lsl #16
   1f958:	e1a03001 	mov	r3, r1
   1f95c:	e1a04001 	mov	r4, r1
   1f960:	e1a05001 	mov	r5, r1
   1f964:	e1a06001 	mov	r6, r1
   1f968:	e1a07001 	mov	r7, r1
   1f96c:	e1a08001 	mov	r8, r1
   1f970:	e1a0e001 	mov	lr, r1
   1f974:	e2522040 	subs	r2, r2, #64	; 0x40
   1f978:	a8ac41fa 	stmiage	ip!, {r1, r3, r4, r5, r6, r7, r8, lr}
   1f97c:	a8ac41fa 	stmiage	ip!, {r1, r3, r4, r5, r6, r7, r8, lr}
   1f980:	cafffffb 	bgt	1f974 <initrd_image+0x11974>
   1f984:	0a00000c 	beq	1f9bc <initrd_image+0x119bc>
   1f988:	e3120020 	tst	r2, #32
   1f98c:	18ac41fa 	stmiane	ip!, {r1, r3, r4, r5, r6, r7, r8, lr}
   1f990:	e3120010 	tst	r2, #16
   1f994:	18ac00f0 	stmiane	ip!, {r4, r5, r6, r7}
   1f998:	e3120008 	tst	r2, #8
   1f99c:	18ac000a 	stmiane	ip!, {r1, r3}
   1f9a0:	e3120004 	tst	r2, #4
   1f9a4:	148c1004 	strne	r1, [ip], #4
   1f9a8:	e3120002 	tst	r2, #2
   1f9ac:	14cc1001 	strbne	r1, [ip], #1
   1f9b0:	14cc1001 	strbne	r1, [ip], #1
   1f9b4:	e3120001 	tst	r2, #1
   1f9b8:	14cc1001 	strbne	r1, [ip], #1
   1f9bc:	e8bd41f0 	pop	{r4, r5, r6, r7, r8, lr}
   1f9c0:	e12fff1e 	bx	lr
   1f9c4:	ea000147 	b	1fee8 <initrd_image+0x11ee8>
   1f9c8:	e92d4010 	push	{r4, lr}
   1f9cc:	e3a04000 	mov	r4, #0
   1f9d0:	e1a03000 	mov	r3, r0
   1f9d4:	e24dd008 	sub	sp, sp, #8
   1f9d8:	e1a0000d 	mov	r0, sp
   1f9dc:	e1a01004 	mov	r1, r4
   1f9e0:	e88d0018 	stm	sp, {r3, r4}
   1f9e4:	eb000126 	bl	1fe84 <initrd_image+0x11e84>
   1f9e8:	e1a00004 	mov	r0, r4
   1f9ec:	e28dd008 	add	sp, sp, #8
   1f9f0:	e8bd8010 	pop	{r4, pc}
   1f9f4:	e1a03000 	mov	r3, r0
   1f9f8:	e59f2044 	ldr	r2, [pc, #68]	; 1fa44 <initrd_image+0x11a44>
   1f9fc:	e52de004 	push	{lr}		; (str lr, [sp, #-4]!)
   1fa00:	e082c392 	umull	ip, r2, r2, r3
   1fa04:	e1a02922 	lsr	r2, r2, #18
   1fa08:	e062c282 	rsb	ip, r2, r2, lsl #5
   1fa0c:	e06cc30c 	rsb	ip, ip, ip, lsl #6
   1fa10:	e082c18c 	add	ip, r2, ip, lsl #3
   1fa14:	e043330c 	sub	r3, r3, ip, lsl #6
   1fa18:	e063c283 	rsb	ip, r3, r3, lsl #5
   1fa1c:	e24dd00c 	sub	sp, sp, #12
   1fa20:	e083310c 	add	r3, r3, ip, lsl #2
   1fa24:	e1a03183 	lsl	r3, r3, #3
   1fa28:	e3a01000 	mov	r1, #0
   1fa2c:	e1a0000d 	mov	r0, sp
   1fa30:	e1cd20f0 	strd	r2, [sp]
   1fa34:	eb000112 	bl	1fe84 <initrd_image+0x11e84>
   1fa38:	e3a00000 	mov	r0, #0
   1fa3c:	e28dd00c 	add	sp, sp, #12
   1fa40:	e49df004 	pop	{pc}		; (ldr pc, [sp], #4)
   1fa44:	431bde83 	tstmi	fp, #2096	; 0x830
   1fa48:	e92d4010 	push	{r4, lr}
   1fa4c:	e1a04000 	mov	r4, r0
   1fa50:	eb00011f 	bl	1fed4 <initrd_image+0x11ed4>
   1fa54:	e3540000 	cmp	r4, #0
   1fa58:	15840000 	strne	r0, [r4]
   1fa5c:	e8bd8010 	pop	{r4, pc}
   1fa60:	e92d4010 	push	{r4, lr}
   1fa64:	e3a0e000 	mov	lr, #0
   1fa68:	e59f31a0 	ldr	r3, [pc, #416]	; 1fc10 <initrd_image+0x11c10>
   1fa6c:	e1a04001 	mov	r4, r1
   1fa70:	e1500003 	cmp	r0, r3
   1fa74:	e24dd008 	sub	sp, sp, #8
   1fa78:	e5c1e000 	strb	lr, [r1]
   1fa7c:	ca00002d 	bgt	1fb38 <initrd_image+0x11b38>
   1fa80:	e3500ee1 	cmp	r0, #3600	; 0xe10
   1fa84:	da000013 	ble	1fad8 <initrd_image+0x11ad8>
   1fa88:	e59f2184 	ldr	r2, [pc, #388]	; 1fc14 <initrd_image+0x11c14>
   1fa8c:	e1a03fc0 	asr	r3, r0, #31
   1fa90:	e0c21092 	smull	r1, r2, r2, r0
   1fa94:	e0822000 	add	r2, r2, r0
   1fa98:	e06325c2 	rsb	r2, r3, r2, asr #11
   1fa9c:	e062ca02 	rsb	ip, r2, r2, lsl #20
   1faa0:	e082c18c 	add	ip, r2, ip, lsl #3
   1faa4:	e062c28c 	rsb	ip, r2, ip, lsl #5
   1faa8:	e080c20c 	add	ip, r0, ip, lsl #4
   1faac:	e35c003c 	cmp	ip, #60	; 0x3c
   1fab0:	d1a0300e 	movle	r3, lr
   1fab4:	ca00004d 	bgt	1fbf0 <initrd_image+0x11bf0>
   1fab8:	e59f1158 	ldr	r1, [pc, #344]	; 1fc18 <initrd_image+0x11c18>
   1fabc:	e1a00004 	mov	r0, r4
   1fac0:	e08f1001 	add	r1, pc, r1
   1fac4:	e58dc000 	str	ip, [sp]
   1fac8:	ebffff3b 	bl	1f7bc <initrd_image+0x117bc>
   1facc:	e1a00004 	mov	r0, r4
   1fad0:	e28dd008 	add	sp, sp, #8
   1fad4:	e8bd8010 	pop	{r4, pc}
   1fad8:	e350003c 	cmp	r0, #60	; 0x3c
   1fadc:	da00000d 	ble	1fb18 <initrd_image+0x11b18>
   1fae0:	e59f3134 	ldr	r3, [pc, #308]	; 1fc1c <initrd_image+0x11c1c>
   1fae4:	e1a02fc0 	asr	r2, r0, #31
   1fae8:	e0c31093 	smull	r1, r3, r3, r0
   1faec:	e0833000 	add	r3, r3, r0
   1faf0:	e06222c3 	rsb	r2, r2, r3, asr #5
   1faf4:	e59f1124 	ldr	r1, [pc, #292]	; 1fc20 <initrd_image+0x11c20>
   1faf8:	e0423202 	sub	r3, r2, r2, lsl #4
   1fafc:	e0803103 	add	r3, r0, r3, lsl #2
   1fb00:	e08f1001 	add	r1, pc, r1
   1fb04:	e1a00004 	mov	r0, r4
   1fb08:	ebffff2b 	bl	1f7bc <initrd_image+0x117bc>
   1fb0c:	e1a00004 	mov	r0, r4
   1fb10:	e28dd008 	add	sp, sp, #8
   1fb14:	e8bd8010 	pop	{r4, pc}
   1fb18:	e1a02000 	mov	r2, r0
   1fb1c:	e1a00001 	mov	r0, r1
   1fb20:	e59f10fc 	ldr	r1, [pc, #252]	; 1fc24 <initrd_image+0x11c24>
   1fb24:	e08f1001 	add	r1, pc, r1
   1fb28:	ebffff23 	bl	1f7bc <initrd_image+0x117bc>
   1fb2c:	e1a00004 	mov	r0, r4
   1fb30:	e28dd008 	add	sp, sp, #8
   1fb34:	e8bd8010 	pop	{r4, pc}
   1fb38:	e59f20e8 	ldr	r2, [pc, #232]	; 1fc28 <initrd_image+0x11c28>
   1fb3c:	e1a03fc0 	asr	r3, r0, #31
   1fb40:	e0c21092 	smull	r1, r2, r2, r0
   1fb44:	e0822000 	add	r2, r2, r0
   1fb48:	e0632842 	rsb	r2, r3, r2, asr #16
   1fb4c:	e082c082 	add	ip, r2, r2, lsl #1
   1fb50:	e06cc20c 	rsb	ip, ip, ip, lsl #4
   1fb54:	e06cc20c 	rsb	ip, ip, ip, lsl #4
   1fb58:	e040038c 	sub	r0, r0, ip, lsl #7
   1fb5c:	e3500ee1 	cmp	r0, #3600	; 0xe10
   1fb60:	ca000005 	bgt	1fb7c <initrd_image+0x11b7c>
   1fb64:	e350003c 	cmp	r0, #60	; 0x3c
   1fb68:	da00001e 	ble	1fbe8 <initrd_image+0x11be8>
   1fb6c:	e59f10a8 	ldr	r1, [pc, #168]	; 1fc1c <initrd_image+0x11c1c>
   1fb70:	e1a0300e 	mov	r3, lr
   1fb74:	e0ce1091 	smull	r1, lr, r1, r0
   1fb78:	ea00000c 	b	1fbb0 <initrd_image+0x11bb0>
   1fb7c:	e59f3090 	ldr	r3, [pc, #144]	; 1fc14 <initrd_image+0x11c14>
   1fb80:	e0c31093 	smull	r1, r3, r3, r0
   1fb84:	e1a01fc0 	asr	r1, r0, #31
   1fb88:	e0833000 	add	r3, r3, r0
   1fb8c:	e06135c3 	rsb	r3, r1, r3, asr #11
   1fb90:	e0631a03 	rsb	r1, r3, r3, lsl #20
   1fb94:	e0831181 	add	r1, r3, r1, lsl #3
   1fb98:	e0631281 	rsb	r1, r3, r1, lsl #5
   1fb9c:	e0800201 	add	r0, r0, r1, lsl #4
   1fba0:	e350003c 	cmp	r0, #60	; 0x3c
   1fba4:	da000006 	ble	1fbc4 <initrd_image+0x11bc4>
   1fba8:	e59fe06c 	ldr	lr, [pc, #108]	; 1fc1c <initrd_image+0x11c1c>
   1fbac:	e0ce109e 	smull	r1, lr, lr, r0
   1fbb0:	e08e1000 	add	r1, lr, r0
   1fbb4:	e1a0efc0 	asr	lr, r0, #31
   1fbb8:	e06ee2c1 	rsb	lr, lr, r1, asr #5
   1fbbc:	e04e120e 	sub	r1, lr, lr, lsl #4
   1fbc0:	e0800101 	add	r0, r0, r1, lsl #2
   1fbc4:	e59f1060 	ldr	r1, [pc, #96]	; 1fc2c <initrd_image+0x11c2c>
   1fbc8:	e58d0004 	str	r0, [sp, #4]
   1fbcc:	e08f1001 	add	r1, pc, r1
   1fbd0:	e1a00004 	mov	r0, r4
   1fbd4:	e58de000 	str	lr, [sp]
   1fbd8:	ebfffef7 	bl	1f7bc <initrd_image+0x117bc>
   1fbdc:	e1a00004 	mov	r0, r4
   1fbe0:	e28dd008 	add	sp, sp, #8
   1fbe4:	e8bd8010 	pop	{r4, pc}
   1fbe8:	e1a0300e 	mov	r3, lr
   1fbec:	eafffff4 	b	1fbc4 <initrd_image+0x11bc4>
   1fbf0:	e59fe024 	ldr	lr, [pc, #36]	; 1fc1c <initrd_image+0x11c1c>
   1fbf4:	e1a03fcc 	asr	r3, ip, #31
   1fbf8:	e0ce1c9e 	smull	r1, lr, lr, ip
   1fbfc:	e08ee00c 	add	lr, lr, ip
   1fc00:	e06332ce 	rsb	r3, r3, lr, asr #5
   1fc04:	e0431203 	sub	r1, r3, r3, lsl #4
   1fc08:	e08cc101 	add	ip, ip, r1, lsl #2
   1fc0c:	eaffffa9 	b	1fab8 <initrd_image+0x11ab8>
   1fc10:	00015180 	andeq	r5, r1, r0, lsl #3
   1fc14:	91a2b3c5 			; <UNDEFINED> instruction: 0x91a2b3c5
   1fc18:	00001564 	andeq	r1, r0, r4, ror #10
   1fc1c:	88888889 	stmhi	r8, {r0, r3, r7, fp, pc}
   1fc20:	00001528 	andeq	r1, r0, r8, lsr #10
   1fc24:	00001508 	andeq	r1, r0, r8, lsl #10
   1fc28:	c22e4507 	eorgt	r4, lr, #29360128	; 0x1c00000
   1fc2c:	00001454 	andeq	r1, r0, r4, asr r4
   1fc30:	e5901000 	ldr	r1, [r0]
   1fc34:	e590200c 	ldr	r2, [r0, #12]
   1fc38:	e5903008 	ldr	r3, [r0, #8]
   1fc3c:	e590c004 	ldr	ip, [r0, #4]
   1fc40:	e3c11e5e 	bic	r1, r1, #1504	; 0x5e0
   1fc44:	e3c22902 	bic	r2, r2, #32768	; 0x8000
   1fc48:	e3c33e13 	bic	r3, r3, #304	; 0x130
   1fc4c:	e3c1100b 	bic	r1, r1, #11
   1fc50:	e3ccc001 	bic	ip, ip, #1
   1fc54:	e3c2204b 	bic	r2, r2, #75	; 0x4b
   1fc58:	e3833030 	orr	r3, r3, #48	; 0x30
   1fc5c:	e8801002 	stm	r0, {r1, ip}
   1fc60:	e580200c 	str	r2, [r0, #12]
   1fc64:	e5803008 	str	r3, [r0, #8]
   1fc68:	e12fff1e 	bx	lr
   1fc6c:	e1a02001 	mov	r2, r1
   1fc70:	e59f1000 	ldr	r1, [pc]	; 1fc78 <initrd_image+0x11c78>
   1fc74:	ea00008c 	b	1feac <initrd_image+0x11eac>
   1fc78:	00005401 	andeq	r5, r0, r1, lsl #8
   1fc7c:	e59f1000 	ldr	r1, [pc]	; 1fc84 <initrd_image+0x11c84>
   1fc80:	ea000089 	b	1feac <initrd_image+0x11eac>
   1fc84:	00005402 	andeq	r5, r0, r2, lsl #8
   1fc88:	e350006e 	cmp	r0, #110	; 0x6e
   1fc8c:	e52d7004 	push	{r7}		; (str r7, [sp, #-4]!)
   1fc90:	03a00001 	moveq	r0, #1
   1fc94:	e3a07a02 	mov	r7, #8192	; 0x2000
   1fc98:	0a000001 	beq	1fca4 <initrd_image+0x11ca4>
   1fc9c:	e3500066 	cmp	r0, #102	; 0x66
   1fca0:	03a00000 	moveq	r0, #0
   1fca4:	ef000000 	svc	0x00000000
   1fca8:	e49d7004 	pop	{r7}		; (ldr r7, [sp], #4)
   1fcac:	e12fff1e 	bx	lr
   1fcb0:	e52d7004 	push	{r7}		; (str r7, [sp, #-4]!)
   1fcb4:	e59f7008 	ldr	r7, [pc, #8]	; 1fcc4 <initrd_image+0x11cc4>
   1fcb8:	ef000000 	svc	0x00000000
   1fcbc:	e49d7004 	pop	{r7}		; (ldr r7, [sp], #4)
   1fcc0:	e12fff1e 	bx	lr
   1fcc4:	00002003 	andeq	r2, r0, r3
   1fcc8:	e52d7004 	push	{r7}		; (str r7, [sp, #-4]!)
   1fccc:	e59f7008 	ldr	r7, [pc, #8]	; 1fcdc <initrd_image+0x11cdc>
   1fcd0:	ef000000 	svc	0x00000000
   1fcd4:	e49d7004 	pop	{r7}		; (ldr r7, [sp], #4)
   1fcd8:	e12fff1e 	bx	lr
   1fcdc:	00002001 	andeq	r2, r0, r1
   1fce0:	e52d7004 	push	{r7}		; (str r7, [sp, #-4]!)
   1fce4:	e59f7008 	ldr	r7, [pc, #8]	; 1fcf4 <initrd_image+0x11cf4>
   1fce8:	ef000000 	svc	0x00000000
   1fcec:	e49d7004 	pop	{r7}		; (ldr r7, [sp], #4)
   1fcf0:	e12fff1e 	bx	lr
   1fcf4:	00002002 	andeq	r2, r0, r2
   1fcf8:	e52d7004 	push	{r7}		; (str r7, [sp, #-4]!)
   1fcfc:	e59f7008 	ldr	r7, [pc, #8]	; 1fd0c <initrd_image+0x11d0c>
   1fd00:	ef000000 	svc	0x00000000
   1fd04:	e49d7004 	pop	{r7}		; (ldr r7, [sp], #4)
   1fd08:	e12fff1e 	bx	lr
   1fd0c:	00002008 	andeq	r2, r0, r8
   1fd10:	e52d7004 	push	{r7}		; (str r7, [sp, #-4]!)
   1fd14:	e59f7008 	ldr	r7, [pc, #8]	; 1fd24 <initrd_image+0x11d24>
   1fd18:	ef000000 	svc	0x00000000
   1fd1c:	e49d7004 	pop	{r7}		; (ldr r7, [sp], #4)
   1fd20:	e12fff1e 	bx	lr
   1fd24:	00002006 	andeq	r2, r0, r6
   1fd28:	e52d7004 	push	{r7}		; (str r7, [sp, #-4]!)
   1fd2c:	e59f7008 	ldr	r7, [pc, #8]	; 1fd3c <initrd_image+0x11d3c>
   1fd30:	ef000000 	svc	0x00000000
   1fd34:	e49d7004 	pop	{r7}		; (ldr r7, [sp], #4)
   1fd38:	e12fff1e 	bx	lr
   1fd3c:	00002007 	andeq	r2, r0, r7
   1fd40:	e52d7004 	push	{r7}		; (str r7, [sp, #-4]!)
   1fd44:	e59f7008 	ldr	r7, [pc, #8]	; 1fd54 <initrd_image+0x11d54>
   1fd48:	ef000000 	svc	0x00000000
   1fd4c:	e49d7004 	pop	{r7}		; (ldr r7, [sp], #4)
   1fd50:	e12fff1e 	bx	lr
   1fd54:	00002009 	andeq	r2, r0, r9
   1fd58:	e52d7004 	push	{r7}		; (str r7, [sp, #-4]!)
   1fd5c:	e3a07001 	mov	r7, #1
   1fd60:	ef000000 	svc	0x00000000
   1fd64:	e49d7004 	pop	{r7}		; (ldr r7, [sp], #4)
   1fd68:	e12fff1e 	bx	lr
   1fd6c:	e52d7004 	push	{r7}		; (str r7, [sp, #-4]!)
   1fd70:	e3a07003 	mov	r7, #3
   1fd74:	ef000000 	svc	0x00000000
   1fd78:	e49d7004 	pop	{r7}		; (ldr r7, [sp], #4)
   1fd7c:	e12fff1e 	bx	lr
   1fd80:	e52d7004 	push	{r7}		; (str r7, [sp, #-4]!)
   1fd84:	e3a07004 	mov	r7, #4
   1fd88:	ef000000 	svc	0x00000000
   1fd8c:	e49d7004 	pop	{r7}		; (ldr r7, [sp], #4)
   1fd90:	e12fff1e 	bx	lr
   1fd94:	e52d7004 	push	{r7}		; (str r7, [sp, #-4]!)
   1fd98:	e3a07005 	mov	r7, #5
   1fd9c:	ef000000 	svc	0x00000000
   1fda0:	e49d7004 	pop	{r7}		; (ldr r7, [sp], #4)
   1fda4:	e12fff1e 	bx	lr
   1fda8:	e52d7004 	push	{r7}		; (str r7, [sp, #-4]!)
   1fdac:	e3a07006 	mov	r7, #6
   1fdb0:	ef000000 	svc	0x00000000
   1fdb4:	e49d7004 	pop	{r7}		; (ldr r7, [sp], #4)
   1fdb8:	e12fff1e 	bx	lr
   1fdbc:	e52d7004 	push	{r7}		; (str r7, [sp, #-4]!)
   1fdc0:	e3a07007 	mov	r7, #7
   1fdc4:	ef000000 	svc	0x00000000
   1fdc8:	e49d7004 	pop	{r7}		; (ldr r7, [sp], #4)
   1fdcc:	e12fff1e 	bx	lr
   1fdd0:	e52d7004 	push	{r7}		; (str r7, [sp, #-4]!)
   1fdd4:	e3a0700b 	mov	r7, #11
   1fdd8:	ef000000 	svc	0x00000000
   1fddc:	e49d7004 	pop	{r7}		; (ldr r7, [sp], #4)
   1fde0:	e12fff1e 	bx	lr
   1fde4:	e52d7004 	push	{r7}		; (str r7, [sp, #-4]!)
   1fde8:	e3a0700c 	mov	r7, #12
   1fdec:	ef000000 	svc	0x00000000
   1fdf0:	e49d7004 	pop	{r7}		; (ldr r7, [sp], #4)
   1fdf4:	e12fff1e 	bx	lr
   1fdf8:	e52d7004 	push	{r7}		; (str r7, [sp, #-4]!)
   1fdfc:	e3a070b7 	mov	r7, #183	; 0xb7
   1fe00:	ef000000 	svc	0x00000000
   1fe04:	e49d7004 	pop	{r7}		; (ldr r7, [sp], #4)
   1fe08:	e12fff1e 	bx	lr
   1fe0c:	e52d7004 	push	{r7}		; (str r7, [sp, #-4]!)
   1fe10:	e3a07014 	mov	r7, #20
   1fe14:	ef000000 	svc	0x00000000
   1fe18:	e49d7004 	pop	{r7}		; (ldr r7, [sp], #4)
   1fe1c:	e12fff1e 	bx	lr
   1fe20:	e52d7004 	push	{r7}		; (str r7, [sp, #-4]!)
   1fe24:	e3a0702b 	mov	r7, #43	; 0x2b
   1fe28:	ef000000 	svc	0x00000000
   1fe2c:	e49d7004 	pop	{r7}		; (ldr r7, [sp], #4)
   1fe30:	e12fff1e 	bx	lr
   1fe34:	e52d7004 	push	{r7}		; (str r7, [sp, #-4]!)
   1fe38:	e3a0706a 	mov	r7, #106	; 0x6a
   1fe3c:	ef000000 	svc	0x00000000
   1fe40:	e49d7004 	pop	{r7}		; (ldr r7, [sp], #4)
   1fe44:	e12fff1e 	bx	lr
   1fe48:	e52d7004 	push	{r7}		; (str r7, [sp, #-4]!)
   1fe4c:	e3a07074 	mov	r7, #116	; 0x74
   1fe50:	ef000000 	svc	0x00000000
   1fe54:	e49d7004 	pop	{r7}		; (ldr r7, [sp], #4)
   1fe58:	e12fff1e 	bx	lr
   1fe5c:	e52d7004 	push	{r7}		; (str r7, [sp, #-4]!)
   1fe60:	e3a0707a 	mov	r7, #122	; 0x7a
   1fe64:	ef000000 	svc	0x00000000
   1fe68:	e49d7004 	pop	{r7}		; (ldr r7, [sp], #4)
   1fe6c:	e12fff1e 	bx	lr
   1fe70:	e52d7004 	push	{r7}		; (str r7, [sp, #-4]!)
   1fe74:	e3a0708d 	mov	r7, #141	; 0x8d
   1fe78:	ef000000 	svc	0x00000000
   1fe7c:	e49d7004 	pop	{r7}		; (ldr r7, [sp], #4)
   1fe80:	e12fff1e 	bx	lr
   1fe84:	e52d7004 	push	{r7}		; (str r7, [sp, #-4]!)
   1fe88:	e3a070a2 	mov	r7, #162	; 0xa2
   1fe8c:	ef000000 	svc	0x00000000
   1fe90:	e49d7004 	pop	{r7}		; (ldr r7, [sp], #4)
   1fe94:	e12fff1e 	bx	lr
   1fe98:	e52d7004 	push	{r7}		; (str r7, [sp, #-4]!)
   1fe9c:	e3a070be 	mov	r7, #190	; 0xbe
   1fea0:	ef000000 	svc	0x00000000
   1fea4:	e49d7004 	pop	{r7}		; (ldr r7, [sp], #4)
   1fea8:	e12fff1e 	bx	lr
   1feac:	e52d7004 	push	{r7}		; (str r7, [sp, #-4]!)
   1feb0:	e3a07036 	mov	r7, #54	; 0x36
   1feb4:	ef000000 	svc	0x00000000
   1feb8:	e49d7004 	pop	{r7}		; (ldr r7, [sp], #4)
   1febc:	e12fff1e 	bx	lr
   1fec0:	e52d7004 	push	{r7}		; (str r7, [sp, #-4]!)
   1fec4:	e3a07036 	mov	r7, #54	; 0x36
   1fec8:	ef000000 	svc	0x00000000
   1fecc:	e49d7004 	pop	{r7}		; (ldr r7, [sp], #4)
   1fed0:	e12fff1e 	bx	lr
   1fed4:	e52d7004 	push	{r7}		; (str r7, [sp, #-4]!)
   1fed8:	e3a0700d 	mov	r7, #13
   1fedc:	ef000000 	svc	0x00000000
   1fee0:	e49d7004 	pop	{r7}		; (ldr r7, [sp], #4)
   1fee4:	e12fff1e 	bx	lr
   1fee8:	e52d7004 	push	{r7}		; (str r7, [sp, #-4]!)
   1feec:	e3a07058 	mov	r7, #88	; 0x58
   1fef0:	ef000000 	svc	0x00000000
   1fef4:	e49d7004 	pop	{r7}		; (ldr r7, [sp], #4)
   1fef8:	e12fff1e 	bx	lr
   1fefc:	e92d41f0 	push	{r4, r5, r6, r7, r8, lr}
   1ff00:	e24ddd06 	sub	sp, sp, #384	; 0x180
   1ff04:	e28d8008 	add	r8, sp, #8
   1ff08:	e1a01008 	mov	r1, r8
   1ff0c:	e3a00000 	mov	r0, #0
   1ff10:	ebffff55 	bl	1fc6c <initrd_image+0x11c6c>
   1ff14:	e1a0e008 	mov	lr, r8
   1ff18:	e28dc044 	add	ip, sp, #68	; 0x44
   1ff1c:	e8be000f 	ldm	lr!, {r0, r1, r2, r3}
   1ff20:	e8ac000f 	stmia	ip!, {r0, r1, r2, r3}
   1ff24:	e8be000f 	ldm	lr!, {r0, r1, r2, r3}
   1ff28:	e8ac000f 	stmia	ip!, {r0, r1, r2, r3}
   1ff2c:	e8be000f 	ldm	lr!, {r0, r1, r2, r3}
   1ff30:	e8ac000f 	stmia	ip!, {r0, r1, r2, r3}
   1ff34:	e89e0007 	ldm	lr, {r0, r1, r2}
   1ff38:	e28d4044 	add	r4, sp, #68	; 0x44
   1ff3c:	e88c0007 	stm	ip, {r0, r1, r2}
   1ff40:	e1a00004 	mov	r0, r4
   1ff44:	ebffff39 	bl	1fc30 <initrd_image+0x11c30>
   1ff48:	e3a01000 	mov	r1, #0
   1ff4c:	e59f6124 	ldr	r6, [pc, #292]	; 20078 <initrd_image+0x12078>
   1ff50:	e59f5124 	ldr	r5, [pc, #292]	; 2007c <initrd_image+0x1207c>
   1ff54:	e1a02004 	mov	r2, r4
   1ff58:	e1a00001 	mov	r0, r1
   1ff5c:	e08f6006 	add	r6, pc, r6
   1ff60:	e08f5005 	add	r5, pc, r5
   1ff64:	e28d7004 	add	r7, sp, #4
   1ff68:	ebffff43 	bl	1fc7c <initrd_image+0x11c7c>
   1ff6c:	e1a00006 	mov	r0, r6
   1ff70:	ebfffdfe 	bl	1f770 <initrd_image+0x11770>
   1ff74:	e3a04000 	mov	r4, #0
   1ff78:	ebfffe35 	bl	1f854 <initrd_image+0x11854>
   1ff7c:	e350000d 	cmp	r0, #13
   1ff80:	1350000a 	cmpne	r0, #10
   1ff84:	0a00000d 	beq	1ffc0 <initrd_image+0x11fc0>
   1ff88:	e3500004 	cmp	r0, #4
   1ff8c:	0a000028 	beq	20034 <initrd_image+0x12034>
   1ff90:	e3500008 	cmp	r0, #8
   1ff94:	1350007f 	cmpne	r0, #127	; 0x7f
   1ff98:	1a00001f 	bne	2001c <initrd_image+0x1201c>
   1ff9c:	e3540000 	cmp	r4, #0
   1ffa0:	0afffff4 	beq	1ff78 <initrd_image+0x11f78>
   1ffa4:	e1a00005 	mov	r0, r5
   1ffa8:	ebfffdf0 	bl	1f770 <initrd_image+0x11770>
   1ffac:	ebfffe28 	bl	1f854 <initrd_image+0x11854>
   1ffb0:	e350000d 	cmp	r0, #13
   1ffb4:	1350000a 	cmpne	r0, #10
   1ffb8:	e2444001 	sub	r4, r4, #1
   1ffbc:	1afffff1 	bne	1ff88 <initrd_image+0x11f88>
   1ffc0:	e59f00b8 	ldr	r0, [pc, #184]	; 20080 <initrd_image+0x12080>
   1ffc4:	e08f0000 	add	r0, pc, r0
   1ffc8:	ebfffde8 	bl	1f770 <initrd_image+0x11770>
   1ffcc:	e3a03000 	mov	r3, #0
   1ffd0:	e2842d06 	add	r2, r4, #384	; 0x180
   1ffd4:	e08d4002 	add	r4, sp, r2
   1ffd8:	e28d0080 	add	r0, sp, #128	; 0x80
   1ffdc:	e5443100 	strb	r3, [r4, #-256]	; 0xffffff00
   1ffe0:	ebfffb16 	bl	1ec40 <initrd_image+0x10c40>
   1ffe4:	e3500001 	cmp	r0, #1
   1ffe8:	0a000011 	beq	20034 <initrd_image+0x12034>
   1ffec:	e3a02001 	mov	r2, #1
   1fff0:	e1a01007 	mov	r1, r7
   1fff4:	e3e00000 	mvn	r0, #0
   1fff8:	ebffff6f 	bl	1fdbc <initrd_image+0x11dbc>
   1fffc:	e3500000 	cmp	r0, #0
   20000:	daffffd9 	ble	1ff6c <initrd_image+0x11f6c>
   20004:	e1a01000 	mov	r1, r0
   20008:	e59f0074 	ldr	r0, [pc, #116]	; 20084 <initrd_image+0x12084>
   2000c:	e59d2004 	ldr	r2, [sp, #4]
   20010:	e08f0000 	add	r0, pc, r0
   20014:	ebfffdd5 	bl	1f770 <initrd_image+0x11770>
   20018:	eaffffd3 	b	1ff6c <initrd_image+0x11f6c>
   2001c:	e2842d06 	add	r2, r4, #384	; 0x180
   20020:	e08d2002 	add	r2, sp, r2
   20024:	e5420100 	strb	r0, [r2, #-256]	; 0xffffff00
   20028:	e2844001 	add	r4, r4, #1
   2002c:	ebfffdff 	bl	1f830 <initrd_image+0x11830>
   20030:	eaffffd0 	b	1ff78 <initrd_image+0x11f78>
   20034:	e1a01007 	mov	r1, r7
   20038:	e3a02001 	mov	r2, #1
   2003c:	e3e00000 	mvn	r0, #0
   20040:	ebffff5d 	bl	1fdbc <initrd_image+0x11dbc>
   20044:	e2501000 	subs	r1, r0, #0
   20048:	da000003 	ble	2005c <initrd_image+0x1205c>
   2004c:	e59f0034 	ldr	r0, [pc, #52]	; 20088 <initrd_image+0x12088>
   20050:	e59d2004 	ldr	r2, [sp, #4]
   20054:	e08f0000 	add	r0, pc, r0
   20058:	ebfffdc4 	bl	1f770 <initrd_image+0x11770>
   2005c:	e3a01000 	mov	r1, #0
   20060:	e1a02008 	mov	r2, r8
   20064:	e1a00001 	mov	r0, r1
   20068:	ebffff03 	bl	1fc7c <initrd_image+0x11c7c>
   2006c:	e3a00000 	mov	r0, #0
   20070:	e28ddd06 	add	sp, sp, #384	; 0x180
   20074:	e8bd81f0 	pop	{r4, r5, r6, r7, r8, pc}
   20078:	00001098 	muleq	r0, r8, r0
   2007c:	00001098 	muleq	r0, r8, r0
   20080:	00000f7c 	andeq	r0, r0, ip, ror pc
   20084:	00000fec 	andeq	r0, r0, ip, ror #31
   20088:	00000fa8 	andeq	r0, r0, r8, lsr #31
	...
   20c30:	6f686365 	svcvs	0x00686365
   20c34:	00000000 	andeq	r0, r0, r0
   20c38:	00736c63 	rsbseq	r6, r3, r3, ror #24
   20c3c:	5b1b0d0a 	blpl	6e406c <__bss_end+0x6ab06c>
   20c40:	00004a32 	andeq	r4, r0, r2, lsr sl
   20c44:	00006463 	andeq	r6, r0, r3, ror #8
   20c48:	6d6f682f 	stclvs	8, cr6, [pc, #-188]!	; 20b94 <initrd_image+0x12b94>
   20c4c:	00000065 	andeq	r0, r0, r5, rrx
   20c50:	6f727245 	svcvs	0x00727245
   20c54:	68632072 	stmdavs	r3!, {r1, r4, r5, r6, sp}^
   20c58:	69676e61 	stmdbvs	r7!, {r0, r5, r6, r9, sl, fp, sp, lr}^
   20c5c:	6420676e 	strtvs	r6, [r0], #-1902	; 0xfffff892
   20c60:	63657269 	cmnvs	r5, #-1879048186	; 0x90000006
   20c64:	79726f74 	ldmdbvc	r2!, {r2, r4, r5, r6, r8, r9, sl, fp, sp, lr}^
   20c68:	0a732520 	beq	1cea0f0 <__bss_end+0x1cb10f0>
   20c6c:	00000000 	andeq	r0, r0, r0
   20c70:	746e6f66 	strbtvc	r6, [lr], #-3942	; 0xfffff09a
   20c74:	00000020 	andeq	r0, r0, r0, lsr #32
   20c78:	64617267 	strbtvs	r7, [r1], #-615	; 0xfffffd99
   20c7c:	746e6569 	strbtvc	r6, [lr], #-1385	; 0xfffffa97
   20c80:	00000000 	andeq	r0, r0, r0
   20c84:	70746567 	rsbsvc	r6, r4, r7, ror #10
   20c88:	00006469 	andeq	r6, r0, r9, ror #8
   20c8c:	72727543 	rsbsvc	r7, r2, #281018368	; 0x10c00000
   20c90:	20746e65 	rsbscs	r6, r4, r5, ror #28
   20c94:	3a646970 	bcc	193b25c <__bss_end+0x190225c>
   20c98:	0a642520 	beq	192a120 <__bss_end+0x18f1120>
   20c9c:	00000000 	andeq	r0, r0, r0
   20ca0:	74697865 	strbtvc	r7, [r9], #-2149	; 0xfffff79b
   20ca4:	00000000 	andeq	r0, r0, r0
   20ca8:	6e696c62 	cdpvs	12, 6, cr6, cr9, cr2, {3}
   20cac:	0000206b 	andeq	r2, r0, fp, rrx
   20cb0:	706c6568 	rsbvc	r6, ip, r8, ror #10
   20cb4:	00000000 	andeq	r0, r0, r0
   20cb8:	312e3331 			; <UNDEFINED> instruction: 0x312e3331
   20cbc:	00000000 	andeq	r0, r0, r0
   20cc0:	6f574d56 	svcvs	0x00574d56
   20cc4:	68532073 	ldmdavs	r3, {r0, r1, r4, r5, r6, sp}^
   20cc8:	206c6c65 	rsbcs	r6, ip, r5, ror #24
   20ccc:	73726556 	cmnvc	r2, #360710144	; 0x15800000
   20cd0:	206e6f69 	rsbcs	r6, lr, r9, ror #30
   20cd4:	0a0a7325 	beq	2bd970 <__bss_end+0x284970>
   20cd8:	00000000 	andeq	r0, r0, r0
   20cdc:	696c6209 	stmdbvs	ip!, {r0, r3, r9, sp, lr}^
   20ce0:	6f206b6e 	svcvs	0x00206b6e
   20ce4:	666f2f6e 	strbtvs	r2, [pc], -lr, ror #30
   20ce8:	202d0966 	eorcs	r0, sp, r6, ror #18
   20cec:	6e727574 	mrcvs	5, 3, r7, cr2, cr4, {3}
   20cf0:	6e6f2073 	mcrvs	0, 3, r2, cr15, cr3, {3}
   20cf4:	66666f2f 	strbtvs	r6, [r6], -pc, lsr #30
   20cf8:	61656820 	cmnvs	r5, r0, lsr #16
   20cfc:	65627472 	strbvs	r7, [r2, #-1138]!	; 0xfffffb8e
   20d00:	4c207461 	cfstrsmi	mvf7, [r0], #-388	; 0xfffffe7c
   20d04:	000a4445 	andeq	r4, sl, r5, asr #8
   20d08:	09646309 	stmdbeq	r4!, {r0, r3, r8, r9, sp, lr}^
   20d0c:	63202d09 			; <UNDEFINED> instruction: 0x63202d09
   20d10:	676e6168 	strbvs	r6, [lr, -r8, ror #2]!
   20d14:	69642065 	stmdbvs	r4!, {r0, r2, r5, r6, sp}^
   20d18:	74636572 	strbtvc	r6, [r3], #-1394	; 0xfffffa8e
   20d1c:	0a79726f 	beq	1e7d6e0 <__bss_end+0x1e446e0>
   20d20:	00000000 	andeq	r0, r0, r0
   20d24:	736c6309 	cmnvc	ip, #603979776	; 0x24000000
   20d28:	202d0909 	eorcs	r0, sp, r9, lsl #18
   20d2c:	61656c63 	cmnvs	r5, r3, ror #24
   20d30:	74207372 	strtvc	r7, [r0], #-882	; 0xfffffc8e
   20d34:	73206568 			; <UNDEFINED> instruction: 0x73206568
   20d38:	65657263 	strbvs	r7, [r5, #-611]!	; 0xfffffd9d
   20d3c:	00000a6e 	andeq	r0, r0, lr, ror #20
   20d40:	6c6f6309 	stclvs	3, cr6, [pc], #-36	; 20d24 <initrd_image+0x12d24>
   20d44:	5820726f 	stmdapl	r0!, {r0, r1, r2, r3, r5, r6, r9, ip, sp, lr}
   20d48:	73202d09 			; <UNDEFINED> instruction: 0x73202d09
   20d4c:	74207465 	strtvc	r7, [r0], #-1125	; 0xfffffb9b
   20d50:	20747865 	rsbscs	r7, r4, r5, ror #16
   20d54:	63206f74 			; <UNDEFINED> instruction: 0x63206f74
   20d58:	726f6c6f 	rsbvc	r6, pc, #28416	; 0x6f00
   20d5c:	0a582320 	beq	16299e4 <__bss_end+0x15f09e4>
   20d60:	00000000 	andeq	r0, r0, r0
   20d64:	68636509 	stmdavs	r3!, {r0, r3, r8, sl, sp, lr}^
   20d68:	0958206f 	ldmdbeq	r8, {r0, r1, r2, r3, r5, r6, sp}^
   20d6c:	7270202d 	rsbsvc	r2, r0, #45	; 0x2d
   20d70:	73746e69 	cmnvc	r4, #1680	; 0x690
   20d74:	72747320 	rsbsvc	r7, r4, #32, 6	; 0x80000000
   20d78:	20676e69 	rsbcs	r6, r7, r9, ror #28
   20d7c:	00000a58 	andeq	r0, r0, r8, asr sl
   20d80:	6e6f6609 	cdpvs	6, 6, cr6, cr15, cr9, {0}
   20d84:	09582074 	ldmdbeq	r8, {r2, r4, r5, r6, sp}^
   20d88:	6573202d 	ldrbvs	r2, [r3, #-45]!	; 0xffffffd3
   20d8c:	74207374 	strtvc	r7, [r0], #-884	; 0xfffffc8c
   20d90:	66206568 	strtvs	r6, [r0], -r8, ror #10
   20d94:	20746e6f 	rsbscs	r6, r4, pc, ror #28
   20d98:	66206f74 	qsub16vs	r6, r0, r4
   20d9c:	20746e6f 	rsbscs	r6, r4, pc, ror #28
   20da0:	000a5823 	andeq	r5, sl, r3, lsr #16
   20da4:	74656709 	strbtvc	r6, [r5], #-1801	; 0xfffff8f7
   20da8:	09646970 	stmdbeq	r4!, {r4, r5, r6, r8, fp, sp, lr}^
   20dac:	7270202d 	rsbsvc	r2, r0, #45	; 0x2d
   20db0:	20746e69 	rsbscs	r6, r4, r9, ror #28
   20db4:	72727563 	rsbsvc	r7, r2, #415236096	; 0x18c00000
   20db8:	20746e65 	rsbscs	r6, r4, r5, ror #28
   20dbc:	636f7270 	cmnvs	pc, #112, 4
   20dc0:	20737365 	rsbscs	r7, r3, r5, ror #6
   20dc4:	000a4449 	andeq	r4, sl, r9, asr #8
   20dc8:	61726709 	cmnvs	r2, r9, lsl #14
   20dcc:	6e656964 	vnmulvs.f16	s13, s10, s9	; <UNPREDICTABLE>
   20dd0:	202d0974 	eorcs	r0, sp, r4, ror r9
   20dd4:	656b616d 	strbvs	r6, [fp, #-365]!	; 0xfffffe93
   20dd8:	63616220 	cmnvs	r1, #32, 4
   20ddc:	6f72676b 	svcvs	0x0072676b
   20de0:	20646e75 	rsbcs	r6, r4, r5, ror lr
   20de4:	6b6f6f6c 	blvs	1bfcb9c <__bss_end+0x1bc3b9c>
   20de8:	6f6f6320 	svcvs	0x006f6320
   20dec:	00000a6c 	andeq	r0, r0, ip, ror #20
   20df0:	6c656809 	stclvs	8, cr6, [r5], #-36	; 0xffffffdc
   20df4:	2d090970 	vstrcs.16	s0, [r9, #-224]	; 0xffffff20	; <UNPREDICTABLE>
   20df8:	69727020 	ldmdbvs	r2!, {r5, ip, sp, lr}^
   20dfc:	2073746e 	rsbscs	r7, r3, lr, ror #8
   20e00:	73696874 	cmnvc	r9, #116, 16	; 0x740000
   20e04:	6c656820 	stclvs	8, cr6, [r5], #-128	; 0xffffff80
   20e08:	656d2070 	strbvs	r2, [sp, #-112]!	; 0xffffff90
   20e0c:	67617373 			; <UNDEFINED> instruction: 0x67617373
   20e10:	00000a65 	andeq	r0, r0, r5, ror #20
   20e14:	6e617209 	cdpvs	2, 6, cr7, cr1, cr9, {0}
   20e18:	096d6f64 	stmdbeq	sp!, {r2, r5, r6, r8, r9, sl, fp, sp, lr}^
   20e1c:	7270202d 	rsbsvc	r2, r0, #45	; 0x2d
   20e20:	20746e69 	rsbscs	r6, r4, r9, ror #28
   20e24:	646e6172 	strbtvs	r6, [lr], #-370	; 0xfffffe8e
   20e28:	6e206d6f 	cdpvs	13, 2, cr6, cr0, cr15, {3}
   20e2c:	65626d75 	strbvs	r6, [r2, #-3445]!	; 0xfffff28b
   20e30:	00000a72 	andeq	r0, r0, r2, ror sl
   20e34:	73657209 	cmnvc	r5, #-1879048192	; 0x90000000
   20e38:	09097465 	stmdbeq	r9, {r0, r2, r5, r6, sl, ip, sp, lr}
   20e3c:	6572202d 	ldrbvs	r2, [r2, #-45]!	; 0xffffffd3
   20e40:	20746573 	rsbscs	r6, r4, r3, ror r5
   20e44:	20656874 	rsbcs	r6, r5, r4, ror r8
   20e48:	6863616d 	stmdavs	r3!, {r0, r2, r3, r5, r6, r8, sp, lr}^
   20e4c:	0a656e69 	beq	197c7f8 <__bss_end+0x19437f8>
   20e50:	00000000 	andeq	r0, r0, r0
   20e54:	656c7309 	strbvs	r7, [ip, #-777]!	; 0xfffffcf7
   20e58:	58097065 	stmdapl	r9, {r0, r2, r5, r6, ip, sp, lr}
   20e5c:	73202d09 			; <UNDEFINED> instruction: 0x73202d09
   20e60:	7065656c 	rsbvc	r6, r5, ip, ror #10
   20e64:	726f6620 	rsbvc	r6, pc, #32, 12	; 0x2000000
   20e68:	73205820 			; <UNDEFINED> instruction: 0x73205820
   20e6c:	6e6f6365 	cdpvs	3, 6, cr6, cr15, cr5, {3}
   20e70:	000a7364 	andeq	r7, sl, r4, ror #6
   20e74:	6d657409 	cfstrdvs	mvd7, [r5, #-36]!	; 0xffffffdc
   20e78:	2d090970 	vstrcs.16	s0, [r9, #-224]	; 0xffffff20	; <UNPREDICTABLE>
   20e7c:	69727020 	ldmdbvs	r2!, {r5, ip, sp, lr}^
   20e80:	7420746e 	strtvc	r7, [r0], #-1134	; 0xfffffb92
   20e84:	74206568 	strtvc	r6, [r0], #-1384	; 0xfffffa98
   20e88:	65706d65 	ldrbvs	r6, [r0, #-3429]!	; 0xfffff29b
   20e8c:	75746172 	ldrbvc	r6, [r4, #-370]!	; 0xfffffe8e
   20e90:	000a6572 	andeq	r6, sl, r2, ror r5
   20e94:	74707509 	ldrbtvc	r7, [r0], #-1289	; 0xfffffaf7
   20e98:	09656d69 	stmdbeq	r5!, {r0, r3, r5, r6, r8, sl, fp, sp, lr}^
   20e9c:	7270202d 	rsbsvc	r2, r0, #45	; 0x2d
   20ea0:	20746e69 	rsbscs	r6, r4, r9, ror #28
   20ea4:	6f636573 	svcvs	0x00636573
   20ea8:	2073646e 	rsbscs	r6, r3, lr, ror #8
   20eac:	636e6973 	cmnvs	lr, #1884160	; 0x1cc000
   20eb0:	6f622065 	svcvs	0x00622065
   20eb4:	000a746f 	andeq	r7, sl, pc, ror #8
   20eb8:	72657609 	rsbvc	r7, r5, #9437184	; 0x900000
   20ebc:	202d0909 	eorcs	r0, sp, r9, lsl #18
   20ec0:	6e697270 	mcrvs	2, 3, r7, cr9, cr0, {3}
   20ec4:	65762074 	ldrbvs	r2, [r6, #-116]!	; 0xffffff8c
   20ec8:	6f697372 	svcvs	0x00697372
   20ecc:	00000a6e 	andeq	r0, r0, lr, ror #20
   20ed0:	6f6c6f63 	svcvs	0x006c6f63
   20ed4:	00002072 	andeq	r2, r0, r2, ror r0
   20ed8:	335b6325 	cmpcc	fp, #-1811939328	; 0x94000000
   20edc:	0a6d6325 	beq	1b79b78 <__bss_end+0x1b40b78>
   20ee0:	00000000 	andeq	r0, r0, r0
   20ee4:	00726576 	rsbseq	r6, r2, r6, ror r5
   20ee8:	6f574d56 	svcvs	0x00574d56
   20eec:	68532073 	ldmdavs	r3, {r0, r1, r4, r5, r6, sp}^
   20ef0:	206c6c65 	rsbcs	r6, ip, r5, ror #24
   20ef4:	73726576 	cmnvc	r2, #494927872	; 0x1d800000
   20ef8:	206e6f69 	rsbcs	r6, lr, r9, ror #30
   20efc:	000a7325 	andeq	r7, sl, r5, lsr #6
   20f00:	69747075 	ldmdbvs	r4!, {r0, r2, r4, r5, r6, ip, sp, lr}^
   20f04:	0000656d 	andeq	r6, r0, sp, ror #10
   20f08:	656d6954 	strbvs	r6, [sp, #-2388]!	; 0xfffff6ac
   20f0c:	6e697320 	cdpvs	3, 6, cr7, cr9, cr0, {1}
   20f10:	62206563 	eorvs	r6, r0, #415236096	; 0x18c00000
   20f14:	3a746f6f 	bcc	1d3ccd8 <__bss_end+0x1d03cd8>
   20f18:	0a732520 	beq	1cea3a0 <__bss_end+0x1cb13a0>
   20f1c:	00000000 	andeq	r0, r0, r0
   20f20:	656d6954 	strbvs	r6, [sp, #-2388]!	; 0xfffff6ac
   20f24:	6e757220 	cdpvs	2, 7, cr7, cr5, cr0, {1}
   20f28:	676e696e 	strbvs	r6, [lr, -lr, ror #18]!
   20f2c:	7325203a 			; <UNDEFINED> instruction: 0x7325203a
   20f30:	0000000a 	andeq	r0, r0, sl
   20f34:	65736572 	ldrbvs	r6, [r3, #-1394]!	; 0xfffffa8e
   20f38:	00000074 	andeq	r0, r0, r4, ror r0
   20f3c:	65736552 	ldrbvs	r6, [r3, #-1362]!	; 0xfffffaae
   20f40:	6e697474 	mcrvs	4, 3, r7, cr9, cr4, {3}
   20f44:	2e2e2e67 	cdpcs	14, 2, cr2, cr14, cr7, {3}
   20f48:	0000000a 	andeq	r0, r0, sl
   20f4c:	65656c73 	strbvs	r6, [r5, #-3187]!	; 0xfffff38d
   20f50:	00000070 	andeq	r0, r0, r0, ror r0
   20f54:	65656c53 	strbvs	r6, [r5, #-3155]!	; 0xfffff3ad
   20f58:	676e6970 			; <UNDEFINED> instruction: 0x676e6970
   20f5c:	726f6620 	rsbvc	r6, pc, #32, 12	; 0x2000000
   20f60:	73642520 	cmnvc	r4, #32, 10	; 0x8000000
   20f64:	0a2e2e2e 	beq	bac824 <__bss_end+0xb73824>
   20f68:	00000000 	andeq	r0, r0, r0
   20f6c:	706d6574 	rsbvc	r6, sp, r4, ror r5
   20f70:	00000000 	andeq	r0, r0, r0
   20f74:	72727543 	rsbsvc	r7, r2, #281018368	; 0x10c00000
   20f78:	20746e65 	rsbscs	r6, r4, r5, ror #28
   20f7c:	706d6574 	rsbvc	r6, sp, r4, ror r5
   20f80:	74617265 	strbtvc	r7, [r1], #-613	; 0xfffffd9b
   20f84:	20657275 	rsbcs	r7, r5, r5, ror r2
   20f88:	2c436425 	cfstrdcs	mvd6, [r3], {37}	; 0x25
   20f8c:	46642520 	strbtmi	r2, [r4], -r0, lsr #10
   20f90:	0000000a 	andeq	r0, r0, sl
   20f94:	646e6172 	strbtvs	r6, [lr], #-370	; 0xfffffe8e
   20f98:	00006d6f 	andeq	r6, r0, pc, ror #26
   20f9c:	000a6425 	andeq	r6, sl, r5, lsr #8
   20fa0:	00007325 	andeq	r7, r0, r5, lsr #6
   20fa4:	6e69622f 	cdpvs	2, 6, cr6, cr9, cr15, {1}
   20fa8:	0073252f 	rsbseq	r2, r3, pc, lsr #10
   20fac:	6d6f430a 	stclvs	3, cr4, [pc, #-40]!	; 20f8c <initrd_image+0x12f8c>
   20fb0:	6e616d6d 	cdpvs	13, 6, cr6, cr1, cr13, {3}
   20fb4:	6f6e2064 	svcvs	0x006e2064
   20fb8:	6f662074 	svcvs	0x00662074
   20fbc:	3a646e75 	bcc	193c998 <__bss_end+0x1903998>
   20fc0:	73252220 			; <UNDEFINED> instruction: 0x73252220
   20fc4:	000a2122 	andeq	r2, sl, r2, lsr #2
   20fc8:	74696157 	strbtvc	r6, [r9], #-343	; 0xfffffea9
   20fcc:	20676e69 	rsbcs	r6, r7, r9, ror #28
   20fd0:	20726f66 	rsbscs	r6, r2, r6, ror #30
   20fd4:	74206425 	strtvc	r6, [r0], #-1061	; 0xfffffbdb
   20fd8:	6966206f 	stmdbvs	r6!, {r0, r1, r2, r3, r5, r6, sp}^
   20fdc:	6873696e 	ldmdavs	r3!, {r1, r2, r3, r5, r6, r8, fp, sp, lr}^
   20fe0:	0000000a 	andeq	r0, r0, sl
   20fe4:	6c696843 	stclvs	8, cr6, [r9], #-268	; 0xfffffef4
   20fe8:	78652064 	stmdavc	r5!, {r2, r5, r6, sp}^
   20fec:	64657469 	strbtvs	r7, [r5], #-1129	; 0xfffffb97
   20ff0:	74697720 	strbtvc	r7, [r9], #-1824	; 0xfffff8e0
   20ff4:	64252068 	strtvs	r2, [r5], #-104	; 0xffffff98
   20ff8:	0000000a 	andeq	r0, r0, sl
   20ffc:	0000205d 	andeq	r2, r0, sp, asr r0
   21000:	00082008 	andeq	r2, r8, r8
   21004:	6c696843 	stclvs	8, cr6, [r9], #-268	; 0xfffffef4
   21008:	64252064 	strtvs	r2, [r5], #-100	; 0xffffff9c
   2100c:	69786520 	ldmdbvs	r8!, {r5, r8, sl, sp, lr}^
   21010:	20646574 	rsbcs	r6, r4, r4, ror r5
   21014:	68746977 	ldmdavs	r4!, {r0, r1, r2, r4, r5, r6, r8, fp, sp, lr}^
   21018:	0a642520 	beq	192a4a0 <__bss_end+0x18f14a0>
   2101c:	00000000 	andeq	r0, r0, r0
   21020:	6f727245 	svcvs	0x00727245
   21024:	000a2172 	andeq	r2, sl, r2, ror r1
   21028:	20646425 	rsbcs	r6, r4, r5, lsr #8
   2102c:	20686425 	rsbcs	r6, r8, r5, lsr #8
   21030:	206d6425 	rsbcs	r6, sp, r5, lsr #8
   21034:	00736425 	rsbseq	r6, r3, r5, lsr #8
	...
   21c30:	6e6b6e55 	mcrvs	14, 3, r6, cr11, cr5, {2}
   21c34:	206e776f 	rsbcs	r7, lr, pc, ror #14
   21c38:	6f727265 	svcvs	0x00727265
   21c3c:	00000072 	andeq	r0, r0, r2, ror r0
   21c40:	73206f4e 			; <UNDEFINED> instruction: 0x73206f4e
   21c44:	20686375 	rsbcs	r6, r8, r5, ror r3
   21c48:	74737973 	ldrbtvc	r7, [r3], #-2419	; 0xfffff68d
   21c4c:	63206d65 			; <UNDEFINED> instruction: 0x63206d65
   21c50:	006c6c61 	rsbeq	r6, ip, r1, ror #24
   21c54:	75736552 	ldrbvc	r6, [r3, #-1362]!	; 0xfffffaae
   21c58:	6f20746c 	svcvs	0x0020746c
   21c5c:	6f207475 	svcvs	0x00207475
   21c60:	61722066 	cmnvs	r2, r6, rrx
   21c64:	0065676e 	rsbeq	r6, r5, lr, ror #14
   21c68:	20746f4e 	rsbscs	r6, r4, lr, asr #30
   21c6c:	756f6e65 	strbvc	r6, [pc, #-3685]!	; 20e0f <initrd_image+0x12e0f>
   21c70:	66206867 	strtvs	r6, [r0], -r7, ror #16
   21c74:	00007364 	andeq	r7, r0, r4, ror #6
   21c78:	20746f4e 	rsbscs	r6, r4, lr, asr #30
   21c7c:	69642061 	stmdbvs	r4!, {r0, r5, r6, sp}^
   21c80:	74636572 	strbtvc	r6, [r3], #-1394	; 0xfffffa8e
   21c84:	0079726f 	rsbseq	r7, r9, pc, ror #4
   21c88:	73206f4e 			; <UNDEFINED> instruction: 0x73206f4e
   21c8c:	20686375 	rsbcs	r6, r8, r5, ror r3
   21c90:	69766564 	ldmdbvs	r6!, {r2, r5, r6, r8, sl, sp, lr}^
   21c94:	00006563 	andeq	r6, r0, r3, ror #10
   21c98:	20746f4e 	rsbscs	r6, r4, lr, asr #30
   21c9c:	756f6e65 	strbvc	r6, [pc, #-3685]!	; 20e3f <initrd_image+0x12e3f>
   21ca0:	6d206e67 	stcvs	14, cr6, [r0, #-412]!	; 0xfffffe64
   21ca4:	726f6d65 	rsbvc	r6, pc, #6464	; 0x1940
   21ca8:	00000079 	andeq	r0, r0, r9, ror r0
   21cac:	20646142 	rsbcs	r6, r4, r2, asr #2
   21cb0:	656c6966 	strbvs	r6, [ip, #-2406]!	; 0xfffff69a
   21cb4:	73656420 	cmnvc	r5, #32, 8	; 0x20000000
   21cb8:	70697263 	rsbvc	r7, r9, r3, ror #4
   21cbc:	00726f74 	rsbseq	r6, r2, r4, ror pc
   21cc0:	656c6946 	strbvs	r6, [ip, #-2374]!	; 0xfffff6ba
   21cc4:	746f6e20 	strbtvc	r6, [pc], #-3616	; 21ccc <initrd_image+0x13ccc>
   21cc8:	756f6620 	strbvc	r6, [pc, #-1568]!	; 216b0 <initrd_image+0x136b0>
   21ccc:	0000646e 	andeq	r6, r0, lr, ror #8
   21cd0:	65206f4e 	strvs	r6, [r0, #-3918]!	; 0xfffff0b2
   21cd4:	726f7272 	rsbvc	r7, pc, #536870919	; 0x20000007
   21cd8:	00000000 	andeq	r0, r0, r0
   21cdc:	0000b0a0 	andeq	fp, r0, r0, lsr #1
   21ce0:	0000b000 	andeq	fp, r0, r0
   21ce4:	0000b090 	muleq	r0, r0, r0
   21ce8:	0000b000 	andeq	fp, r0, r0
   21cec:	0000b000 	andeq	fp, r0, r0
   21cf0:	0000b000 	andeq	fp, r0, r0
   21cf4:	0000b000 	andeq	fp, r0, r0
   21cf8:	0000b000 	andeq	fp, r0, r0
   21cfc:	0000b000 	andeq	fp, r0, r0
   21d00:	0000b07c 	andeq	fp, r0, ip, ror r0
   21d04:	0000b000 	andeq	fp, r0, r0
   21d08:	0000b000 	andeq	fp, r0, r0
   21d0c:	0000b068 	andeq	fp, r0, r8, rrx
   21d10:	0000b000 	andeq	fp, r0, r0
   21d14:	0000b000 	andeq	fp, r0, r0
   21d18:	0000b000 	andeq	fp, r0, r0
   21d1c:	0000b000 	andeq	fp, r0, r0
   21d20:	0000b000 	andeq	fp, r0, r0
   21d24:	0000b000 	andeq	fp, r0, r0
   21d28:	0000b058 	andeq	fp, r0, r8, asr r0
   21d2c:	0000b048 	andeq	fp, r0, r8, asr #32
   21d30:	0000b000 	andeq	fp, r0, r0
   21d34:	0000b000 	andeq	fp, r0, r0
   21d38:	0000b038 	andeq	fp, r0, r8, lsr r0
   21d3c:	0000b000 	andeq	fp, r0, r0
   21d40:	0000b000 	andeq	fp, r0, r0
   21d44:	0000b000 	andeq	fp, r0, r0
   21d48:	0000b000 	andeq	fp, r0, r0
   21d4c:	0000b000 	andeq	fp, r0, r0
   21d50:	0000b000 	andeq	fp, r0, r0
   21d54:	0000b000 	andeq	fp, r0, r0
   21d58:	0000b000 	andeq	fp, r0, r0
   21d5c:	0000b000 	andeq	fp, r0, r0
   21d60:	0000b000 	andeq	fp, r0, r0
   21d64:	0000b024 	andeq	fp, r0, r4, lsr #32
   21d68:	0000b000 	andeq	fp, r0, r0
   21d6c:	0000b000 	andeq	fp, r0, r0
   21d70:	0000b000 	andeq	fp, r0, r0
   21d74:	0000b000 	andeq	fp, r0, r0
   21d78:	0000b010 	andeq	fp, r0, r0, lsl r0
   21d7c:	00000000 	andeq	r0, r0, r0
   21d80:	ba4f0100 	blt	13e2188 <__bss_end+0x13a9188>
   21d84:	00000000 	andeq	r0, r0, r0
   21d88:	03120000 	tsteq	r2, #0
   21d8c:	70cc1eb0 	strhvc	r1, [ip], #224	; 0xe0
   21d90:	64696c73 	strbtvs	r6, [r9], #-3187	; 0xfffff38d
   21d94:	6f687365 	svcvs	0x00687365
   21d98:	00000077 	andeq	r0, r0, r7, ror r0
   21d9c:	00000000 	andeq	r0, r0, r0
   21da0:	e92d4010 	push	{r4, lr}
   21da4:	eb000327 	bl	22a48 <initrd_image+0x14a48>
   21da8:	e8bd4010 	pop	{r4, lr}
   21dac:	ea0002bc 	b	228a4 <initrd_image+0x148a4>
   21db0:	e3a02000 	mov	r2, #0
   21db4:	e1a03001 	mov	r3, r1
   21db8:	e92d4ff0 	push	{r4, r5, r6, r7, r8, r9, sl, fp, lr}
   21dbc:	e24dddca 	sub	sp, sp, #12928	; 0x3280
   21dc0:	e24dd034 	sub	sp, sp, #52	; 0x34
   21dc4:	e1a01002 	mov	r1, r2
   21dc8:	e1a04000 	mov	r4, r0
   21dcc:	e58d3020 	str	r3, [sp, #32]
   21dd0:	eb0002c2 	bl	228e0 <initrd_image+0x148e0>
   21dd4:	e2509000 	subs	r9, r0, #0
   21dd8:	ba0000df 	blt	2215c <initrd_image+0x1415c>
   21ddc:	e28d5e2b 	add	r5, sp, #688	; 0x2b0
   21de0:	e28d1030 	add	r1, sp, #48	; 0x30
   21de4:	e3a02080 	mov	r2, #128	; 0x80
   21de8:	eb0002b2 	bl	228b8 <initrd_image+0x148b8>
   21dec:	e555327b 	ldrb	r3, [r5, #-635]	; 0xfffffd85
   21df0:	e555827c 	ldrb	r8, [r5, #-636]	; 0xfffffd84
   21df4:	e555627a 	ldrb	r6, [r5, #-634]	; 0xfffffd86
   21df8:	e0888403 	add	r8, r8, r3, lsl #8
   21dfc:	e5553279 	ldrb	r3, [r5, #-633]	; 0xfffffd87
   21e00:	e5554278 	ldrb	r4, [r5, #-632]	; 0xfffffd88
   21e04:	e0866403 	add	r6, r6, r3, lsl #8
   21e08:	e5553277 	ldrb	r3, [r5, #-631]	; 0xfffffd89
   21e0c:	e59f0360 	ldr	r0, [pc, #864]	; 22174 <initrd_image+0x14174>
   21e10:	e5557276 	ldrb	r7, [r5, #-630]	; 0xfffffd8a
   21e14:	e0844403 	add	r4, r4, r3, lsl #8
   21e18:	e5553275 	ldrb	r3, [r5, #-629]	; 0xfffffd8b
   21e1c:	e08f0000 	add	r0, pc, r0
   21e20:	e555a27f 	ldrb	sl, [r5, #-639]	; 0xfffffd81
   21e24:	e555b27d 	ldrb	fp, [r5, #-637]	; 0xfffffd83
   21e28:	e0877403 	add	r7, r7, r3, lsl #8
   21e2c:	eb0001e2 	bl	225bc <initrd_image+0x145bc>
   21e30:	e5551280 	ldrb	r1, [r5, #-640]	; 0xfffffd80
   21e34:	e351000a 	cmp	r1, #10
   21e38:	0a00000e 	beq	21e78 <initrd_image+0x13e78>
   21e3c:	e59f0334 	ldr	r0, [pc, #820]	; 22178 <initrd_image+0x14178>
   21e40:	e08f0000 	add	r0, pc, r0
   21e44:	eb0001dc 	bl	225bc <initrd_image+0x145bc>
   21e48:	e59f032c 	ldr	r0, [pc, #812]	; 2217c <initrd_image+0x1417c>
   21e4c:	e08f0000 	add	r0, pc, r0
   21e50:	eb0001d9 	bl	225bc <initrd_image+0x145bc>
   21e54:	e35a0005 	cmp	sl, #5
   21e58:	908ff10a 	addls	pc, pc, sl, lsl #2
   21e5c:	ea0000a7 	b	22100 <initrd_image+0x14100>
   21e60:	ea000096 	b	220c0 <initrd_image+0x140c0>
   21e64:	ea0000a5 	b	22100 <initrd_image+0x14100>
   21e68:	ea000098 	b	220d0 <initrd_image+0x140d0>
   21e6c:	ea00009b 	b	220e0 <initrd_image+0x140e0>
   21e70:	ea00009e 	b	220f0 <initrd_image+0x140f0>
   21e74:	ea000003 	b	21e88 <initrd_image+0x13e88>
   21e78:	e59f0300 	ldr	r0, [pc, #768]	; 22180 <initrd_image+0x14180>
   21e7c:	e08f0000 	add	r0, pc, r0
   21e80:	eb0001cd 	bl	225bc <initrd_image+0x145bc>
   21e84:	eaffffef 	b	21e48 <initrd_image+0x13e48>
   21e88:	e59f02f4 	ldr	r0, [pc, #756]	; 22184 <initrd_image+0x14184>
   21e8c:	e08f0000 	add	r0, pc, r0
   21e90:	eb0001c9 	bl	225bc <initrd_image+0x145bc>
   21e94:	e59f02ec 	ldr	r0, [pc, #748]	; 22188 <initrd_image+0x14188>
   21e98:	e08f0000 	add	r0, pc, r0
   21e9c:	eb0001c6 	bl	225bc <initrd_image+0x145bc>
   21ea0:	e555127e 	ldrb	r1, [r5, #-638]	; 0xfffffd82
   21ea4:	e3510001 	cmp	r1, #1
   21ea8:	0a0000a7 	beq	2214c <initrd_image+0x1414c>
   21eac:	e59f02d8 	ldr	r0, [pc, #728]	; 2218c <initrd_image+0x1418c>
   21eb0:	e08f0000 	add	r0, pc, r0
   21eb4:	eb0001c0 	bl	225bc <initrd_image+0x145bc>
   21eb8:	e59f02d0 	ldr	r0, [pc, #720]	; 22190 <initrd_image+0x14190>
   21ebc:	e1a0100b 	mov	r1, fp
   21ec0:	e08f0000 	add	r0, pc, r0
   21ec4:	eb0001bc 	bl	225bc <initrd_image+0x145bc>
   21ec8:	e59f02c4 	ldr	r0, [pc, #708]	; 22194 <initrd_image+0x14194>
   21ecc:	e1a02006 	mov	r2, r6
   21ed0:	e1a03004 	mov	r3, r4
   21ed4:	e1a01008 	mov	r1, r8
   21ed8:	e58d7000 	str	r7, [sp]
   21edc:	e08f0000 	add	r0, pc, r0
   21ee0:	eb0001b5 	bl	225bc <initrd_image+0x145bc>
   21ee4:	e5553274 	ldrb	r3, [r5, #-628]	; 0xfffffd8c
   21ee8:	e5551273 	ldrb	r1, [r5, #-627]	; 0xfffffd8d
   21eec:	e59f02a4 	ldr	r0, [pc, #676]	; 22198 <initrd_image+0x14198>
   21ef0:	e0831401 	add	r1, r3, r1, lsl #8
   21ef4:	e08f0000 	add	r0, pc, r0
   21ef8:	eb0001af 	bl	225bc <initrd_image+0x145bc>
   21efc:	e5553272 	ldrb	r3, [r5, #-626]	; 0xfffffd8e
   21f00:	e5551271 	ldrb	r1, [r5, #-625]	; 0xfffffd8f
   21f04:	e59f0290 	ldr	r0, [pc, #656]	; 2219c <initrd_image+0x1419c>
   21f08:	e0831401 	add	r1, r3, r1, lsl #8
   21f0c:	e08f0000 	add	r0, pc, r0
   21f10:	eb0001a9 	bl	225bc <initrd_image+0x145bc>
   21f14:	e59f0284 	ldr	r0, [pc, #644]	; 221a0 <initrd_image+0x141a0>
   21f18:	e555123f 	ldrb	r1, [r5, #-575]	; 0xfffffdc1
   21f1c:	e08f0000 	add	r0, pc, r0
   21f20:	eb0001a5 	bl	225bc <initrd_image+0x145bc>
   21f24:	e555323e 	ldrb	r3, [r5, #-574]	; 0xfffffdc2
   21f28:	e555123d 	ldrb	r1, [r5, #-573]	; 0xfffffdc3
   21f2c:	e59f0270 	ldr	r0, [pc, #624]	; 221a4 <initrd_image+0x141a4>
   21f30:	e0831401 	add	r1, r3, r1, lsl #8
   21f34:	e08f0000 	add	r0, pc, r0
   21f38:	eb00019f 	bl	225bc <initrd_image+0x145bc>
   21f3c:	e555323c 	ldrb	r3, [r5, #-572]	; 0xfffffdc4
   21f40:	e555123b 	ldrb	r1, [r5, #-571]	; 0xfffffdc5
   21f44:	e59f025c 	ldr	r0, [pc, #604]	; 221a8 <initrd_image+0x141a8>
   21f48:	e0831401 	add	r1, r3, r1, lsl #8
   21f4c:	e08f0000 	add	r0, pc, r0
   21f50:	eb000199 	bl	225bc <initrd_image+0x145bc>
   21f54:	e555323a 	ldrb	r3, [r5, #-570]	; 0xfffffdc6
   21f58:	e5551239 	ldrb	r1, [r5, #-569]	; 0xfffffdc7
   21f5c:	e59f0248 	ldr	r0, [pc, #584]	; 221ac <initrd_image+0x141ac>
   21f60:	e0831401 	add	r1, r3, r1, lsl #8
   21f64:	e08f0000 	add	r0, pc, r0
   21f68:	eb000193 	bl	225bc <initrd_image+0x145bc>
   21f6c:	e5553238 	ldrb	r3, [r5, #-568]	; 0xfffffdc8
   21f70:	e5551237 	ldrb	r1, [r5, #-567]	; 0xfffffdc9
   21f74:	e59f0234 	ldr	r0, [pc, #564]	; 221b0 <initrd_image+0x141b0>
   21f78:	e0831401 	add	r1, r3, r1, lsl #8
   21f7c:	e08f0000 	add	r0, pc, r0
   21f80:	eb00018d 	bl	225bc <initrd_image+0x145bc>
   21f84:	e0444008 	sub	r4, r4, r8
   21f88:	e0573006 	subs	r3, r7, r6
   21f8c:	e58d3018 	str	r3, [sp, #24]
   21f90:	e2848001 	add	r8, r4, #1
   21f94:	4a000043 	bmi	220a8 <initrd_image+0x140a8>
   21f98:	e3a03000 	mov	r3, #0
   21f9c:	e59d2020 	ldr	r2, [sp, #32]
   21fa0:	e0844084 	add	r4, r4, r4, lsl #1
   21fa4:	e282b003 	add	fp, r2, #3
   21fa8:	e08b2004 	add	r2, fp, r4
   21fac:	e58d200c 	str	r2, [sp, #12]
   21fb0:	e0882088 	add	r2, r8, r8, lsl #1
   21fb4:	e58d201c 	str	r2, [sp, #28]
   21fb8:	e28d20b0 	add	r2, sp, #176	; 0xb0
   21fbc:	e58d3008 	str	r3, [sp, #8]
   21fc0:	e58d2024 	str	r2, [sp, #36]	; 0x24
   21fc4:	e28db02f 	add	fp, sp, #47	; 0x2f
   21fc8:	e58d3010 	str	r3, [sp, #16]
   21fcc:	e3a06000 	mov	r6, #0
   21fd0:	e59da024 	ldr	sl, [sp, #36]	; 0x24
   21fd4:	e58da014 	str	sl, [sp, #20]
   21fd8:	e3580000 	cmp	r8, #0
   21fdc:	c3a04000 	movgt	r4, #0
   21fe0:	da00000d 	ble	2201c <initrd_image+0x1401c>
   21fe4:	e3a02001 	mov	r2, #1
   21fe8:	e1a0100b 	mov	r1, fp
   21fec:	e1a00009 	mov	r0, r9
   21ff0:	eb000230 	bl	228b8 <initrd_image+0x148b8>
   21ff4:	e5553281 	ldrb	r3, [r5, #-641]	; 0xfffffd7f
   21ff8:	e20320c0 	and	r2, r3, #192	; 0xc0
   21ffc:	e35200c0 	cmp	r2, #192	; 0xc0
   22000:	10862104 	addne	r2, r6, r4, lsl #2
   22004:	10852102 	addne	r2, r5, r2, lsl #2
   22008:	15023200 	strne	r3, [r2, #-512]	; 0xfffffe00
   2200c:	12844001 	addne	r4, r4, #1
   22010:	0a00003f 	beq	22114 <initrd_image+0x14114>
   22014:	e1540008 	cmp	r4, r8
   22018:	bafffff1 	blt	21fe4 <initrd_image+0x13fe4>
   2201c:	e2866001 	add	r6, r6, #1
   22020:	e3560004 	cmp	r6, #4
   22024:	e28aa004 	add	sl, sl, #4
   22028:	1affffea 	bne	21fd8 <initrd_image+0x13fd8>
   2202c:	e3580000 	cmp	r8, #0
   22030:	e59d7014 	ldr	r7, [sp, #20]
   22034:	da00000e 	ble	22074 <initrd_image+0x14074>
   22038:	e59d3008 	ldr	r3, [sp, #8]
   2203c:	e59d2020 	ldr	r2, [sp, #32]
   22040:	e0833083 	add	r3, r3, r3, lsl #1
   22044:	e59d100c 	ldr	r1, [sp, #12]
   22048:	e0823003 	add	r3, r2, r3
   2204c:	e5972000 	ldr	r2, [r7]
   22050:	e2833003 	add	r3, r3, #3
   22054:	e5432003 	strb	r2, [r3, #-3]
   22058:	e5972004 	ldr	r2, [r7, #4]
   2205c:	e2877010 	add	r7, r7, #16
   22060:	e5432002 	strb	r2, [r3, #-2]
   22064:	e5172008 	ldr	r2, [r7, #-8]
   22068:	e5432001 	strb	r2, [r3, #-1]
   2206c:	e1530001 	cmp	r3, r1
   22070:	1afffff5 	bne	2204c <initrd_image+0x1404c>
   22074:	e59d3010 	ldr	r3, [sp, #16]
   22078:	e59d2018 	ldr	r2, [sp, #24]
   2207c:	e2833001 	add	r3, r3, #1
   22080:	e1520003 	cmp	r2, r3
   22084:	e58d3010 	str	r3, [sp, #16]
   22088:	e59d3008 	ldr	r3, [sp, #8]
   2208c:	e59d201c 	ldr	r2, [sp, #28]
   22090:	e0833008 	add	r3, r3, r8
   22094:	e58d3008 	str	r3, [sp, #8]
   22098:	e59d300c 	ldr	r3, [sp, #12]
   2209c:	e0833002 	add	r3, r3, r2
   220a0:	e58d300c 	str	r3, [sp, #12]
   220a4:	aaffffc8 	bge	21fcc <initrd_image+0x13fcc>
   220a8:	e1a00009 	mov	r0, r9
   220ac:	eb000210 	bl	228f4 <initrd_image+0x148f4>
   220b0:	e3a00000 	mov	r0, #0
   220b4:	e28dddca 	add	sp, sp, #12928	; 0x3280
   220b8:	e28dd034 	add	sp, sp, #52	; 0x34
   220bc:	e8bd8ff0 	pop	{r4, r5, r6, r7, r8, r9, sl, fp, pc}
   220c0:	e59f00ec 	ldr	r0, [pc, #236]	; 221b4 <initrd_image+0x141b4>
   220c4:	e08f0000 	add	r0, pc, r0
   220c8:	eb00013b 	bl	225bc <initrd_image+0x145bc>
   220cc:	eaffff70 	b	21e94 <initrd_image+0x13e94>
   220d0:	e59f00e0 	ldr	r0, [pc, #224]	; 221b8 <initrd_image+0x141b8>
   220d4:	e08f0000 	add	r0, pc, r0
   220d8:	eb000137 	bl	225bc <initrd_image+0x145bc>
   220dc:	eaffff6c 	b	21e94 <initrd_image+0x13e94>
   220e0:	e59f00d4 	ldr	r0, [pc, #212]	; 221bc <initrd_image+0x141bc>
   220e4:	e08f0000 	add	r0, pc, r0
   220e8:	eb000133 	bl	225bc <initrd_image+0x145bc>
   220ec:	eaffff68 	b	21e94 <initrd_image+0x13e94>
   220f0:	e59f00c8 	ldr	r0, [pc, #200]	; 221c0 <initrd_image+0x141c0>
   220f4:	e08f0000 	add	r0, pc, r0
   220f8:	eb00012f 	bl	225bc <initrd_image+0x145bc>
   220fc:	eaffff64 	b	21e94 <initrd_image+0x13e94>
   22100:	e59f00bc 	ldr	r0, [pc, #188]	; 221c4 <initrd_image+0x141c4>
   22104:	e1a0100a 	mov	r1, sl
   22108:	e08f0000 	add	r0, pc, r0
   2210c:	eb00012a 	bl	225bc <initrd_image+0x145bc>
   22110:	eaffff5f 	b	21e94 <initrd_image+0x13e94>
   22114:	e203703f 	and	r7, r3, #63	; 0x3f
   22118:	e3a02001 	mov	r2, #1
   2211c:	e1a0100b 	mov	r1, fp
   22120:	e1a00009 	mov	r0, r9
   22124:	eb0001e3 	bl	228b8 <initrd_image+0x148b8>
   22128:	e3570000 	cmp	r7, #0
   2212c:	0affffb8 	beq	22014 <initrd_image+0x14014>
   22130:	e5552281 	ldrb	r2, [r5, #-641]	; 0xfffffd7f
   22134:	e0873004 	add	r3, r7, r4
   22138:	e78a2204 	str	r2, [sl, r4, lsl #4]
   2213c:	e2844001 	add	r4, r4, #1
   22140:	e1540003 	cmp	r4, r3
   22144:	1afffffb 	bne	22138 <initrd_image+0x14138>
   22148:	eaffffb1 	b	22014 <initrd_image+0x14014>
   2214c:	e59f0074 	ldr	r0, [pc, #116]	; 221c8 <initrd_image+0x141c8>
   22150:	e08f0000 	add	r0, pc, r0
   22154:	eb000118 	bl	225bc <initrd_image+0x145bc>
   22158:	eaffff56 	b	21eb8 <initrd_image+0x13eb8>
   2215c:	e59f0068 	ldr	r0, [pc, #104]	; 221cc <initrd_image+0x141cc>
   22160:	e1a01004 	mov	r1, r4
   22164:	e08f0000 	add	r0, pc, r0
   22168:	eb000113 	bl	225bc <initrd_image+0x145bc>
   2216c:	e3e00000 	mvn	r0, #0
   22170:	eaffffcf 	b	220b4 <initrd_image+0x140b4>
   22174:	00000f9c 	muleq	r0, ip, pc	; <UNPREDICTABLE>
   22178:	00000f90 	muleq	r0, r0, pc	; <UNPREDICTABLE>
   2217c:	00000f90 	muleq	r0, r0, pc	; <UNPREDICTABLE>
   22180:	00000f4c 	andeq	r0, r0, ip, asr #30
   22184:	00000fa0 	andeq	r0, r0, r0, lsr #31
   22188:	00000fa8 	andeq	r0, r0, r8, lsr #31
   2218c:	00000f20 	andeq	r0, r0, r0, lsr #30
   22190:	00000f94 	muleq	r0, r4, pc	; <UNPREDICTABLE>
   22194:	00000f94 	muleq	r0, r4, pc	; <UNPREDICTABLE>
   22198:	00000f9c 	muleq	r0, ip, pc	; <UNPREDICTABLE>
   2219c:	00000f98 	muleq	r0, r8, pc	; <UNPREDICTABLE>
   221a0:	00000f9c 	muleq	r0, ip, pc	; <UNPREDICTABLE>
   221a4:	00000fa4 	andeq	r0, r0, r4, lsr #31
   221a8:	00000fa0 	andeq	r0, r0, r0, lsr #31
   221ac:	00000f9c 	muleq	r0, ip, pc	; <UNPREDICTABLE>
   221b0:	00000f98 	muleq	r0, r8, pc	; <UNPREDICTABLE>
   221b4:	00000d24 	andeq	r0, r0, r4, lsr #26
   221b8:	00000d1c 	andeq	r0, r0, ip, lsl sp
   221bc:	00000d1c 	andeq	r0, r0, ip, lsl sp
   221c0:	00000d20 	andeq	r0, r0, r0, lsr #26
   221c4:	00000d2c 	andeq	r0, r0, ip, lsr #26
   221c8:	00000cfc 	strdeq	r0, [r0], -ip
   221cc:	00000c34 	andeq	r0, r0, r4, lsr ip
   221d0:	e5d13000 	ldrb	r3, [r1]
   221d4:	e3530000 	cmp	r3, #0
   221d8:	0a0000f4 	beq	225b0 <initrd_image+0x145b0>
   221dc:	e92d4ff0 	push	{r4, r5, r6, r7, r8, r9, sl, fp, lr}
   221e0:	e24dd024 	sub	sp, sp, #36	; 0x24
   221e4:	e1a08002 	mov	r8, r2
   221e8:	e28d200c 	add	r2, sp, #12
   221ec:	e1a0a000 	mov	sl, r0
   221f0:	e59f93c0 	ldr	r9, [pc, #960]	; 225b8 <initrd_image+0x145b8>
   221f4:	e3a00000 	mov	r0, #0
   221f8:	e58d2004 	str	r2, [sp, #4]
   221fc:	ea000009 	b	22228 <initrd_image+0x14228>
   22200:	e7ca3000 	strb	r3, [sl, r0]
   22204:	e2800001 	add	r0, r0, #1
   22208:	e3500c01 	cmp	r0, #256	; 0x100
   2220c:	0a0000a6 	beq	224ac <initrd_image+0x144ac>
   22210:	e2811001 	add	r1, r1, #1
   22214:	e35000ff 	cmp	r0, #255	; 0xff
   22218:	0a000037 	beq	222fc <initrd_image+0x142fc>
   2221c:	e5d13000 	ldrb	r3, [r1]
   22220:	e3530000 	cmp	r3, #0
   22224:	0a000034 	beq	222fc <initrd_image+0x142fc>
   22228:	e3530025 	cmp	r3, #37	; 0x25
   2222c:	1afffff3 	bne	22200 <initrd_image+0x14200>
   22230:	e5d13001 	ldrb	r3, [r1, #1]
   22234:	e243c030 	sub	ip, r3, #48	; 0x30
   22238:	e6efc07c 	uxtb	ip, ip
   2223c:	e35c0009 	cmp	ip, #9
   22240:	83a0c000 	movhi	ip, #0
   22244:	83a0b020 	movhi	fp, #32
   22248:	82811001 	addhi	r1, r1, #1
   2224c:	9a000045 	bls	22368 <initrd_image+0x14368>
   22250:	e3530069 	cmp	r3, #105	; 0x69
   22254:	13530064 	cmpne	r3, #100	; 0x64
   22258:	1a000029 	bne	22304 <initrd_image+0x14304>
   2225c:	e4983004 	ldr	r3, [r8], #4
   22260:	e2811001 	add	r1, r1, #1
   22264:	e3530000 	cmp	r3, #0
   22268:	a3a07000 	movge	r7, #0
   2226c:	ba00004e 	blt	223ac <initrd_image+0x143ac>
   22270:	e3a05009 	mov	r5, #9
   22274:	e2877009 	add	r7, r7, #9
   22278:	e28d6016 	add	r6, sp, #22
   2227c:	e0842399 	umull	r2, r4, r9, r3
   22280:	e1a041a4 	lsr	r4, r4, #3
   22284:	e0842104 	add	r2, r4, r4, lsl #2
   22288:	e0432082 	sub	r2, r3, r2, lsl #1
   2228c:	e1a0e005 	mov	lr, r5
   22290:	e2822030 	add	r2, r2, #48	; 0x30
   22294:	e2455001 	sub	r5, r5, #1
   22298:	e3530009 	cmp	r3, #9
   2229c:	e6ef2072 	uxtb	r2, r2
   222a0:	e1a03004 	mov	r3, r4
   222a4:	e0474005 	sub	r4, r7, r5
   222a8:	e5662001 	strb	r2, [r6, #-1]!
   222ac:	e6ef4074 	uxtb	r4, r4
   222b0:	8afffff1 	bhi	2227c <initrd_image+0x1427c>
   222b4:	e15c0004 	cmp	ip, r4
   222b8:	8a000043 	bhi	223cc <initrd_image+0x143cc>
   222bc:	e59d4004 	ldr	r4, [sp, #4]
   222c0:	e26ec00a 	rsb	ip, lr, #10
   222c4:	e2403001 	sub	r3, r0, #1
   222c8:	e08a3003 	add	r3, sl, r3
   222cc:	e084e00e 	add	lr, r4, lr
   222d0:	e08cc000 	add	ip, ip, r0
   222d4:	ea000000 	b	222dc <initrd_image+0x142dc>
   222d8:	e5fe2001 	ldrb	r2, [lr, #1]!
   222dc:	e2800001 	add	r0, r0, #1
   222e0:	e3500c01 	cmp	r0, #256	; 0x100
   222e4:	e5e32001 	strb	r2, [r3, #1]!
   222e8:	0affffcb 	beq	2221c <initrd_image+0x1421c>
   222ec:	e15c0000 	cmp	ip, r0
   222f0:	1afffff8 	bne	222d8 <initrd_image+0x142d8>
   222f4:	e35000ff 	cmp	r0, #255	; 0xff
   222f8:	1affffc7 	bne	2221c <initrd_image+0x1421c>
   222fc:	e28dd024 	add	sp, sp, #36	; 0x24
   22300:	e8bd8ff0 	pop	{r4, r5, r6, r7, r8, r9, sl, fp, pc}
   22304:	e353006c 	cmp	r3, #108	; 0x6c
   22308:	0a00006a 	beq	224b8 <initrd_image+0x144b8>
   2230c:	e20320f7 	and	r2, r3, #247	; 0xf7
   22310:	e3520070 	cmp	r2, #112	; 0x70
   22314:	0a00003d 	beq	22410 <initrd_image+0x14410>
   22318:	e3530063 	cmp	r3, #99	; 0x63
   2231c:	0a00005c 	beq	22494 <initrd_image+0x14494>
   22320:	e3530025 	cmp	r3, #37	; 0x25
   22324:	0a000089 	beq	22550 <initrd_image+0x14550>
   22328:	e3530073 	cmp	r3, #115	; 0x73
   2232c:	1affffb8 	bne	22214 <initrd_image+0x14214>
   22330:	e498c004 	ldr	ip, [r8], #4
   22334:	e2402001 	sub	r2, r0, #1
   22338:	e2811001 	add	r1, r1, #1
   2233c:	e08a2002 	add	r2, sl, r2
   22340:	e04cc000 	sub	ip, ip, r0
   22344:	ea000003 	b	22358 <initrd_image+0x14358>
   22348:	e2800001 	add	r0, r0, #1
   2234c:	e3500c01 	cmp	r0, #256	; 0x100
   22350:	e5e23001 	strb	r3, [r2, #1]!
   22354:	0affffb0 	beq	2221c <initrd_image+0x1421c>
   22358:	e7dc3000 	ldrb	r3, [ip, r0]
   2235c:	e3530000 	cmp	r3, #0
   22360:	1afffff8 	bne	22348 <initrd_image+0x14348>
   22364:	eaffffaa 	b	22214 <initrd_image+0x14214>
   22368:	e3530030 	cmp	r3, #48	; 0x30
   2236c:	e5d13002 	ldrb	r3, [r1, #2]
   22370:	03a0b030 	moveq	fp, #48	; 0x30
   22374:	e2432030 	sub	r2, r3, #48	; 0x30
   22378:	13a0b020 	movne	fp, #32
   2237c:	e3520009 	cmp	r2, #9
   22380:	e2811002 	add	r1, r1, #2
   22384:	8affffb1 	bhi	22250 <initrd_image+0x14250>
   22388:	e08cc10c 	add	ip, ip, ip, lsl #2
   2238c:	e083c08c 	add	ip, r3, ip, lsl #1
   22390:	e5f13001 	ldrb	r3, [r1, #1]!
   22394:	e24cc030 	sub	ip, ip, #48	; 0x30
   22398:	e2432030 	sub	r2, r3, #48	; 0x30
   2239c:	e3520009 	cmp	r2, #9
   223a0:	e20cc0ff 	and	ip, ip, #255	; 0xff
   223a4:	9afffff7 	bls	22388 <initrd_image+0x14388>
   223a8:	eaffffa8 	b	22250 <initrd_image+0x14250>
   223ac:	e3a0202d 	mov	r2, #45	; 0x2d
   223b0:	e7ca2000 	strb	r2, [sl, r0]
   223b4:	e2800001 	add	r0, r0, #1
   223b8:	e3500c01 	cmp	r0, #256	; 0x100
   223bc:	0a00003a 	beq	224ac <initrd_image+0x144ac>
   223c0:	e3a07001 	mov	r7, #1
   223c4:	e2633000 	rsb	r3, r3, #0
   223c8:	eaffffa8 	b	22270 <initrd_image+0x14270>
   223cc:	e04c4004 	sub	r4, ip, r4
   223d0:	e3540000 	cmp	r4, #0
   223d4:	daffffb8 	ble	222bc <initrd_image+0x142bc>
   223d8:	e35000ff 	cmp	r0, #255	; 0xff
   223dc:	e7cab000 	strb	fp, [sl, r0]
   223e0:	e08ac000 	add	ip, sl, r0
   223e4:	e2803001 	add	r3, r0, #1
   223e8:	0a000006 	beq	22408 <initrd_image+0x14408>
   223ec:	e0840000 	add	r0, r4, r0
   223f0:	e1500003 	cmp	r0, r3
   223f4:	e2833001 	add	r3, r3, #1
   223f8:	0affffaf 	beq	222bc <initrd_image+0x142bc>
   223fc:	e3530c01 	cmp	r3, #256	; 0x100
   22400:	e5ecb001 	strb	fp, [ip, #1]!
   22404:	1afffff9 	bne	223f0 <initrd_image+0x143f0>
   22408:	e3a00c01 	mov	r0, #256	; 0x100
   2240c:	eaffffaa 	b	222bc <initrd_image+0x142bc>
   22410:	e3a0e009 	mov	lr, #9
   22414:	e4982004 	ldr	r2, [r8], #4
   22418:	e2811001 	add	r1, r1, #1
   2241c:	e28d5016 	add	r5, sp, #22
   22420:	ea000000 	b	22428 <initrd_image+0x14428>
   22424:	e1a0e006 	mov	lr, r6
   22428:	e202300f 	and	r3, r2, #15
   2242c:	e3530009 	cmp	r3, #9
   22430:	92833030 	addls	r3, r3, #48	; 0x30
   22434:	82833057 	addhi	r3, r3, #87	; 0x57
   22438:	e26e400a 	rsb	r4, lr, #10
   2243c:	e352000f 	cmp	r2, #15
   22440:	e24e6001 	sub	r6, lr, #1
   22444:	e1a02222 	lsr	r2, r2, #4
   22448:	e5653001 	strb	r3, [r5, #-1]!
   2244c:	e6ef7074 	uxtb	r7, r4
   22450:	8afffff3 	bhi	22424 <initrd_image+0x14424>
   22454:	e15c0007 	cmp	ip, r7
   22458:	8a000042 	bhi	22568 <initrd_image+0x14568>
   2245c:	e59d2004 	ldr	r2, [sp, #4]
   22460:	e0844000 	add	r4, r4, r0
   22464:	e082e00e 	add	lr, r2, lr
   22468:	e2402001 	sub	r2, r0, #1
   2246c:	e08a2002 	add	r2, sl, r2
   22470:	ea000000 	b	22478 <initrd_image+0x14478>
   22474:	e5fe3001 	ldrb	r3, [lr, #1]!
   22478:	e2800001 	add	r0, r0, #1
   2247c:	e3500c01 	cmp	r0, #256	; 0x100
   22480:	e5e23001 	strb	r3, [r2, #1]!
   22484:	0affff64 	beq	2221c <initrd_image+0x1421c>
   22488:	e1500004 	cmp	r0, r4
   2248c:	1afffff8 	bne	22474 <initrd_image+0x14474>
   22490:	eaffff5f 	b	22214 <initrd_image+0x14214>
   22494:	e4983004 	ldr	r3, [r8], #4
   22498:	e2811001 	add	r1, r1, #1
   2249c:	e7ca3000 	strb	r3, [sl, r0]
   224a0:	e2800001 	add	r0, r0, #1
   224a4:	e3500c01 	cmp	r0, #256	; 0x100
   224a8:	1affff59 	bne	22214 <initrd_image+0x14214>
   224ac:	e3a00c01 	mov	r0, #256	; 0x100
   224b0:	e28dd024 	add	sp, sp, #36	; 0x24
   224b4:	e8bd8ff0 	pop	{r4, r5, r6, r7, r8, r9, sl, fp, pc}
   224b8:	e2888007 	add	r8, r8, #7
   224bc:	e3c88007 	bic	r8, r8, #7
   224c0:	e598c004 	ldr	ip, [r8, #4]
   224c4:	e3a0e011 	mov	lr, #17
   224c8:	e4983008 	ldr	r3, [r8], #8
   224cc:	e2811003 	add	r1, r1, #3
   224d0:	e28d401e 	add	r4, sp, #30
   224d4:	ea000000 	b	224dc <initrd_image+0x144dc>
   224d8:	e1a0e005 	mov	lr, r5
   224dc:	e3a05000 	mov	r5, #0
   224e0:	e203200f 	and	r2, r3, #15
   224e4:	e352000a 	cmp	r2, #10
   224e8:	e2d55000 	sbcs	r5, r5, #0
   224ec:	32822030 	addcc	r2, r2, #48	; 0x30
   224f0:	22822057 	addcs	r2, r2, #87	; 0x57
   224f4:	e3530010 	cmp	r3, #16
   224f8:	e2dc5000 	sbcs	r5, ip, #0
   224fc:	e1a03223 	lsr	r3, r3, #4
   22500:	e1833e0c 	orr	r3, r3, ip, lsl #28
   22504:	e24e5001 	sub	r5, lr, #1
   22508:	e1a0c22c 	lsr	ip, ip, #4
   2250c:	e5642001 	strb	r2, [r4, #-1]!
   22510:	2afffff0 	bcs	224d8 <initrd_image+0x144d8>
   22514:	e59d3004 	ldr	r3, [sp, #4]
   22518:	e240c001 	sub	ip, r0, #1
   2251c:	e2804012 	add	r4, r0, #18
   22520:	e08ac00c 	add	ip, sl, ip
   22524:	e044400e 	sub	r4, r4, lr
   22528:	e083300e 	add	r3, r3, lr
   2252c:	ea000000 	b	22534 <initrd_image+0x14534>
   22530:	e5f32001 	ldrb	r2, [r3, #1]!
   22534:	e2800001 	add	r0, r0, #1
   22538:	e3500c01 	cmp	r0, #256	; 0x100
   2253c:	e5ec2001 	strb	r2, [ip, #1]!
   22540:	0affff35 	beq	2221c <initrd_image+0x1421c>
   22544:	e1500004 	cmp	r0, r4
   22548:	1afffff8 	bne	22530 <initrd_image+0x14530>
   2254c:	eaffff30 	b	22214 <initrd_image+0x14214>
   22550:	e7ca3000 	strb	r3, [sl, r0]
   22554:	e2800001 	add	r0, r0, #1
   22558:	e3500c01 	cmp	r0, #256	; 0x100
   2255c:	e2811001 	add	r1, r1, #1
   22560:	1affff2b 	bne	22214 <initrd_image+0x14214>
   22564:	eaffffd0 	b	224ac <initrd_image+0x144ac>
   22568:	e04cc007 	sub	ip, ip, r7
   2256c:	e35c0000 	cmp	ip, #0
   22570:	daffffb9 	ble	2245c <initrd_image+0x1445c>
   22574:	e35000ff 	cmp	r0, #255	; 0xff
   22578:	e7cab000 	strb	fp, [sl, r0]
   2257c:	e08a5000 	add	r5, sl, r0
   22580:	e2802001 	add	r2, r0, #1
   22584:	0a000007 	beq	225a8 <initrd_image+0x145a8>
   22588:	e08c0000 	add	r0, ip, r0
   2258c:	e1a0c005 	mov	ip, r5
   22590:	e1520000 	cmp	r2, r0
   22594:	e2822001 	add	r2, r2, #1
   22598:	0affffaf 	beq	2245c <initrd_image+0x1445c>
   2259c:	e3520c01 	cmp	r2, #256	; 0x100
   225a0:	e5ecb001 	strb	fp, [ip, #1]!
   225a4:	1afffff9 	bne	22590 <initrd_image+0x14590>
   225a8:	e3a00c01 	mov	r0, #256	; 0x100
   225ac:	eaffffaa 	b	2245c <initrd_image+0x1445c>
   225b0:	e1a00003 	mov	r0, r3
   225b4:	e12fff1e 	bx	lr
   225b8:	cccccccd 	stclgt	12, cr12, [ip], {205}	; 0xcd
   225bc:	e92d000f 	push	{r0, r1, r2, r3}
   225c0:	e92d4030 	push	{r4, r5, lr}
   225c4:	e24ddf43 	sub	sp, sp, #268	; 0x10c
   225c8:	e28d5008 	add	r5, sp, #8
   225cc:	e28d2f47 	add	r2, sp, #284	; 0x11c
   225d0:	e59d1118 	ldr	r1, [sp, #280]	; 0x118
   225d4:	e1a00005 	mov	r0, r5
   225d8:	e58d2004 	str	r2, [sp, #4]
   225dc:	ebfffefb 	bl	221d0 <initrd_image+0x141d0>
   225e0:	e1a04000 	mov	r4, r0
   225e4:	e1a01005 	mov	r1, r5
   225e8:	e1a02004 	mov	r2, r4
   225ec:	e3a00001 	mov	r0, #1
   225f0:	eb0000b5 	bl	228cc <initrd_image+0x148cc>
   225f4:	e1a00004 	mov	r0, r4
   225f8:	e28ddf43 	add	sp, sp, #268	; 0x10c
   225fc:	e8bd4030 	pop	{r4, r5, lr}
   22600:	e28dd010 	add	sp, sp, #16
   22604:	e12fff1e 	bx	lr
   22608:	e92d000e 	push	{r1, r2, r3}
   2260c:	e92d4010 	push	{r4, lr}
   22610:	e24dd00c 	sub	sp, sp, #12
   22614:	e28d2018 	add	r2, sp, #24
   22618:	e59d1014 	ldr	r1, [sp, #20]
   2261c:	e1a04000 	mov	r4, r0
   22620:	e58d2004 	str	r2, [sp, #4]
   22624:	ebfffee9 	bl	221d0 <initrd_image+0x141d0>
   22628:	e3a02000 	mov	r2, #0
   2262c:	e7c42000 	strb	r2, [r4, r0]
   22630:	e28dd00c 	add	sp, sp, #12
   22634:	e8bd4010 	pop	{r4, lr}
   22638:	e28dd00c 	add	sp, sp, #12
   2263c:	e12fff1e 	bx	lr
   22640:	e3a02001 	mov	r2, #1
   22644:	e52de004 	push	{lr}		; (str lr, [sp, #-4]!)
   22648:	e24dd00c 	sub	sp, sp, #12
   2264c:	e58d0004 	str	r0, [sp, #4]
   22650:	e28d1004 	add	r1, sp, #4
   22654:	e1a00002 	mov	r0, r2
   22658:	eb00009b 	bl	228cc <initrd_image+0x148cc>
   2265c:	e28dd00c 	add	sp, sp, #12
   22660:	e49df004 	pop	{pc}		; (ldr pc, [sp], #4)
   22664:	e3a00000 	mov	r0, #0
   22668:	e52de004 	push	{lr}		; (str lr, [sp, #-4]!)
   2266c:	e24dd00c 	sub	sp, sp, #12
   22670:	e3a02001 	mov	r2, #1
   22674:	e28d1004 	add	r1, sp, #4
   22678:	e58d0004 	str	r0, [sp, #4]
   2267c:	eb00008d 	bl	228b8 <initrd_image+0x148b8>
   22680:	e59d0004 	ldr	r0, [sp, #4]
   22684:	e28dd00c 	add	sp, sp, #12
   22688:	e49df004 	pop	{pc}		; (ldr pc, [sp], #4)
   2268c:	e3520000 	cmp	r2, #0
   22690:	0a00000d 	beq	226cc <initrd_image+0x146cc>
   22694:	e92d4010 	push	{r4, lr}
   22698:	e1a04000 	mov	r4, r0
   2269c:	e240c001 	sub	ip, r0, #1
   226a0:	e241e001 	sub	lr, r1, #1
   226a4:	e1a0300c 	mov	r3, ip
   226a8:	e5fe1001 	ldrb	r1, [lr, #1]!
   226ac:	e5fc0001 	ldrb	r0, [ip, #1]!
   226b0:	e0500001 	subs	r0, r0, r1
   226b4:	18bd8010 	popne	{r4, pc}
   226b8:	e2833002 	add	r3, r3, #2
   226bc:	e0433004 	sub	r3, r3, r4
   226c0:	e1520003 	cmp	r2, r3
   226c4:	1afffff6 	bne	226a4 <initrd_image+0x146a4>
   226c8:	e8bd8010 	pop	{r4, pc}
   226cc:	e1a00002 	mov	r0, r2
   226d0:	e12fff1e 	bx	lr
   226d4:	e1a03000 	mov	r3, r0
   226d8:	e5d00000 	ldrb	r0, [r0]
   226dc:	e3500000 	cmp	r0, #0
   226e0:	012fff1e 	bxeq	lr
   226e4:	e2631001 	rsb	r1, r3, #1
   226e8:	e0810003 	add	r0, r1, r3
   226ec:	e5f32001 	ldrb	r2, [r3, #1]!
   226f0:	e3520000 	cmp	r2, #0
   226f4:	1afffffb 	bne	226e8 <initrd_image+0x146e8>
   226f8:	e12fff1e 	bx	lr
   226fc:	e5d03000 	ldrb	r3, [r0]
   22700:	e1a02000 	mov	r2, r0
   22704:	e3530000 	cmp	r3, #0
   22708:	0a000007 	beq	2272c <initrd_image+0x1472c>
   2270c:	e3a00000 	mov	r0, #0
   22710:	e2431030 	sub	r1, r3, #48	; 0x30
   22714:	e5f23001 	ldrb	r3, [r2, #1]!
   22718:	e0800100 	add	r0, r0, r0, lsl #2
   2271c:	e3530000 	cmp	r3, #0
   22720:	e0810080 	add	r0, r1, r0, lsl #1
   22724:	1afffff9 	bne	22710 <initrd_image+0x14710>
   22728:	e12fff1e 	bx	lr
   2272c:	e1a00003 	mov	r0, r3
   22730:	e12fff1e 	bx	lr
   22734:	e92d41f0 	push	{r4, r5, r6, r7, r8, lr}
   22738:	e2103003 	ands	r3, r0, #3
   2273c:	e1a0c000 	mov	ip, r0
   22740:	0a000006 	beq	22760 <initrd_image+0x14760>
   22744:	e2522004 	subs	r2, r2, #4
   22748:	ba00001a 	blt	227b8 <initrd_image+0x147b8>
   2274c:	e3530002 	cmp	r3, #2
   22750:	b4cc1001 	strblt	r1, [ip], #1
   22754:	d4cc1001 	strble	r1, [ip], #1
   22758:	e4cc1001 	strb	r1, [ip], #1
   2275c:	e0822003 	add	r2, r2, r3
   22760:	e1811401 	orr	r1, r1, r1, lsl #8
   22764:	e1811801 	orr	r1, r1, r1, lsl #16
   22768:	e1a03001 	mov	r3, r1
   2276c:	e1a04001 	mov	r4, r1
   22770:	e1a05001 	mov	r5, r1
   22774:	e1a06001 	mov	r6, r1
   22778:	e1a07001 	mov	r7, r1
   2277c:	e1a08001 	mov	r8, r1
   22780:	e1a0e001 	mov	lr, r1
   22784:	e2522040 	subs	r2, r2, #64	; 0x40
   22788:	a8ac41fa 	stmiage	ip!, {r1, r3, r4, r5, r6, r7, r8, lr}
   2278c:	a8ac41fa 	stmiage	ip!, {r1, r3, r4, r5, r6, r7, r8, lr}
   22790:	cafffffb 	bgt	22784 <initrd_image+0x14784>
   22794:	0a00000c 	beq	227cc <initrd_image+0x147cc>
   22798:	e3120020 	tst	r2, #32
   2279c:	18ac41fa 	stmiane	ip!, {r1, r3, r4, r5, r6, r7, r8, lr}
   227a0:	e3120010 	tst	r2, #16
   227a4:	18ac00f0 	stmiane	ip!, {r4, r5, r6, r7}
   227a8:	e3120008 	tst	r2, #8
   227ac:	18ac000a 	stmiane	ip!, {r1, r3}
   227b0:	e3120004 	tst	r2, #4
   227b4:	148c1004 	strne	r1, [ip], #4
   227b8:	e3120002 	tst	r2, #2
   227bc:	14cc1001 	strbne	r1, [ip], #1
   227c0:	14cc1001 	strbne	r1, [ip], #1
   227c4:	e3120001 	tst	r2, #1
   227c8:	14cc1001 	strbne	r1, [ip], #1
   227cc:	e8bd41f0 	pop	{r4, r5, r6, r7, r8, lr}
   227d0:	e12fff1e 	bx	lr
   227d4:	e350006e 	cmp	r0, #110	; 0x6e
   227d8:	e52d7004 	push	{r7}		; (str r7, [sp, #-4]!)
   227dc:	03a00001 	moveq	r0, #1
   227e0:	e3a07a02 	mov	r7, #8192	; 0x2000
   227e4:	0a000001 	beq	227f0 <initrd_image+0x147f0>
   227e8:	e3500066 	cmp	r0, #102	; 0x66
   227ec:	03a00000 	moveq	r0, #0
   227f0:	ef000000 	svc	0x00000000
   227f4:	e49d7004 	pop	{r7}		; (ldr r7, [sp], #4)
   227f8:	e12fff1e 	bx	lr
   227fc:	e52d7004 	push	{r7}		; (str r7, [sp, #-4]!)
   22800:	e59f7008 	ldr	r7, [pc, #8]	; 22810 <initrd_image+0x14810>
   22804:	ef000000 	svc	0x00000000
   22808:	e49d7004 	pop	{r7}		; (ldr r7, [sp], #4)
   2280c:	e12fff1e 	bx	lr
   22810:	00002003 	andeq	r2, r0, r3
   22814:	e52d7004 	push	{r7}		; (str r7, [sp, #-4]!)
   22818:	e59f7008 	ldr	r7, [pc, #8]	; 22828 <initrd_image+0x14828>
   2281c:	ef000000 	svc	0x00000000
   22820:	e49d7004 	pop	{r7}		; (ldr r7, [sp], #4)
   22824:	e12fff1e 	bx	lr
   22828:	00002001 	andeq	r2, r0, r1
   2282c:	e52d7004 	push	{r7}		; (str r7, [sp, #-4]!)
   22830:	e59f7008 	ldr	r7, [pc, #8]	; 22840 <initrd_image+0x14840>
   22834:	ef000000 	svc	0x00000000
   22838:	e49d7004 	pop	{r7}		; (ldr r7, [sp], #4)
   2283c:	e12fff1e 	bx	lr
   22840:	00002002 	andeq	r2, r0, r2
   22844:	e52d7004 	push	{r7}		; (str r7, [sp, #-4]!)
   22848:	e59f7008 	ldr	r7, [pc, #8]	; 22858 <initrd_image+0x14858>
   2284c:	ef000000 	svc	0x00000000
   22850:	e49d7004 	pop	{r7}		; (ldr r7, [sp], #4)
   22854:	e12fff1e 	bx	lr
   22858:	00002008 	andeq	r2, r0, r8
   2285c:	e52d7004 	push	{r7}		; (str r7, [sp, #-4]!)
   22860:	e59f7008 	ldr	r7, [pc, #8]	; 22870 <initrd_image+0x14870>
   22864:	ef000000 	svc	0x00000000
   22868:	e49d7004 	pop	{r7}		; (ldr r7, [sp], #4)
   2286c:	e12fff1e 	bx	lr
   22870:	00002006 	andeq	r2, r0, r6
   22874:	e52d7004 	push	{r7}		; (str r7, [sp, #-4]!)
   22878:	e59f7008 	ldr	r7, [pc, #8]	; 22888 <initrd_image+0x14888>
   2287c:	ef000000 	svc	0x00000000
   22880:	e49d7004 	pop	{r7}		; (ldr r7, [sp], #4)
   22884:	e12fff1e 	bx	lr
   22888:	00002007 	andeq	r2, r0, r7
   2288c:	e52d7004 	push	{r7}		; (str r7, [sp, #-4]!)
   22890:	e59f7008 	ldr	r7, [pc, #8]	; 228a0 <initrd_image+0x148a0>
   22894:	ef000000 	svc	0x00000000
   22898:	e49d7004 	pop	{r7}		; (ldr r7, [sp], #4)
   2289c:	e12fff1e 	bx	lr
   228a0:	00002009 	andeq	r2, r0, r9
   228a4:	e52d7004 	push	{r7}		; (str r7, [sp, #-4]!)
   228a8:	e3a07001 	mov	r7, #1
   228ac:	ef000000 	svc	0x00000000
   228b0:	e49d7004 	pop	{r7}		; (ldr r7, [sp], #4)
   228b4:	e12fff1e 	bx	lr
   228b8:	e52d7004 	push	{r7}		; (str r7, [sp, #-4]!)
   228bc:	e3a07003 	mov	r7, #3
   228c0:	ef000000 	svc	0x00000000
   228c4:	e49d7004 	pop	{r7}		; (ldr r7, [sp], #4)
   228c8:	e12fff1e 	bx	lr
   228cc:	e52d7004 	push	{r7}		; (str r7, [sp, #-4]!)
   228d0:	e3a07004 	mov	r7, #4
   228d4:	ef000000 	svc	0x00000000
   228d8:	e49d7004 	pop	{r7}		; (ldr r7, [sp], #4)
   228dc:	e12fff1e 	bx	lr
   228e0:	e52d7004 	push	{r7}		; (str r7, [sp, #-4]!)
   228e4:	e3a07005 	mov	r7, #5
   228e8:	ef000000 	svc	0x00000000
   228ec:	e49d7004 	pop	{r7}		; (ldr r7, [sp], #4)
   228f0:	e12fff1e 	bx	lr
   228f4:	e52d7004 	push	{r7}		; (str r7, [sp, #-4]!)
   228f8:	e3a07006 	mov	r7, #6
   228fc:	ef000000 	svc	0x00000000
   22900:	e49d7004 	pop	{r7}		; (ldr r7, [sp], #4)
   22904:	e12fff1e 	bx	lr
   22908:	e52d7004 	push	{r7}		; (str r7, [sp, #-4]!)
   2290c:	e3a07007 	mov	r7, #7
   22910:	ef000000 	svc	0x00000000
   22914:	e49d7004 	pop	{r7}		; (ldr r7, [sp], #4)
   22918:	e12fff1e 	bx	lr
   2291c:	e52d7004 	push	{r7}		; (str r7, [sp, #-4]!)
   22920:	e3a0700b 	mov	r7, #11
   22924:	ef000000 	svc	0x00000000
   22928:	e49d7004 	pop	{r7}		; (ldr r7, [sp], #4)
   2292c:	e12fff1e 	bx	lr
   22930:	e52d7004 	push	{r7}		; (str r7, [sp, #-4]!)
   22934:	e3a0700c 	mov	r7, #12
   22938:	ef000000 	svc	0x00000000
   2293c:	e49d7004 	pop	{r7}		; (ldr r7, [sp], #4)
   22940:	e12fff1e 	bx	lr
   22944:	e52d7004 	push	{r7}		; (str r7, [sp, #-4]!)
   22948:	e3a070b7 	mov	r7, #183	; 0xb7
   2294c:	ef000000 	svc	0x00000000
   22950:	e49d7004 	pop	{r7}		; (ldr r7, [sp], #4)
   22954:	e12fff1e 	bx	lr
   22958:	e52d7004 	push	{r7}		; (str r7, [sp, #-4]!)
   2295c:	e3a07014 	mov	r7, #20
   22960:	ef000000 	svc	0x00000000
   22964:	e49d7004 	pop	{r7}		; (ldr r7, [sp], #4)
   22968:	e12fff1e 	bx	lr
   2296c:	e52d7004 	push	{r7}		; (str r7, [sp, #-4]!)
   22970:	e3a0702b 	mov	r7, #43	; 0x2b
   22974:	ef000000 	svc	0x00000000
   22978:	e49d7004 	pop	{r7}		; (ldr r7, [sp], #4)
   2297c:	e12fff1e 	bx	lr
   22980:	e52d7004 	push	{r7}		; (str r7, [sp, #-4]!)
   22984:	e3a0706a 	mov	r7, #106	; 0x6a
   22988:	ef000000 	svc	0x00000000
   2298c:	e49d7004 	pop	{r7}		; (ldr r7, [sp], #4)
   22990:	e12fff1e 	bx	lr
   22994:	e52d7004 	push	{r7}		; (str r7, [sp, #-4]!)
   22998:	e3a07074 	mov	r7, #116	; 0x74
   2299c:	ef000000 	svc	0x00000000
   229a0:	e49d7004 	pop	{r7}		; (ldr r7, [sp], #4)
   229a4:	e12fff1e 	bx	lr
   229a8:	e52d7004 	push	{r7}		; (str r7, [sp, #-4]!)
   229ac:	e3a0707a 	mov	r7, #122	; 0x7a
   229b0:	ef000000 	svc	0x00000000
   229b4:	e49d7004 	pop	{r7}		; (ldr r7, [sp], #4)
   229b8:	e12fff1e 	bx	lr
   229bc:	e52d7004 	push	{r7}		; (str r7, [sp, #-4]!)
   229c0:	e3a0708d 	mov	r7, #141	; 0x8d
   229c4:	ef000000 	svc	0x00000000
   229c8:	e49d7004 	pop	{r7}		; (ldr r7, [sp], #4)
   229cc:	e12fff1e 	bx	lr
   229d0:	e52d7004 	push	{r7}		; (str r7, [sp, #-4]!)
   229d4:	e3a070a2 	mov	r7, #162	; 0xa2
   229d8:	ef000000 	svc	0x00000000
   229dc:	e49d7004 	pop	{r7}		; (ldr r7, [sp], #4)
   229e0:	e12fff1e 	bx	lr
   229e4:	e52d7004 	push	{r7}		; (str r7, [sp, #-4]!)
   229e8:	e3a070be 	mov	r7, #190	; 0xbe
   229ec:	ef000000 	svc	0x00000000
   229f0:	e49d7004 	pop	{r7}		; (ldr r7, [sp], #4)
   229f4:	e12fff1e 	bx	lr
   229f8:	e52d7004 	push	{r7}		; (str r7, [sp, #-4]!)
   229fc:	e3a07036 	mov	r7, #54	; 0x36
   22a00:	ef000000 	svc	0x00000000
   22a04:	e49d7004 	pop	{r7}		; (ldr r7, [sp], #4)
   22a08:	e12fff1e 	bx	lr
   22a0c:	e52d7004 	push	{r7}		; (str r7, [sp, #-4]!)
   22a10:	e3a07036 	mov	r7, #54	; 0x36
   22a14:	ef000000 	svc	0x00000000
   22a18:	e49d7004 	pop	{r7}		; (ldr r7, [sp], #4)
   22a1c:	e12fff1e 	bx	lr
   22a20:	e52d7004 	push	{r7}		; (str r7, [sp, #-4]!)
   22a24:	e3a0700d 	mov	r7, #13
   22a28:	ef000000 	svc	0x00000000
   22a2c:	e49d7004 	pop	{r7}		; (ldr r7, [sp], #4)
   22a30:	e12fff1e 	bx	lr
   22a34:	e52d7004 	push	{r7}		; (str r7, [sp, #-4]!)
   22a38:	e3a07058 	mov	r7, #88	; 0x58
   22a3c:	ef000000 	svc	0x00000000
   22a40:	e49d7004 	pop	{r7}		; (ldr r7, [sp], #4)
   22a44:	e12fff1e 	bx	lr
   22a48:	e92d47f0 	push	{r4, r5, r6, r7, r8, r9, sl, lr}
   22a4c:	e59f00f4 	ldr	r0, [pc, #244]	; 22b48 <initrd_image+0x14b48>
   22a50:	e24dd020 	sub	sp, sp, #32
   22a54:	e08f0000 	add	r0, pc, r0
   22a58:	ebfffed7 	bl	225bc <initrd_image+0x145bc>
   22a5c:	e59f00e8 	ldr	r0, [pc, #232]	; 22b4c <initrd_image+0x14b4c>
   22a60:	ebffff89 	bl	2288c <initrd_image+0x1488c>
   22a64:	e1a06000 	mov	r6, r0
   22a68:	e59f00e0 	ldr	r0, [pc, #224]	; 22b50 <initrd_image+0x14b50>
   22a6c:	e1a01006 	mov	r1, r6
   22a70:	e59f90dc 	ldr	r9, [pc, #220]	; 22b54 <initrd_image+0x14b54>
   22a74:	e59fa0dc 	ldr	sl, [pc, #220]	; 22b58 <initrd_image+0x14b58>
   22a78:	e59f80dc 	ldr	r8, [pc, #220]	; 22b5c <initrd_image+0x14b5c>
   22a7c:	e08f0000 	add	r0, pc, r0
   22a80:	ebfffecd 	bl	225bc <initrd_image+0x145bc>
   22a84:	e3a010ff 	mov	r1, #255	; 0xff
   22a88:	e1a00006 	mov	r0, r6
   22a8c:	e59f20b8 	ldr	r2, [pc, #184]	; 22b4c <initrd_image+0x14b4c>
   22a90:	e3a05000 	mov	r5, #0
   22a94:	e1a0700d 	mov	r7, sp
   22a98:	e08f9009 	add	r9, pc, r9
   22a9c:	e08fa00a 	add	sl, pc, sl
   22aa0:	e08f8008 	add	r8, pc, r8
   22aa4:	ebffff22 	bl	22734 <initrd_image+0x14734>
   22aa8:	e1a02005 	mov	r2, r5
   22aac:	e1a01009 	mov	r1, r9
   22ab0:	e1a00007 	mov	r0, r7
   22ab4:	ebfffed3 	bl	22608 <initrd_image+0x14608>
   22ab8:	e1a01006 	mov	r1, r6
   22abc:	e1a00007 	mov	r0, r7
   22ac0:	ebfffcba 	bl	21db0 <initrd_image+0x13db0>
   22ac4:	e3500000 	cmp	r0, #0
   22ac8:	ba000015 	blt	22b24 <initrd_image+0x14b24>
   22acc:	e1a03006 	mov	r3, r6
   22ad0:	e3a02018 	mov	r2, #24
   22ad4:	e3a01f96 	mov	r1, #600	; 0x258
   22ad8:	e3a00e32 	mov	r0, #800	; 0x320
   22adc:	ebffff58 	bl	22844 <initrd_image+0x14844>
   22ae0:	e1a00008 	mov	r0, r8
   22ae4:	ebfffeb4 	bl	225bc <initrd_image+0x145bc>
   22ae8:	ebfffedd 	bl	22664 <initrd_image+0x14664>
   22aec:	e1a04000 	mov	r4, r0
   22af0:	e59f0068 	ldr	r0, [pc, #104]	; 22b60 <initrd_image+0x14b60>
   22af4:	e1a01004 	mov	r1, r4
   22af8:	e08f0000 	add	r0, pc, r0
   22afc:	ebfffeae 	bl	225bc <initrd_image+0x145bc>
   22b00:	e3540020 	cmp	r4, #32
   22b04:	02855001 	addeq	r5, r5, #1
   22b08:	0affffe6 	beq	22aa8 <initrd_image+0x14aa8>
   22b0c:	e3540071 	cmp	r4, #113	; 0x71
   22b10:	0a000009 	beq	22b3c <initrd_image+0x14b3c>
   22b14:	e3540062 	cmp	r4, #98	; 0x62
   22b18:	02455001 	subeq	r5, r5, #1
   22b1c:	01c55fc5 	biceq	r5, r5, r5, asr #31
   22b20:	eaffffe0 	b	22aa8 <initrd_image+0x14aa8>
   22b24:	e1a01007 	mov	r1, r7
   22b28:	e1a0000a 	mov	r0, sl
   22b2c:	ebfffea2 	bl	225bc <initrd_image+0x145bc>
   22b30:	e3a00001 	mov	r0, #1
   22b34:	ebffff5a 	bl	228a4 <initrd_image+0x148a4>
   22b38:	eaffffe3 	b	22acc <initrd_image+0x14acc>
   22b3c:	e3a00000 	mov	r0, #0
   22b40:	e28dd020 	add	sp, sp, #32
   22b44:	e8bd87f0 	pop	{r4, r5, r6, r7, r8, r9, sl, pc}
   22b48:	000004d4 	ldrdeq	r0, [r0], -r4
   22b4c:	0015f900 	andseq	pc, r5, r0, lsl #18
   22b50:	000004c4 	andeq	r0, r0, r4, asr #9
   22b54:	000004b8 			; <UNDEFINED> instruction: 0x000004b8
   22b58:	000004c0 	andeq	r0, r0, r0, asr #9
   22b5c:	000004d0 	ldrdeq	r0, [r0], -r0	; <UNPREDICTABLE>
   22b60:	00000490 	muleq	r0, r0, r4
	...
   22da0:	4f525245 	svcmi	0x00525245
   22da4:	20202152 	eorcs	r2, r0, r2, asr r1
   22da8:	656c6946 	strbvs	r6, [ip, #-2374]!	; 0xfffff6ba
   22dac:	73252220 			; <UNDEFINED> instruction: 0x73252220
   22db0:	6f6e2022 	svcvs	0x006e2022
   22db4:	6f662074 	svcvs	0x00662074
   22db8:	21646e75 	smccs	18149	; 0x46e5
   22dbc:	0000000a 	andeq	r0, r0, sl
   22dc0:	756e614d 	strbvc	r6, [lr, #-333]!	; 0xfffffeb3
   22dc4:	74636166 	strbtvc	r6, [r3], #-358	; 0xfffffe9a
   22dc8:	72657275 	rsbvc	r7, r5, #1342177287	; 0x50000007
   22dcc:	0000203a 	andeq	r2, r0, sl, lsr r0
   22dd0:	666f735a 			; <UNDEFINED> instruction: 0x666f735a
   22dd4:	00000a74 	andeq	r0, r0, r4, ror sl
   22dd8:	6e6b6e55 	mcrvs	14, 3, r6, cr11, cr5, {2}
   22ddc:	206e776f 	rsbcs	r7, lr, pc, ror #14
   22de0:	000a6425 	andeq	r6, sl, r5, lsr #8
   22de4:	73726556 	cmnvc	r2, #360710144	; 0x15800000
   22de8:	3a6e6f69 	bcc	1bbeb94 <__bss_end+0x1b85b94>
   22dec:	00000020 	andeq	r0, r0, r0, lsr #32
   22df0:	0a352e32 	beq	d6e6c0 <__bss_end+0xd356c0>
   22df4:	00000000 	andeq	r0, r0, r0
   22df8:	20382e32 	eorscs	r2, r8, r2, lsr lr
   22dfc:	61702077 	cmnvs	r0, r7, ror r0
   22e00:	7474656c 	ldrbtvc	r6, [r4], #-1388	; 0xfffffa94
   22e04:	00000a65 	andeq	r0, r0, r5, ror #20
   22e08:	20382e32 	eorscs	r2, r8, r2, lsr lr
   22e0c:	206f2f77 	rsbcs	r2, pc, r7, ror pc	; <UNPREDICTABLE>
   22e10:	656c6170 	strbvs	r6, [ip, #-368]!	; 0xfffffe90
   22e14:	0a657474 	beq	197ffec <__bss_end+0x1946fec>
   22e18:	00000000 	andeq	r0, r0, r0
   22e1c:	6e696150 	mcrvs	1, 3, r6, cr9, cr0, {2}
   22e20:	75726274 	ldrbvc	r6, [r2, #-628]!	; 0xfffffd8c
   22e24:	66206873 			; <UNDEFINED> instruction: 0x66206873
   22e28:	5720726f 	strpl	r7, [r0, -pc, ror #4]!
   22e2c:	6f646e69 	svcvs	0x00646e69
   22e30:	000a7377 	andeq	r7, sl, r7, ror r3
   22e34:	2b302e33 	blcs	c2e708 <__bss_end+0xbf5708>
   22e38:	0000000a 	andeq	r0, r0, sl
   22e3c:	6e6b6e55 	mcrvs	14, 3, r6, cr11, cr5, {2}
   22e40:	206e776f 	rsbcs	r7, lr, pc, ror #14
   22e44:	000a6925 	andeq	r6, sl, r5, lsr #18
   22e48:	6f636e45 	svcvs	0x00636e45
   22e4c:	676e6964 	strbvs	r6, [lr, -r4, ror #18]!
   22e50:	0000203a 	andeq	r2, r0, sl, lsr r0
   22e54:	0a454c52 	beq	1175fa4 <__bss_end+0x113cfa4>
   22e58:	00000000 	andeq	r0, r0, r0
   22e5c:	73746942 	cmnvc	r4, #1081344	; 0x108000
   22e60:	50726550 	rsbspl	r6, r2, r0, asr r5
   22e64:	6c657869 	stclvs	8, cr7, [r5], #-420	; 0xfffffe5c
   22e68:	50726550 	rsbspl	r6, r2, r0, asr r5
   22e6c:	656e616c 	strbvs	r6, [lr, #-364]!	; 0xfffffe94
   22e70:	6425203a 	strtvs	r2, [r5], #-58	; 0xffffffc6
   22e74:	0000000a 	andeq	r0, r0, sl
   22e78:	656c6946 	strbvs	r6, [ip, #-2374]!	; 0xfffff6ba
   22e7c:	656f6720 	strbvs	r6, [pc, #-1824]!	; 22764 <initrd_image+0x14764>
   22e80:	72662073 	rsbvc	r2, r6, #115	; 0x73
   22e84:	25206d6f 	strcs	r6, [r0, #-3439]!	; 0xfffff291
   22e88:	69252c69 	stmdbvs	r5!, {r0, r3, r5, r6, sl, fp, sp}
   22e8c:	206f7420 	rsbcs	r7, pc, r0, lsr #8
   22e90:	252c6925 	strcs	r6, [ip, #-2341]!	; 0xfffff6db
   22e94:	00000a69 	andeq	r0, r0, r9, ror #20
   22e98:	69726f48 	ldmdbvs	r2!, {r3, r6, r8, r9, sl, fp, sp, lr}^
   22e9c:	746e6f7a 	strbtvc	r6, [lr], #-3962	; 0xfffff086
   22ea0:	44206c61 	strtmi	r6, [r0], #-3169	; 0xfffff39f
   22ea4:	203a4950 	eorscs	r4, sl, r0, asr r9
   22ea8:	000a6925 	andeq	r6, sl, r5, lsr #18
   22eac:	74726556 	ldrbtvc	r6, [r2], #-1366	; 0xfffffaaa
   22eb0:	6c616369 	stclvs	3, cr6, [r1], #-420	; 0xfffffe5c
   22eb4:	44202020 	strtmi	r2, [r0], #-32	; 0xffffffe0
   22eb8:	203a4950 	eorscs	r4, sl, r0, asr r9
   22ebc:	000a6925 	andeq	r6, sl, r5, lsr #18
   22ec0:	626d754e 	rsbvs	r7, sp, #327155712	; 0x13800000
   22ec4:	6f207265 	svcvs	0x00207265
   22ec8:	6f632066 	svcvs	0x00632066
   22ecc:	65726f6c 	ldrbvs	r6, [r2, #-3948]!	; 0xfffff094
   22ed0:	6c702064 	ldclvs	0, cr2, [r0], #-400	; 0xfffffe70
   22ed4:	73656e61 	cmnvc	r5, #1552	; 0x610
   22ed8:	6925203a 	stmdbvs	r5!, {r1, r3, r4, r5, sp}
   22edc:	0000000a 	andeq	r0, r0, sl
   22ee0:	65747942 	ldrbvs	r7, [r4, #-2370]!	; 0xfffff6be
   22ee4:	65702073 	ldrbvs	r2, [r0, #-115]!	; 0xffffff8d
   22ee8:	696c2072 	stmdbvs	ip!, {r1, r4, r5, r6, sp}^
   22eec:	203a656e 	eorscs	r6, sl, lr, ror #10
   22ef0:	000a6925 	andeq	r6, sl, r5, lsr #18
   22ef4:	656c6150 	strbvs	r6, [ip, #-336]!	; 0xfffffeb0
   22ef8:	20657474 	rsbcs	r7, r5, r4, ror r4
   22efc:	65707954 	ldrbvs	r7, [r0, #-2388]!	; 0xfffff6ac
   22f00:	6925203a 	stmdbvs	r5!, {r1, r3, r4, r5, sp}
   22f04:	0000000a 	andeq	r0, r0, sl
   22f08:	72637348 	rsbvc	r7, r3, #72, 6	; 0x20000001
   22f0c:	206e6565 	rsbcs	r6, lr, r5, ror #10
   22f10:	657a6953 	ldrbvs	r6, [sl, #-2387]!	; 0xfffff6ad
   22f14:	6925203a 	stmdbvs	r5!, {r1, r3, r4, r5, sp}
   22f18:	0000000a 	andeq	r0, r0, sl
   22f1c:	72637356 	rsbvc	r7, r3, #1476395009	; 0x58000001
   22f20:	206e6565 	rsbcs	r6, lr, r5, ror #10
   22f24:	657a6953 	ldrbvs	r6, [sl, #-2387]!	; 0xfffff6ad
   22f28:	6925203a 	stmdbvs	r5!, {r1, r3, r4, r5, sp}
   22f2c:	0000000a 	andeq	r0, r0, sl
   22f30:	72617453 	rsbvc	r7, r1, #1392508928	; 0x53000000
   22f34:	676e6974 			; <UNDEFINED> instruction: 0x676e6974
   22f38:	696c7320 	stmdbvs	ip!, {r5, r8, r9, ip, sp, lr}^
   22f3c:	73206564 			; <UNDEFINED> instruction: 0x73206564
   22f40:	21776f68 	cmncs	r7, r8, ror #30
   22f44:	0000000a 	andeq	r0, r0, sl
   22f48:	736d654d 	cmnvc	sp, #322961408	; 0x13400000
   22f4c:	69747465 	ldmdbvs	r4!, {r0, r2, r5, r6, sl, ip, sp, lr}^
   22f50:	2520676e 	strcs	r6, [r0, #-1902]!	; 0xfffff892
   22f54:	00000a70 	andeq	r0, r0, r0, ror sl
   22f58:	2d74756f 	cfldr64cs	mvdx7, [r4, #-444]!	; 0xfffffe44
   22f5c:	702e6425 	eorvc	r6, lr, r5, lsr #8
   22f60:	00007863 	andeq	r7, r0, r3, ror #16
   22f64:	6f727245 	svcvs	0x00727245
   22f68:	706f2072 	rsbvc	r2, pc, r2, ror r0	; <UNPREDICTABLE>
   22f6c:	6e696e65 	cdpvs	14, 6, cr6, cr9, cr5, {3}
   22f70:	73252067 			; <UNDEFINED> instruction: 0x73252067
   22f74:	0000000a 	andeq	r0, r0, sl
   22f78:	756f6241 	strbvc	r6, [pc, #-577]!	; 22d3f <initrd_image+0x14d3f>
   22f7c:	6f742074 	svcvs	0x00742074
   22f80:	74656720 	strbtvc	r6, [r5], #-1824	; 0xfffff8e0
   22f84:	61686320 	cmnvs	r8, r0, lsr #6
   22f88:	74636172 	strbtvc	r6, [r3], #-370	; 0xfffffe8e
   22f8c:	000a7265 	andeq	r7, sl, r5, ror #4
   22f90:	64616552 	strbtvs	r6, [r1], #-1362	; 0xfffffaae
   22f94:	61686320 	cmnvs	r8, r0, lsr #6
   22f98:	74636172 	strbtvc	r6, [r3], #-370	; 0xfffffe8e
   22f9c:	25207265 	strcs	r7, [r0, #-613]!	; 0xfffffd9b
   22fa0:	00000a78 	andeq	r0, r0, r8, ror sl
	...
   22fb0:	5a600100 	bpl	18233b8 <__bss_end+0x17ea3b8>
   22fb4:	00000000 	andeq	r0, r0, r0
   22fb8:	78100000 	ldmdavc	r0, {}	; <UNPREDICTABLE>
   22fbc:	c5ac1e1e 	strgt	r1, [ip, #3614]!	; 0xe1e
   22fc0:	69737973 	ldmdbvs	r3!, {r0, r1, r4, r5, r6, r8, fp, ip, sp, lr}^
   22fc4:	006f666e 	rsbeq	r6, pc, lr, ror #12
	...
   22fd0:	e92d4010 	push	{r4, lr}
   22fd4:	eb000220 	bl	2385c <initrd_image+0x1585c>
   22fd8:	e8bd4010 	pop	{r4, lr}
   22fdc:	ea0001b5 	b	236b8 <initrd_image+0x156b8>
   22fe0:	e5d13000 	ldrb	r3, [r1]
   22fe4:	e3530000 	cmp	r3, #0
   22fe8:	0a0000f4 	beq	233c0 <initrd_image+0x153c0>
   22fec:	e92d4ff0 	push	{r4, r5, r6, r7, r8, r9, sl, fp, lr}
   22ff0:	e24dd024 	sub	sp, sp, #36	; 0x24
   22ff4:	e1a08002 	mov	r8, r2
   22ff8:	e28d200c 	add	r2, sp, #12
   22ffc:	e1a0a000 	mov	sl, r0
   23000:	e59f93c0 	ldr	r9, [pc, #960]	; 233c8 <initrd_image+0x153c8>
   23004:	e3a00000 	mov	r0, #0
   23008:	e58d2004 	str	r2, [sp, #4]
   2300c:	ea000009 	b	23038 <initrd_image+0x15038>
   23010:	e7ca3000 	strb	r3, [sl, r0]
   23014:	e2800001 	add	r0, r0, #1
   23018:	e3500c01 	cmp	r0, #256	; 0x100
   2301c:	0a0000a6 	beq	232bc <initrd_image+0x152bc>
   23020:	e2811001 	add	r1, r1, #1
   23024:	e35000ff 	cmp	r0, #255	; 0xff
   23028:	0a000037 	beq	2310c <initrd_image+0x1510c>
   2302c:	e5d13000 	ldrb	r3, [r1]
   23030:	e3530000 	cmp	r3, #0
   23034:	0a000034 	beq	2310c <initrd_image+0x1510c>
   23038:	e3530025 	cmp	r3, #37	; 0x25
   2303c:	1afffff3 	bne	23010 <initrd_image+0x15010>
   23040:	e5d13001 	ldrb	r3, [r1, #1]
   23044:	e243c030 	sub	ip, r3, #48	; 0x30
   23048:	e6efc07c 	uxtb	ip, ip
   2304c:	e35c0009 	cmp	ip, #9
   23050:	83a0c000 	movhi	ip, #0
   23054:	83a0b020 	movhi	fp, #32
   23058:	82811001 	addhi	r1, r1, #1
   2305c:	9a000045 	bls	23178 <initrd_image+0x15178>
   23060:	e3530069 	cmp	r3, #105	; 0x69
   23064:	13530064 	cmpne	r3, #100	; 0x64
   23068:	1a000029 	bne	23114 <initrd_image+0x15114>
   2306c:	e4983004 	ldr	r3, [r8], #4
   23070:	e2811001 	add	r1, r1, #1
   23074:	e3530000 	cmp	r3, #0
   23078:	a3a07000 	movge	r7, #0
   2307c:	ba00004e 	blt	231bc <initrd_image+0x151bc>
   23080:	e3a05009 	mov	r5, #9
   23084:	e2877009 	add	r7, r7, #9
   23088:	e28d6016 	add	r6, sp, #22
   2308c:	e0842399 	umull	r2, r4, r9, r3
   23090:	e1a041a4 	lsr	r4, r4, #3
   23094:	e0842104 	add	r2, r4, r4, lsl #2
   23098:	e0432082 	sub	r2, r3, r2, lsl #1
   2309c:	e1a0e005 	mov	lr, r5
   230a0:	e2822030 	add	r2, r2, #48	; 0x30
   230a4:	e2455001 	sub	r5, r5, #1
   230a8:	e3530009 	cmp	r3, #9
   230ac:	e6ef2072 	uxtb	r2, r2
   230b0:	e1a03004 	mov	r3, r4
   230b4:	e0474005 	sub	r4, r7, r5
   230b8:	e5662001 	strb	r2, [r6, #-1]!
   230bc:	e6ef4074 	uxtb	r4, r4
   230c0:	8afffff1 	bhi	2308c <initrd_image+0x1508c>
   230c4:	e15c0004 	cmp	ip, r4
   230c8:	8a000043 	bhi	231dc <initrd_image+0x151dc>
   230cc:	e59d4004 	ldr	r4, [sp, #4]
   230d0:	e26ec00a 	rsb	ip, lr, #10
   230d4:	e2403001 	sub	r3, r0, #1
   230d8:	e08a3003 	add	r3, sl, r3
   230dc:	e084e00e 	add	lr, r4, lr
   230e0:	e08cc000 	add	ip, ip, r0
   230e4:	ea000000 	b	230ec <initrd_image+0x150ec>
   230e8:	e5fe2001 	ldrb	r2, [lr, #1]!
   230ec:	e2800001 	add	r0, r0, #1
   230f0:	e3500c01 	cmp	r0, #256	; 0x100
   230f4:	e5e32001 	strb	r2, [r3, #1]!
   230f8:	0affffcb 	beq	2302c <initrd_image+0x1502c>
   230fc:	e15c0000 	cmp	ip, r0
   23100:	1afffff8 	bne	230e8 <initrd_image+0x150e8>
   23104:	e35000ff 	cmp	r0, #255	; 0xff
   23108:	1affffc7 	bne	2302c <initrd_image+0x1502c>
   2310c:	e28dd024 	add	sp, sp, #36	; 0x24
   23110:	e8bd8ff0 	pop	{r4, r5, r6, r7, r8, r9, sl, fp, pc}
   23114:	e353006c 	cmp	r3, #108	; 0x6c
   23118:	0a00006a 	beq	232c8 <initrd_image+0x152c8>
   2311c:	e20320f7 	and	r2, r3, #247	; 0xf7
   23120:	e3520070 	cmp	r2, #112	; 0x70
   23124:	0a00003d 	beq	23220 <initrd_image+0x15220>
   23128:	e3530063 	cmp	r3, #99	; 0x63
   2312c:	0a00005c 	beq	232a4 <initrd_image+0x152a4>
   23130:	e3530025 	cmp	r3, #37	; 0x25
   23134:	0a000089 	beq	23360 <initrd_image+0x15360>
   23138:	e3530073 	cmp	r3, #115	; 0x73
   2313c:	1affffb8 	bne	23024 <initrd_image+0x15024>
   23140:	e498c004 	ldr	ip, [r8], #4
   23144:	e2402001 	sub	r2, r0, #1
   23148:	e2811001 	add	r1, r1, #1
   2314c:	e08a2002 	add	r2, sl, r2
   23150:	e04cc000 	sub	ip, ip, r0
   23154:	ea000003 	b	23168 <initrd_image+0x15168>
   23158:	e2800001 	add	r0, r0, #1
   2315c:	e3500c01 	cmp	r0, #256	; 0x100
   23160:	e5e23001 	strb	r3, [r2, #1]!
   23164:	0affffb0 	beq	2302c <initrd_image+0x1502c>
   23168:	e7dc3000 	ldrb	r3, [ip, r0]
   2316c:	e3530000 	cmp	r3, #0
   23170:	1afffff8 	bne	23158 <initrd_image+0x15158>
   23174:	eaffffaa 	b	23024 <initrd_image+0x15024>
   23178:	e3530030 	cmp	r3, #48	; 0x30
   2317c:	e5d13002 	ldrb	r3, [r1, #2]
   23180:	03a0b030 	moveq	fp, #48	; 0x30
   23184:	e2432030 	sub	r2, r3, #48	; 0x30
   23188:	13a0b020 	movne	fp, #32
   2318c:	e3520009 	cmp	r2, #9
   23190:	e2811002 	add	r1, r1, #2
   23194:	8affffb1 	bhi	23060 <initrd_image+0x15060>
   23198:	e08cc10c 	add	ip, ip, ip, lsl #2
   2319c:	e083c08c 	add	ip, r3, ip, lsl #1
   231a0:	e5f13001 	ldrb	r3, [r1, #1]!
   231a4:	e24cc030 	sub	ip, ip, #48	; 0x30
   231a8:	e2432030 	sub	r2, r3, #48	; 0x30
   231ac:	e3520009 	cmp	r2, #9
   231b0:	e20cc0ff 	and	ip, ip, #255	; 0xff
   231b4:	9afffff7 	bls	23198 <initrd_image+0x15198>
   231b8:	eaffffa8 	b	23060 <initrd_image+0x15060>
   231bc:	e3a0202d 	mov	r2, #45	; 0x2d
   231c0:	e7ca2000 	strb	r2, [sl, r0]
   231c4:	e2800001 	add	r0, r0, #1
   231c8:	e3500c01 	cmp	r0, #256	; 0x100
   231cc:	0a00003a 	beq	232bc <initrd_image+0x152bc>
   231d0:	e3a07001 	mov	r7, #1
   231d4:	e2633000 	rsb	r3, r3, #0
   231d8:	eaffffa8 	b	23080 <initrd_image+0x15080>
   231dc:	e04c4004 	sub	r4, ip, r4
   231e0:	e3540000 	cmp	r4, #0
   231e4:	daffffb8 	ble	230cc <initrd_image+0x150cc>
   231e8:	e35000ff 	cmp	r0, #255	; 0xff
   231ec:	e7cab000 	strb	fp, [sl, r0]
   231f0:	e08ac000 	add	ip, sl, r0
   231f4:	e2803001 	add	r3, r0, #1
   231f8:	0a000006 	beq	23218 <initrd_image+0x15218>
   231fc:	e0840000 	add	r0, r4, r0
   23200:	e1500003 	cmp	r0, r3
   23204:	e2833001 	add	r3, r3, #1
   23208:	0affffaf 	beq	230cc <initrd_image+0x150cc>
   2320c:	e3530c01 	cmp	r3, #256	; 0x100
   23210:	e5ecb001 	strb	fp, [ip, #1]!
   23214:	1afffff9 	bne	23200 <initrd_image+0x15200>
   23218:	e3a00c01 	mov	r0, #256	; 0x100
   2321c:	eaffffaa 	b	230cc <initrd_image+0x150cc>
   23220:	e3a0e009 	mov	lr, #9
   23224:	e4982004 	ldr	r2, [r8], #4
   23228:	e2811001 	add	r1, r1, #1
   2322c:	e28d5016 	add	r5, sp, #22
   23230:	ea000000 	b	23238 <initrd_image+0x15238>
   23234:	e1a0e006 	mov	lr, r6
   23238:	e202300f 	and	r3, r2, #15
   2323c:	e3530009 	cmp	r3, #9
   23240:	92833030 	addls	r3, r3, #48	; 0x30
   23244:	82833057 	addhi	r3, r3, #87	; 0x57
   23248:	e26e400a 	rsb	r4, lr, #10
   2324c:	e352000f 	cmp	r2, #15
   23250:	e24e6001 	sub	r6, lr, #1
   23254:	e1a02222 	lsr	r2, r2, #4
   23258:	e5653001 	strb	r3, [r5, #-1]!
   2325c:	e6ef7074 	uxtb	r7, r4
   23260:	8afffff3 	bhi	23234 <initrd_image+0x15234>
   23264:	e15c0007 	cmp	ip, r7
   23268:	8a000042 	bhi	23378 <initrd_image+0x15378>
   2326c:	e59d2004 	ldr	r2, [sp, #4]
   23270:	e0844000 	add	r4, r4, r0
   23274:	e082e00e 	add	lr, r2, lr
   23278:	e2402001 	sub	r2, r0, #1
   2327c:	e08a2002 	add	r2, sl, r2
   23280:	ea000000 	b	23288 <initrd_image+0x15288>
   23284:	e5fe3001 	ldrb	r3, [lr, #1]!
   23288:	e2800001 	add	r0, r0, #1
   2328c:	e3500c01 	cmp	r0, #256	; 0x100
   23290:	e5e23001 	strb	r3, [r2, #1]!
   23294:	0affff64 	beq	2302c <initrd_image+0x1502c>
   23298:	e1500004 	cmp	r0, r4
   2329c:	1afffff8 	bne	23284 <initrd_image+0x15284>
   232a0:	eaffff5f 	b	23024 <initrd_image+0x15024>
   232a4:	e4983004 	ldr	r3, [r8], #4
   232a8:	e2811001 	add	r1, r1, #1
   232ac:	e7ca3000 	strb	r3, [sl, r0]
   232b0:	e2800001 	add	r0, r0, #1
   232b4:	e3500c01 	cmp	r0, #256	; 0x100
   232b8:	1affff59 	bne	23024 <initrd_image+0x15024>
   232bc:	e3a00c01 	mov	r0, #256	; 0x100
   232c0:	e28dd024 	add	sp, sp, #36	; 0x24
   232c4:	e8bd8ff0 	pop	{r4, r5, r6, r7, r8, r9, sl, fp, pc}
   232c8:	e2888007 	add	r8, r8, #7
   232cc:	e3c88007 	bic	r8, r8, #7
   232d0:	e598c004 	ldr	ip, [r8, #4]
   232d4:	e3a0e011 	mov	lr, #17
   232d8:	e4983008 	ldr	r3, [r8], #8
   232dc:	e2811003 	add	r1, r1, #3
   232e0:	e28d401e 	add	r4, sp, #30
   232e4:	ea000000 	b	232ec <initrd_image+0x152ec>
   232e8:	e1a0e005 	mov	lr, r5
   232ec:	e3a05000 	mov	r5, #0
   232f0:	e203200f 	and	r2, r3, #15
   232f4:	e352000a 	cmp	r2, #10
   232f8:	e2d55000 	sbcs	r5, r5, #0
   232fc:	32822030 	addcc	r2, r2, #48	; 0x30
   23300:	22822057 	addcs	r2, r2, #87	; 0x57
   23304:	e3530010 	cmp	r3, #16
   23308:	e2dc5000 	sbcs	r5, ip, #0
   2330c:	e1a03223 	lsr	r3, r3, #4
   23310:	e1833e0c 	orr	r3, r3, ip, lsl #28
   23314:	e24e5001 	sub	r5, lr, #1
   23318:	e1a0c22c 	lsr	ip, ip, #4
   2331c:	e5642001 	strb	r2, [r4, #-1]!
   23320:	2afffff0 	bcs	232e8 <initrd_image+0x152e8>
   23324:	e59d3004 	ldr	r3, [sp, #4]
   23328:	e240c001 	sub	ip, r0, #1
   2332c:	e2804012 	add	r4, r0, #18
   23330:	e08ac00c 	add	ip, sl, ip
   23334:	e044400e 	sub	r4, r4, lr
   23338:	e083300e 	add	r3, r3, lr
   2333c:	ea000000 	b	23344 <initrd_image+0x15344>
   23340:	e5f32001 	ldrb	r2, [r3, #1]!
   23344:	e2800001 	add	r0, r0, #1
   23348:	e3500c01 	cmp	r0, #256	; 0x100
   2334c:	e5ec2001 	strb	r2, [ip, #1]!
   23350:	0affff35 	beq	2302c <initrd_image+0x1502c>
   23354:	e1500004 	cmp	r0, r4
   23358:	1afffff8 	bne	23340 <initrd_image+0x15340>
   2335c:	eaffff30 	b	23024 <initrd_image+0x15024>
   23360:	e7ca3000 	strb	r3, [sl, r0]
   23364:	e2800001 	add	r0, r0, #1
   23368:	e3500c01 	cmp	r0, #256	; 0x100
   2336c:	e2811001 	add	r1, r1, #1
   23370:	1affff2b 	bne	23024 <initrd_image+0x15024>
   23374:	eaffffd0 	b	232bc <initrd_image+0x152bc>
   23378:	e04cc007 	sub	ip, ip, r7
   2337c:	e35c0000 	cmp	ip, #0
   23380:	daffffb9 	ble	2326c <initrd_image+0x1526c>
   23384:	e35000ff 	cmp	r0, #255	; 0xff
   23388:	e7cab000 	strb	fp, [sl, r0]
   2338c:	e08a5000 	add	r5, sl, r0
   23390:	e2802001 	add	r2, r0, #1
   23394:	0a000007 	beq	233b8 <initrd_image+0x153b8>
   23398:	e08c0000 	add	r0, ip, r0
   2339c:	e1a0c005 	mov	ip, r5
   233a0:	e1520000 	cmp	r2, r0
   233a4:	e2822001 	add	r2, r2, #1
   233a8:	0affffaf 	beq	2326c <initrd_image+0x1526c>
   233ac:	e3520c01 	cmp	r2, #256	; 0x100
   233b0:	e5ecb001 	strb	fp, [ip, #1]!
   233b4:	1afffff9 	bne	233a0 <initrd_image+0x153a0>
   233b8:	e3a00c01 	mov	r0, #256	; 0x100
   233bc:	eaffffaa 	b	2326c <initrd_image+0x1526c>
   233c0:	e1a00003 	mov	r0, r3
   233c4:	e12fff1e 	bx	lr
   233c8:	cccccccd 	stclgt	12, cr12, [ip], {205}	; 0xcd
   233cc:	e92d000f 	push	{r0, r1, r2, r3}
   233d0:	e92d4030 	push	{r4, r5, lr}
   233d4:	e24ddf43 	sub	sp, sp, #268	; 0x10c
   233d8:	e28d5008 	add	r5, sp, #8
   233dc:	e28d2f47 	add	r2, sp, #284	; 0x11c
   233e0:	e59d1118 	ldr	r1, [sp, #280]	; 0x118
   233e4:	e1a00005 	mov	r0, r5
   233e8:	e58d2004 	str	r2, [sp, #4]
   233ec:	ebfffefb 	bl	22fe0 <initrd_image+0x14fe0>
   233f0:	e1a04000 	mov	r4, r0
   233f4:	e1a01005 	mov	r1, r5
   233f8:	e1a02004 	mov	r2, r4
   233fc:	e3a00001 	mov	r0, #1
   23400:	eb0000b6 	bl	236e0 <initrd_image+0x156e0>
   23404:	e1a00004 	mov	r0, r4
   23408:	e28ddf43 	add	sp, sp, #268	; 0x10c
   2340c:	e8bd4030 	pop	{r4, r5, lr}
   23410:	e28dd010 	add	sp, sp, #16
   23414:	e12fff1e 	bx	lr
   23418:	e92d000e 	push	{r1, r2, r3}
   2341c:	e92d4010 	push	{r4, lr}
   23420:	e24dd00c 	sub	sp, sp, #12
   23424:	e28d2018 	add	r2, sp, #24
   23428:	e59d1014 	ldr	r1, [sp, #20]
   2342c:	e1a04000 	mov	r4, r0
   23430:	e58d2004 	str	r2, [sp, #4]
   23434:	ebfffee9 	bl	22fe0 <initrd_image+0x14fe0>
   23438:	e3a02000 	mov	r2, #0
   2343c:	e7c42000 	strb	r2, [r4, r0]
   23440:	e28dd00c 	add	sp, sp, #12
   23444:	e8bd4010 	pop	{r4, lr}
   23448:	e28dd00c 	add	sp, sp, #12
   2344c:	e12fff1e 	bx	lr
   23450:	e92d4010 	push	{r4, lr}
   23454:	e3a04000 	mov	r4, #0
   23458:	e1a03000 	mov	r3, r0
   2345c:	e24dd008 	sub	sp, sp, #8
   23460:	e1a0000d 	mov	r0, sp
   23464:	e1a01004 	mov	r1, r4
   23468:	e88d0018 	stm	sp, {r3, r4}
   2346c:	eb0000dc 	bl	237e4 <initrd_image+0x157e4>
   23470:	e1a00004 	mov	r0, r4
   23474:	e28dd008 	add	sp, sp, #8
   23478:	e8bd8010 	pop	{r4, pc}
   2347c:	e1a03000 	mov	r3, r0
   23480:	e59f2044 	ldr	r2, [pc, #68]	; 234cc <initrd_image+0x154cc>
   23484:	e52de004 	push	{lr}		; (str lr, [sp, #-4]!)
   23488:	e082c392 	umull	ip, r2, r2, r3
   2348c:	e1a02922 	lsr	r2, r2, #18
   23490:	e062c282 	rsb	ip, r2, r2, lsl #5
   23494:	e06cc30c 	rsb	ip, ip, ip, lsl #6
   23498:	e082c18c 	add	ip, r2, ip, lsl #3
   2349c:	e043330c 	sub	r3, r3, ip, lsl #6
   234a0:	e063c283 	rsb	ip, r3, r3, lsl #5
   234a4:	e24dd00c 	sub	sp, sp, #12
   234a8:	e083310c 	add	r3, r3, ip, lsl #2
   234ac:	e1a03183 	lsl	r3, r3, #3
   234b0:	e3a01000 	mov	r1, #0
   234b4:	e1a0000d 	mov	r0, sp
   234b8:	e1cd20f0 	strd	r2, [sp]
   234bc:	eb0000c8 	bl	237e4 <initrd_image+0x157e4>
   234c0:	e3a00000 	mov	r0, #0
   234c4:	e28dd00c 	add	sp, sp, #12
   234c8:	e49df004 	pop	{pc}		; (ldr pc, [sp], #4)
   234cc:	431bde83 	tstmi	fp, #2096	; 0x830
   234d0:	e92d4010 	push	{r4, lr}
   234d4:	e1a04000 	mov	r4, r0
   234d8:	eb0000d5 	bl	23834 <initrd_image+0x15834>
   234dc:	e3540000 	cmp	r4, #0
   234e0:	15840000 	strne	r0, [r4]
   234e4:	e8bd8010 	pop	{r4, pc}
   234e8:	e92d4010 	push	{r4, lr}
   234ec:	e3a0e000 	mov	lr, #0
   234f0:	e59f31a0 	ldr	r3, [pc, #416]	; 23698 <initrd_image+0x15698>
   234f4:	e1a04001 	mov	r4, r1
   234f8:	e1500003 	cmp	r0, r3
   234fc:	e24dd008 	sub	sp, sp, #8
   23500:	e5c1e000 	strb	lr, [r1]
   23504:	ca00002d 	bgt	235c0 <initrd_image+0x155c0>
   23508:	e3500ee1 	cmp	r0, #3600	; 0xe10
   2350c:	da000013 	ble	23560 <initrd_image+0x15560>
   23510:	e59f2184 	ldr	r2, [pc, #388]	; 2369c <initrd_image+0x1569c>
   23514:	e1a03fc0 	asr	r3, r0, #31
   23518:	e0c21092 	smull	r1, r2, r2, r0
   2351c:	e0822000 	add	r2, r2, r0
   23520:	e06325c2 	rsb	r2, r3, r2, asr #11
   23524:	e062ca02 	rsb	ip, r2, r2, lsl #20
   23528:	e082c18c 	add	ip, r2, ip, lsl #3
   2352c:	e062c28c 	rsb	ip, r2, ip, lsl #5
   23530:	e080c20c 	add	ip, r0, ip, lsl #4
   23534:	e35c003c 	cmp	ip, #60	; 0x3c
   23538:	d1a0300e 	movle	r3, lr
   2353c:	ca00004d 	bgt	23678 <initrd_image+0x15678>
   23540:	e59f1158 	ldr	r1, [pc, #344]	; 236a0 <initrd_image+0x156a0>
   23544:	e1a00004 	mov	r0, r4
   23548:	e08f1001 	add	r1, pc, r1
   2354c:	e58dc000 	str	ip, [sp]
   23550:	ebffffb0 	bl	23418 <initrd_image+0x15418>
   23554:	e1a00004 	mov	r0, r4
   23558:	e28dd008 	add	sp, sp, #8
   2355c:	e8bd8010 	pop	{r4, pc}
   23560:	e350003c 	cmp	r0, #60	; 0x3c
   23564:	da00000d 	ble	235a0 <initrd_image+0x155a0>
   23568:	e59f3134 	ldr	r3, [pc, #308]	; 236a4 <initrd_image+0x156a4>
   2356c:	e1a02fc0 	asr	r2, r0, #31
   23570:	e0c31093 	smull	r1, r3, r3, r0
   23574:	e0833000 	add	r3, r3, r0
   23578:	e06222c3 	rsb	r2, r2, r3, asr #5
   2357c:	e59f1124 	ldr	r1, [pc, #292]	; 236a8 <initrd_image+0x156a8>
   23580:	e0423202 	sub	r3, r2, r2, lsl #4
   23584:	e0803103 	add	r3, r0, r3, lsl #2
   23588:	e08f1001 	add	r1, pc, r1
   2358c:	e1a00004 	mov	r0, r4
   23590:	ebffffa0 	bl	23418 <initrd_image+0x15418>
   23594:	e1a00004 	mov	r0, r4
   23598:	e28dd008 	add	sp, sp, #8
   2359c:	e8bd8010 	pop	{r4, pc}
   235a0:	e1a02000 	mov	r2, r0
   235a4:	e1a00001 	mov	r0, r1
   235a8:	e59f10fc 	ldr	r1, [pc, #252]	; 236ac <initrd_image+0x156ac>
   235ac:	e08f1001 	add	r1, pc, r1
   235b0:	ebffff98 	bl	23418 <initrd_image+0x15418>
   235b4:	e1a00004 	mov	r0, r4
   235b8:	e28dd008 	add	sp, sp, #8
   235bc:	e8bd8010 	pop	{r4, pc}
   235c0:	e59f20e8 	ldr	r2, [pc, #232]	; 236b0 <initrd_image+0x156b0>
   235c4:	e1a03fc0 	asr	r3, r0, #31
   235c8:	e0c21092 	smull	r1, r2, r2, r0
   235cc:	e0822000 	add	r2, r2, r0
   235d0:	e0632842 	rsb	r2, r3, r2, asr #16
   235d4:	e082c082 	add	ip, r2, r2, lsl #1
   235d8:	e06cc20c 	rsb	ip, ip, ip, lsl #4
   235dc:	e06cc20c 	rsb	ip, ip, ip, lsl #4
   235e0:	e040038c 	sub	r0, r0, ip, lsl #7
   235e4:	e3500ee1 	cmp	r0, #3600	; 0xe10
   235e8:	ca000005 	bgt	23604 <initrd_image+0x15604>
   235ec:	e350003c 	cmp	r0, #60	; 0x3c
   235f0:	da00001e 	ble	23670 <initrd_image+0x15670>
   235f4:	e59f10a8 	ldr	r1, [pc, #168]	; 236a4 <initrd_image+0x156a4>
   235f8:	e1a0300e 	mov	r3, lr
   235fc:	e0ce1091 	smull	r1, lr, r1, r0
   23600:	ea00000c 	b	23638 <initrd_image+0x15638>
   23604:	e59f3090 	ldr	r3, [pc, #144]	; 2369c <initrd_image+0x1569c>
   23608:	e0c31093 	smull	r1, r3, r3, r0
   2360c:	e1a01fc0 	asr	r1, r0, #31
   23610:	e0833000 	add	r3, r3, r0
   23614:	e06135c3 	rsb	r3, r1, r3, asr #11
   23618:	e0631a03 	rsb	r1, r3, r3, lsl #20
   2361c:	e0831181 	add	r1, r3, r1, lsl #3
   23620:	e0631281 	rsb	r1, r3, r1, lsl #5
   23624:	e0800201 	add	r0, r0, r1, lsl #4
   23628:	e350003c 	cmp	r0, #60	; 0x3c
   2362c:	da000006 	ble	2364c <initrd_image+0x1564c>
   23630:	e59fe06c 	ldr	lr, [pc, #108]	; 236a4 <initrd_image+0x156a4>
   23634:	e0ce109e 	smull	r1, lr, lr, r0
   23638:	e08e1000 	add	r1, lr, r0
   2363c:	e1a0efc0 	asr	lr, r0, #31
   23640:	e06ee2c1 	rsb	lr, lr, r1, asr #5
   23644:	e04e120e 	sub	r1, lr, lr, lsl #4
   23648:	e0800101 	add	r0, r0, r1, lsl #2
   2364c:	e59f1060 	ldr	r1, [pc, #96]	; 236b4 <initrd_image+0x156b4>
   23650:	e58d0004 	str	r0, [sp, #4]
   23654:	e08f1001 	add	r1, pc, r1
   23658:	e1a00004 	mov	r0, r4
   2365c:	e58de000 	str	lr, [sp]
   23660:	ebffff6c 	bl	23418 <initrd_image+0x15418>
   23664:	e1a00004 	mov	r0, r4
   23668:	e28dd008 	add	sp, sp, #8
   2366c:	e8bd8010 	pop	{r4, pc}
   23670:	e1a0300e 	mov	r3, lr
   23674:	eafffff4 	b	2364c <initrd_image+0x1564c>
   23678:	e59fe024 	ldr	lr, [pc, #36]	; 236a4 <initrd_image+0x156a4>
   2367c:	e1a03fcc 	asr	r3, ip, #31
   23680:	e0ce1c9e 	smull	r1, lr, lr, ip
   23684:	e08ee00c 	add	lr, lr, ip
   23688:	e06332ce 	rsb	r3, r3, lr, asr #5
   2368c:	e0431203 	sub	r1, r3, r3, lsl #4
   23690:	e08cc101 	add	ip, ip, r1, lsl #2
   23694:	eaffffa9 	b	23540 <initrd_image+0x15540>
   23698:	00015180 	andeq	r5, r1, r0, lsl #3
   2369c:	91a2b3c5 			; <UNDEFINED> instruction: 0x91a2b3c5
   236a0:	00000aec 	andeq	r0, r0, ip, ror #21
   236a4:	88888889 	stmhi	r8, {r0, r3, r7, fp, pc}
   236a8:	00000ab0 			; <UNDEFINED> instruction: 0x00000ab0
   236ac:	00000a90 	muleq	r0, r0, sl
   236b0:	c22e4507 	eorgt	r4, lr, #29360128	; 0x1c00000
   236b4:	000009dc 	ldrdeq	r0, [r0], -ip
   236b8:	e52d7004 	push	{r7}		; (str r7, [sp, #-4]!)
   236bc:	e3a07001 	mov	r7, #1
   236c0:	ef000000 	svc	0x00000000
   236c4:	e49d7004 	pop	{r7}		; (ldr r7, [sp], #4)
   236c8:	e12fff1e 	bx	lr
   236cc:	e52d7004 	push	{r7}		; (str r7, [sp, #-4]!)
   236d0:	e3a07003 	mov	r7, #3
   236d4:	ef000000 	svc	0x00000000
   236d8:	e49d7004 	pop	{r7}		; (ldr r7, [sp], #4)
   236dc:	e12fff1e 	bx	lr
   236e0:	e52d7004 	push	{r7}		; (str r7, [sp, #-4]!)
   236e4:	e3a07004 	mov	r7, #4
   236e8:	ef000000 	svc	0x00000000
   236ec:	e49d7004 	pop	{r7}		; (ldr r7, [sp], #4)
   236f0:	e12fff1e 	bx	lr
   236f4:	e52d7004 	push	{r7}		; (str r7, [sp, #-4]!)
   236f8:	e3a07005 	mov	r7, #5
   236fc:	ef000000 	svc	0x00000000
   23700:	e49d7004 	pop	{r7}		; (ldr r7, [sp], #4)
   23704:	e12fff1e 	bx	lr
   23708:	e52d7004 	push	{r7}		; (str r7, [sp, #-4]!)
   2370c:	e3a07006 	mov	r7, #6
   23710:	ef000000 	svc	0x00000000
   23714:	e49d7004 	pop	{r7}		; (ldr r7, [sp], #4)
   23718:	e12fff1e 	bx	lr
   2371c:	e52d7004 	push	{r7}		; (str r7, [sp, #-4]!)
   23720:	e3a07007 	mov	r7, #7
   23724:	ef000000 	svc	0x00000000
   23728:	e49d7004 	pop	{r7}		; (ldr r7, [sp], #4)
   2372c:	e12fff1e 	bx	lr
   23730:	e52d7004 	push	{r7}		; (str r7, [sp, #-4]!)
   23734:	e3a0700b 	mov	r7, #11
   23738:	ef000000 	svc	0x00000000
   2373c:	e49d7004 	pop	{r7}		; (ldr r7, [sp], #4)
   23740:	e12fff1e 	bx	lr
   23744:	e52d7004 	push	{r7}		; (str r7, [sp, #-4]!)
   23748:	e3a0700c 	mov	r7, #12
   2374c:	ef000000 	svc	0x00000000
   23750:	e49d7004 	pop	{r7}		; (ldr r7, [sp], #4)
   23754:	e12fff1e 	bx	lr
   23758:	e52d7004 	push	{r7}		; (str r7, [sp, #-4]!)
   2375c:	e3a070b7 	mov	r7, #183	; 0xb7
   23760:	ef000000 	svc	0x00000000
   23764:	e49d7004 	pop	{r7}		; (ldr r7, [sp], #4)
   23768:	e12fff1e 	bx	lr
   2376c:	e52d7004 	push	{r7}		; (str r7, [sp, #-4]!)
   23770:	e3a07014 	mov	r7, #20
   23774:	ef000000 	svc	0x00000000
   23778:	e49d7004 	pop	{r7}		; (ldr r7, [sp], #4)
   2377c:	e12fff1e 	bx	lr
   23780:	e52d7004 	push	{r7}		; (str r7, [sp, #-4]!)
   23784:	e3a0702b 	mov	r7, #43	; 0x2b
   23788:	ef000000 	svc	0x00000000
   2378c:	e49d7004 	pop	{r7}		; (ldr r7, [sp], #4)
   23790:	e12fff1e 	bx	lr
   23794:	e52d7004 	push	{r7}		; (str r7, [sp, #-4]!)
   23798:	e3a0706a 	mov	r7, #106	; 0x6a
   2379c:	ef000000 	svc	0x00000000
   237a0:	e49d7004 	pop	{r7}		; (ldr r7, [sp], #4)
   237a4:	e12fff1e 	bx	lr
   237a8:	e52d7004 	push	{r7}		; (str r7, [sp, #-4]!)
   237ac:	e3a07074 	mov	r7, #116	; 0x74
   237b0:	ef000000 	svc	0x00000000
   237b4:	e49d7004 	pop	{r7}		; (ldr r7, [sp], #4)
   237b8:	e12fff1e 	bx	lr
   237bc:	e52d7004 	push	{r7}		; (str r7, [sp, #-4]!)
   237c0:	e3a0707a 	mov	r7, #122	; 0x7a
   237c4:	ef000000 	svc	0x00000000
   237c8:	e49d7004 	pop	{r7}		; (ldr r7, [sp], #4)
   237cc:	e12fff1e 	bx	lr
   237d0:	e52d7004 	push	{r7}		; (str r7, [sp, #-4]!)
   237d4:	e3a0708d 	mov	r7, #141	; 0x8d
   237d8:	ef000000 	svc	0x00000000
   237dc:	e49d7004 	pop	{r7}		; (ldr r7, [sp], #4)
   237e0:	e12fff1e 	bx	lr
   237e4:	e52d7004 	push	{r7}		; (str r7, [sp, #-4]!)
   237e8:	e3a070a2 	mov	r7, #162	; 0xa2
   237ec:	ef000000 	svc	0x00000000
   237f0:	e49d7004 	pop	{r7}		; (ldr r7, [sp], #4)
   237f4:	e12fff1e 	bx	lr
   237f8:	e52d7004 	push	{r7}		; (str r7, [sp, #-4]!)
   237fc:	e3a070be 	mov	r7, #190	; 0xbe
   23800:	ef000000 	svc	0x00000000
   23804:	e49d7004 	pop	{r7}		; (ldr r7, [sp], #4)
   23808:	e12fff1e 	bx	lr
   2380c:	e52d7004 	push	{r7}		; (str r7, [sp, #-4]!)
   23810:	e3a07036 	mov	r7, #54	; 0x36
   23814:	ef000000 	svc	0x00000000
   23818:	e49d7004 	pop	{r7}		; (ldr r7, [sp], #4)
   2381c:	e12fff1e 	bx	lr
   23820:	e52d7004 	push	{r7}		; (str r7, [sp, #-4]!)
   23824:	e3a07036 	mov	r7, #54	; 0x36
   23828:	ef000000 	svc	0x00000000
   2382c:	e49d7004 	pop	{r7}		; (ldr r7, [sp], #4)
   23830:	e12fff1e 	bx	lr
   23834:	e52d7004 	push	{r7}		; (str r7, [sp, #-4]!)
   23838:	e3a0700d 	mov	r7, #13
   2383c:	ef000000 	svc	0x00000000
   23840:	e49d7004 	pop	{r7}		; (ldr r7, [sp], #4)
   23844:	e12fff1e 	bx	lr
   23848:	e52d7004 	push	{r7}		; (str r7, [sp, #-4]!)
   2384c:	e3a07058 	mov	r7, #88	; 0x58
   23850:	ef000000 	svc	0x00000000
   23854:	e49d7004 	pop	{r7}		; (ldr r7, [sp], #4)
   23858:	e12fff1e 	bx	lr
   2385c:	e92d4010 	push	{r4, lr}
   23860:	e24ddfb2 	sub	sp, sp, #712	; 0x2c8
   23864:	e28d4d05 	add	r4, sp, #320	; 0x140
   23868:	e1a0000d 	mov	r0, sp
   2386c:	ebffffcd 	bl	237a8 <initrd_image+0x157a8>
   23870:	e1a00004 	mov	r0, r4
   23874:	ebffffd0 	bl	237bc <initrd_image+0x157bc>
   23878:	e59f0098 	ldr	r0, [pc, #152]	; 23918 <initrd_image+0x15918>
   2387c:	e08f0000 	add	r0, pc, r0
   23880:	ebfffed1 	bl	233cc <initrd_image+0x153cc>
   23884:	e59f0090 	ldr	r0, [pc, #144]	; 2391c <initrd_image+0x1591c>
   23888:	e1a01004 	mov	r1, r4
   2388c:	e2842082 	add	r2, r4, #130	; 0x82
   23890:	e08f0000 	add	r0, pc, r0
   23894:	ebfffecc 	bl	233cc <initrd_image+0x153cc>
   23898:	e59f0080 	ldr	r0, [pc, #128]	; 23920 <initrd_image+0x15920>
   2389c:	e59d2028 	ldr	r2, [sp, #40]	; 0x28
   238a0:	e59d1038 	ldr	r1, [sp, #56]	; 0x38
   238a4:	e08f0000 	add	r0, pc, r0
   238a8:	ebfffec7 	bl	233cc <initrd_image+0x153cc>
   238ac:	e59d2010 	ldr	r2, [sp, #16]
   238b0:	e59d1014 	ldr	r1, [sp, #20]
   238b4:	e59f0068 	ldr	r0, [pc, #104]	; 23924 <initrd_image+0x15924>
   238b8:	e28d4040 	add	r4, sp, #64	; 0x40
   238bc:	e1a02522 	lsr	r2, r2, #10
   238c0:	e1a01521 	lsr	r1, r1, #10
   238c4:	e08f0000 	add	r0, pc, r0
   238c8:	ebfffebf 	bl	233cc <initrd_image+0x153cc>
   238cc:	e3a02c01 	mov	r2, #256	; 0x100
   238d0:	e1a01004 	mov	r1, r4
   238d4:	e59d0000 	ldr	r0, [sp]
   238d8:	ebffff02 	bl	234e8 <initrd_image+0x154e8>
   238dc:	e1a01000 	mov	r1, r0
   238e0:	e59f0040 	ldr	r0, [pc, #64]	; 23928 <initrd_image+0x15928>
   238e4:	e08f0000 	add	r0, pc, r0
   238e8:	ebfffeb7 	bl	233cc <initrd_image+0x153cc>
   238ec:	e3a02c01 	mov	r2, #256	; 0x100
   238f0:	e1a01004 	mov	r1, r4
   238f4:	e59d003c 	ldr	r0, [sp, #60]	; 0x3c
   238f8:	ebfffefa 	bl	234e8 <initrd_image+0x154e8>
   238fc:	e1a01000 	mov	r1, r0
   23900:	e59f0024 	ldr	r0, [pc, #36]	; 2392c <initrd_image+0x1592c>
   23904:	e08f0000 	add	r0, pc, r0
   23908:	ebfffeaf 	bl	233cc <initrd_image+0x153cc>
   2390c:	e3a00000 	mov	r0, #0
   23910:	e28ddfb2 	add	sp, sp, #712	; 0x2c8
   23914:	e8bd8010 	pop	{r4, pc}
   23918:	0000074c 	andeq	r0, r0, ip, asr #14
   2391c:	0000073c 	andeq	r0, r0, ip, lsr r7
   23920:	00000744 	andeq	r0, r0, r4, asr #14
   23924:	0000073c 	andeq	r0, r0, ip, lsr r7
   23928:	00000730 	andeq	r0, r0, r0, lsr r7
   2392c:	0000071c 	andeq	r0, r0, ip, lsl r7
	...
   23fd0:	0000000a 	andeq	r0, r0, sl
   23fd4:	76207325 	strtvc	r7, [r0], -r5, lsr #6
   23fd8:	69737265 	ldmdbvs	r3!, {r0, r2, r5, r6, r9, ip, sp, lr}^
   23fdc:	25206e6f 	strcs	r6, [r0, #-3695]!	; 0xfffff191
   23fe0:	79732073 	ldmdbvc	r3!, {r0, r1, r4, r5, r6, sp}^
   23fe4:	6d657473 	cfstrdvs	mvd7, [r5, #-460]!	; 0xfffffe34
   23fe8:	666e6920 	strbtvs	r6, [lr], -r0, lsr #18
   23fec:	000a3a6f 	andeq	r3, sl, pc, ror #20
   23ff0:	2f642509 	svccs	0x00642509
   23ff4:	50206425 	eorpl	r6, r0, r5, lsr #8
   23ff8:	65636f72 	strbvs	r6, [r3, #-3954]!	; 0xfffff08e
   23ffc:	73657373 	cmnvc	r5, #-872415231	; 0xcc000001
   24000:	61655220 	cmnvs	r5, r0, lsr #4
   24004:	000a7964 	andeq	r7, sl, r4, ror #18
   24008:	6b642509 	blvs	192d434 <__bss_end+0x18f4434>
   2400c:	6b64252f 	blvs	192d4d0 <__bss_end+0x18f44d0>
   24010:	4d415220 	sfmmi	f5, 2, [r1, #-128]	; 0xffffff80
   24014:	65726620 	ldrbvs	r6, [r2, #-1568]!	; 0xfffff9e0
   24018:	00000a65 	andeq	r0, r0, r5, ror #20
   2401c:	20705509 	rsbscs	r5, r0, r9, lsl #10
   24020:	202c7325 	eorcs	r7, ip, r5, lsr #6
   24024:	00000000 	andeq	r0, r0, r0
   24028:	656c6449 	strbvs	r6, [ip, #-1097]!	; 0xfffffbb7
   2402c:	726f6620 	rsbvc	r6, pc, #32, 12	; 0x2000000
   24030:	0a732520 	beq	1ced4b8 <__bss_end+0x1cb44b8>
   24034:	00000000 	andeq	r0, r0, r0
   24038:	20646425 	rsbcs	r6, r4, r5, lsr #8
   2403c:	20686425 	rsbcs	r6, r8, r5, lsr #8
   24040:	206d6425 	rsbcs	r6, sp, r5, lsr #8
   24044:	00736425 	rsbseq	r6, r3, r5, lsr #8
	...
   24050:	0a000000 	beq	24058 <initrd_image+0x16058>
   24054:	00000000 	andeq	r0, r0, r0
   24058:	0d100000 	ldceq	0, cr0, [r0, #-0]
   2405c:	7c8e9125 	stfvcd	f1, [lr], {37}	; 0x25
   24060:	6d616e75 	stclvs	14, cr6, [r1, #-468]!	; 0xfffffe2c
   24064:	00000065 	andeq	r0, r0, r5, rrx
	...
   24070:	e92d4010 	push	{r4, lr}
   24074:	eb000186 	bl	24694 <initrd_image+0x16694>
   24078:	e8bd4010 	pop	{r4, lr}
   2407c:	ea00011b 	b	244f0 <initrd_image+0x164f0>
   24080:	e5d13000 	ldrb	r3, [r1]
   24084:	e3530000 	cmp	r3, #0
   24088:	0a0000f4 	beq	24460 <initrd_image+0x16460>
   2408c:	e92d4ff0 	push	{r4, r5, r6, r7, r8, r9, sl, fp, lr}
   24090:	e24dd024 	sub	sp, sp, #36	; 0x24
   24094:	e1a08002 	mov	r8, r2
   24098:	e28d200c 	add	r2, sp, #12
   2409c:	e1a0a000 	mov	sl, r0
   240a0:	e59f93c0 	ldr	r9, [pc, #960]	; 24468 <initrd_image+0x16468>
   240a4:	e3a00000 	mov	r0, #0
   240a8:	e58d2004 	str	r2, [sp, #4]
   240ac:	ea000009 	b	240d8 <initrd_image+0x160d8>
   240b0:	e7ca3000 	strb	r3, [sl, r0]
   240b4:	e2800001 	add	r0, r0, #1
   240b8:	e3500c01 	cmp	r0, #256	; 0x100
   240bc:	0a0000a6 	beq	2435c <initrd_image+0x1635c>
   240c0:	e2811001 	add	r1, r1, #1
   240c4:	e35000ff 	cmp	r0, #255	; 0xff
   240c8:	0a000037 	beq	241ac <initrd_image+0x161ac>
   240cc:	e5d13000 	ldrb	r3, [r1]
   240d0:	e3530000 	cmp	r3, #0
   240d4:	0a000034 	beq	241ac <initrd_image+0x161ac>
   240d8:	e3530025 	cmp	r3, #37	; 0x25
   240dc:	1afffff3 	bne	240b0 <initrd_image+0x160b0>
   240e0:	e5d13001 	ldrb	r3, [r1, #1]
   240e4:	e243c030 	sub	ip, r3, #48	; 0x30
   240e8:	e6efc07c 	uxtb	ip, ip
   240ec:	e35c0009 	cmp	ip, #9
   240f0:	83a0c000 	movhi	ip, #0
   240f4:	83a0b020 	movhi	fp, #32
   240f8:	82811001 	addhi	r1, r1, #1
   240fc:	9a000045 	bls	24218 <initrd_image+0x16218>
   24100:	e3530069 	cmp	r3, #105	; 0x69
   24104:	13530064 	cmpne	r3, #100	; 0x64
   24108:	1a000029 	bne	241b4 <initrd_image+0x161b4>
   2410c:	e4983004 	ldr	r3, [r8], #4
   24110:	e2811001 	add	r1, r1, #1
   24114:	e3530000 	cmp	r3, #0
   24118:	a3a07000 	movge	r7, #0
   2411c:	ba00004e 	blt	2425c <initrd_image+0x1625c>
   24120:	e3a05009 	mov	r5, #9
   24124:	e2877009 	add	r7, r7, #9
   24128:	e28d6016 	add	r6, sp, #22
   2412c:	e0842399 	umull	r2, r4, r9, r3
   24130:	e1a041a4 	lsr	r4, r4, #3
   24134:	e0842104 	add	r2, r4, r4, lsl #2
   24138:	e0432082 	sub	r2, r3, r2, lsl #1
   2413c:	e1a0e005 	mov	lr, r5
   24140:	e2822030 	add	r2, r2, #48	; 0x30
   24144:	e2455001 	sub	r5, r5, #1
   24148:	e3530009 	cmp	r3, #9
   2414c:	e6ef2072 	uxtb	r2, r2
   24150:	e1a03004 	mov	r3, r4
   24154:	e0474005 	sub	r4, r7, r5
   24158:	e5662001 	strb	r2, [r6, #-1]!
   2415c:	e6ef4074 	uxtb	r4, r4
   24160:	8afffff1 	bhi	2412c <initrd_image+0x1612c>
   24164:	e15c0004 	cmp	ip, r4
   24168:	8a000043 	bhi	2427c <initrd_image+0x1627c>
   2416c:	e59d4004 	ldr	r4, [sp, #4]
   24170:	e26ec00a 	rsb	ip, lr, #10
   24174:	e2403001 	sub	r3, r0, #1
   24178:	e08a3003 	add	r3, sl, r3
   2417c:	e084e00e 	add	lr, r4, lr
   24180:	e08cc000 	add	ip, ip, r0
   24184:	ea000000 	b	2418c <initrd_image+0x1618c>
   24188:	e5fe2001 	ldrb	r2, [lr, #1]!
   2418c:	e2800001 	add	r0, r0, #1
   24190:	e3500c01 	cmp	r0, #256	; 0x100
   24194:	e5e32001 	strb	r2, [r3, #1]!
   24198:	0affffcb 	beq	240cc <initrd_image+0x160cc>
   2419c:	e15c0000 	cmp	ip, r0
   241a0:	1afffff8 	bne	24188 <initrd_image+0x16188>
   241a4:	e35000ff 	cmp	r0, #255	; 0xff
   241a8:	1affffc7 	bne	240cc <initrd_image+0x160cc>
   241ac:	e28dd024 	add	sp, sp, #36	; 0x24
   241b0:	e8bd8ff0 	pop	{r4, r5, r6, r7, r8, r9, sl, fp, pc}
   241b4:	e353006c 	cmp	r3, #108	; 0x6c
   241b8:	0a00006a 	beq	24368 <initrd_image+0x16368>
   241bc:	e20320f7 	and	r2, r3, #247	; 0xf7
   241c0:	e3520070 	cmp	r2, #112	; 0x70
   241c4:	0a00003d 	beq	242c0 <initrd_image+0x162c0>
   241c8:	e3530063 	cmp	r3, #99	; 0x63
   241cc:	0a00005c 	beq	24344 <initrd_image+0x16344>
   241d0:	e3530025 	cmp	r3, #37	; 0x25
   241d4:	0a000089 	beq	24400 <initrd_image+0x16400>
   241d8:	e3530073 	cmp	r3, #115	; 0x73
   241dc:	1affffb8 	bne	240c4 <initrd_image+0x160c4>
   241e0:	e498c004 	ldr	ip, [r8], #4
   241e4:	e2402001 	sub	r2, r0, #1
   241e8:	e2811001 	add	r1, r1, #1
   241ec:	e08a2002 	add	r2, sl, r2
   241f0:	e04cc000 	sub	ip, ip, r0
   241f4:	ea000003 	b	24208 <initrd_image+0x16208>
   241f8:	e2800001 	add	r0, r0, #1
   241fc:	e3500c01 	cmp	r0, #256	; 0x100
   24200:	e5e23001 	strb	r3, [r2, #1]!
   24204:	0affffb0 	beq	240cc <initrd_image+0x160cc>
   24208:	e7dc3000 	ldrb	r3, [ip, r0]
   2420c:	e3530000 	cmp	r3, #0
   24210:	1afffff8 	bne	241f8 <initrd_image+0x161f8>
   24214:	eaffffaa 	b	240c4 <initrd_image+0x160c4>
   24218:	e3530030 	cmp	r3, #48	; 0x30
   2421c:	e5d13002 	ldrb	r3, [r1, #2]
   24220:	03a0b030 	moveq	fp, #48	; 0x30
   24224:	e2432030 	sub	r2, r3, #48	; 0x30
   24228:	13a0b020 	movne	fp, #32
   2422c:	e3520009 	cmp	r2, #9
   24230:	e2811002 	add	r1, r1, #2
   24234:	8affffb1 	bhi	24100 <initrd_image+0x16100>
   24238:	e08cc10c 	add	ip, ip, ip, lsl #2
   2423c:	e083c08c 	add	ip, r3, ip, lsl #1
   24240:	e5f13001 	ldrb	r3, [r1, #1]!
   24244:	e24cc030 	sub	ip, ip, #48	; 0x30
   24248:	e2432030 	sub	r2, r3, #48	; 0x30
   2424c:	e3520009 	cmp	r2, #9
   24250:	e20cc0ff 	and	ip, ip, #255	; 0xff
   24254:	9afffff7 	bls	24238 <initrd_image+0x16238>
   24258:	eaffffa8 	b	24100 <initrd_image+0x16100>
   2425c:	e3a0202d 	mov	r2, #45	; 0x2d
   24260:	e7ca2000 	strb	r2, [sl, r0]
   24264:	e2800001 	add	r0, r0, #1
   24268:	e3500c01 	cmp	r0, #256	; 0x100
   2426c:	0a00003a 	beq	2435c <initrd_image+0x1635c>
   24270:	e3a07001 	mov	r7, #1
   24274:	e2633000 	rsb	r3, r3, #0
   24278:	eaffffa8 	b	24120 <initrd_image+0x16120>
   2427c:	e04c4004 	sub	r4, ip, r4
   24280:	e3540000 	cmp	r4, #0
   24284:	daffffb8 	ble	2416c <initrd_image+0x1616c>
   24288:	e35000ff 	cmp	r0, #255	; 0xff
   2428c:	e7cab000 	strb	fp, [sl, r0]
   24290:	e08ac000 	add	ip, sl, r0
   24294:	e2803001 	add	r3, r0, #1
   24298:	0a000006 	beq	242b8 <initrd_image+0x162b8>
   2429c:	e0840000 	add	r0, r4, r0
   242a0:	e1500003 	cmp	r0, r3
   242a4:	e2833001 	add	r3, r3, #1
   242a8:	0affffaf 	beq	2416c <initrd_image+0x1616c>
   242ac:	e3530c01 	cmp	r3, #256	; 0x100
   242b0:	e5ecb001 	strb	fp, [ip, #1]!
   242b4:	1afffff9 	bne	242a0 <initrd_image+0x162a0>
   242b8:	e3a00c01 	mov	r0, #256	; 0x100
   242bc:	eaffffaa 	b	2416c <initrd_image+0x1616c>
   242c0:	e3a0e009 	mov	lr, #9
   242c4:	e4982004 	ldr	r2, [r8], #4
   242c8:	e2811001 	add	r1, r1, #1
   242cc:	e28d5016 	add	r5, sp, #22
   242d0:	ea000000 	b	242d8 <initrd_image+0x162d8>
   242d4:	e1a0e006 	mov	lr, r6
   242d8:	e202300f 	and	r3, r2, #15
   242dc:	e3530009 	cmp	r3, #9
   242e0:	92833030 	addls	r3, r3, #48	; 0x30
   242e4:	82833057 	addhi	r3, r3, #87	; 0x57
   242e8:	e26e400a 	rsb	r4, lr, #10
   242ec:	e352000f 	cmp	r2, #15
   242f0:	e24e6001 	sub	r6, lr, #1
   242f4:	e1a02222 	lsr	r2, r2, #4
   242f8:	e5653001 	strb	r3, [r5, #-1]!
   242fc:	e6ef7074 	uxtb	r7, r4
   24300:	8afffff3 	bhi	242d4 <initrd_image+0x162d4>
   24304:	e15c0007 	cmp	ip, r7
   24308:	8a000042 	bhi	24418 <initrd_image+0x16418>
   2430c:	e59d2004 	ldr	r2, [sp, #4]
   24310:	e0844000 	add	r4, r4, r0
   24314:	e082e00e 	add	lr, r2, lr
   24318:	e2402001 	sub	r2, r0, #1
   2431c:	e08a2002 	add	r2, sl, r2
   24320:	ea000000 	b	24328 <initrd_image+0x16328>
   24324:	e5fe3001 	ldrb	r3, [lr, #1]!
   24328:	e2800001 	add	r0, r0, #1
   2432c:	e3500c01 	cmp	r0, #256	; 0x100
   24330:	e5e23001 	strb	r3, [r2, #1]!
   24334:	0affff64 	beq	240cc <initrd_image+0x160cc>
   24338:	e1500004 	cmp	r0, r4
   2433c:	1afffff8 	bne	24324 <initrd_image+0x16324>
   24340:	eaffff5f 	b	240c4 <initrd_image+0x160c4>
   24344:	e4983004 	ldr	r3, [r8], #4
   24348:	e2811001 	add	r1, r1, #1
   2434c:	e7ca3000 	strb	r3, [sl, r0]
   24350:	e2800001 	add	r0, r0, #1
   24354:	e3500c01 	cmp	r0, #256	; 0x100
   24358:	1affff59 	bne	240c4 <initrd_image+0x160c4>
   2435c:	e3a00c01 	mov	r0, #256	; 0x100
   24360:	e28dd024 	add	sp, sp, #36	; 0x24
   24364:	e8bd8ff0 	pop	{r4, r5, r6, r7, r8, r9, sl, fp, pc}
   24368:	e2888007 	add	r8, r8, #7
   2436c:	e3c88007 	bic	r8, r8, #7
   24370:	e598c004 	ldr	ip, [r8, #4]
   24374:	e3a0e011 	mov	lr, #17
   24378:	e4983008 	ldr	r3, [r8], #8
   2437c:	e2811003 	add	r1, r1, #3
   24380:	e28d401e 	add	r4, sp, #30
   24384:	ea000000 	b	2438c <initrd_image+0x1638c>
   24388:	e1a0e005 	mov	lr, r5
   2438c:	e3a05000 	mov	r5, #0
   24390:	e203200f 	and	r2, r3, #15
   24394:	e352000a 	cmp	r2, #10
   24398:	e2d55000 	sbcs	r5, r5, #0
   2439c:	32822030 	addcc	r2, r2, #48	; 0x30
   243a0:	22822057 	addcs	r2, r2, #87	; 0x57
   243a4:	e3530010 	cmp	r3, #16
   243a8:	e2dc5000 	sbcs	r5, ip, #0
   243ac:	e1a03223 	lsr	r3, r3, #4
   243b0:	e1833e0c 	orr	r3, r3, ip, lsl #28
   243b4:	e24e5001 	sub	r5, lr, #1
   243b8:	e1a0c22c 	lsr	ip, ip, #4
   243bc:	e5642001 	strb	r2, [r4, #-1]!
   243c0:	2afffff0 	bcs	24388 <initrd_image+0x16388>
   243c4:	e59d3004 	ldr	r3, [sp, #4]
   243c8:	e240c001 	sub	ip, r0, #1
   243cc:	e2804012 	add	r4, r0, #18
   243d0:	e08ac00c 	add	ip, sl, ip
   243d4:	e044400e 	sub	r4, r4, lr
   243d8:	e083300e 	add	r3, r3, lr
   243dc:	ea000000 	b	243e4 <initrd_image+0x163e4>
   243e0:	e5f32001 	ldrb	r2, [r3, #1]!
   243e4:	e2800001 	add	r0, r0, #1
   243e8:	e3500c01 	cmp	r0, #256	; 0x100
   243ec:	e5ec2001 	strb	r2, [ip, #1]!
   243f0:	0affff35 	beq	240cc <initrd_image+0x160cc>
   243f4:	e1500004 	cmp	r0, r4
   243f8:	1afffff8 	bne	243e0 <initrd_image+0x163e0>
   243fc:	eaffff30 	b	240c4 <initrd_image+0x160c4>
   24400:	e7ca3000 	strb	r3, [sl, r0]
   24404:	e2800001 	add	r0, r0, #1
   24408:	e3500c01 	cmp	r0, #256	; 0x100
   2440c:	e2811001 	add	r1, r1, #1
   24410:	1affff2b 	bne	240c4 <initrd_image+0x160c4>
   24414:	eaffffd0 	b	2435c <initrd_image+0x1635c>
   24418:	e04cc007 	sub	ip, ip, r7
   2441c:	e35c0000 	cmp	ip, #0
   24420:	daffffb9 	ble	2430c <initrd_image+0x1630c>
   24424:	e35000ff 	cmp	r0, #255	; 0xff
   24428:	e7cab000 	strb	fp, [sl, r0]
   2442c:	e08a5000 	add	r5, sl, r0
   24430:	e2802001 	add	r2, r0, #1
   24434:	0a000007 	beq	24458 <initrd_image+0x16458>
   24438:	e08c0000 	add	r0, ip, r0
   2443c:	e1a0c005 	mov	ip, r5
   24440:	e1520000 	cmp	r2, r0
   24444:	e2822001 	add	r2, r2, #1
   24448:	0affffaf 	beq	2430c <initrd_image+0x1630c>
   2444c:	e3520c01 	cmp	r2, #256	; 0x100
   24450:	e5ecb001 	strb	fp, [ip, #1]!
   24454:	1afffff9 	bne	24440 <initrd_image+0x16440>
   24458:	e3a00c01 	mov	r0, #256	; 0x100
   2445c:	eaffffaa 	b	2430c <initrd_image+0x1630c>
   24460:	e1a00003 	mov	r0, r3
   24464:	e12fff1e 	bx	lr
   24468:	cccccccd 	stclgt	12, cr12, [ip], {205}	; 0xcd
   2446c:	e92d000f 	push	{r0, r1, r2, r3}
   24470:	e92d4030 	push	{r4, r5, lr}
   24474:	e24ddf43 	sub	sp, sp, #268	; 0x10c
   24478:	e28d5008 	add	r5, sp, #8
   2447c:	e28d2f47 	add	r2, sp, #284	; 0x11c
   24480:	e59d1118 	ldr	r1, [sp, #280]	; 0x118
   24484:	e1a00005 	mov	r0, r5
   24488:	e58d2004 	str	r2, [sp, #4]
   2448c:	ebfffefb 	bl	24080 <initrd_image+0x16080>
   24490:	e1a04000 	mov	r4, r0
   24494:	e1a01005 	mov	r1, r5
   24498:	e1a02004 	mov	r2, r4
   2449c:	e3a00001 	mov	r0, #1
   244a0:	eb00001c 	bl	24518 <initrd_image+0x16518>
   244a4:	e1a00004 	mov	r0, r4
   244a8:	e28ddf43 	add	sp, sp, #268	; 0x10c
   244ac:	e8bd4030 	pop	{r4, r5, lr}
   244b0:	e28dd010 	add	sp, sp, #16
   244b4:	e12fff1e 	bx	lr
   244b8:	e92d000e 	push	{r1, r2, r3}
   244bc:	e92d4010 	push	{r4, lr}
   244c0:	e24dd00c 	sub	sp, sp, #12
   244c4:	e28d2018 	add	r2, sp, #24
   244c8:	e59d1014 	ldr	r1, [sp, #20]
   244cc:	e1a04000 	mov	r4, r0
   244d0:	e58d2004 	str	r2, [sp, #4]
   244d4:	ebfffee9 	bl	24080 <initrd_image+0x16080>
   244d8:	e3a02000 	mov	r2, #0
   244dc:	e7c42000 	strb	r2, [r4, r0]
   244e0:	e28dd00c 	add	sp, sp, #12
   244e4:	e8bd4010 	pop	{r4, lr}
   244e8:	e28dd00c 	add	sp, sp, #12
   244ec:	e12fff1e 	bx	lr
   244f0:	e52d7004 	push	{r7}		; (str r7, [sp, #-4]!)
   244f4:	e3a07001 	mov	r7, #1
   244f8:	ef000000 	svc	0x00000000
   244fc:	e49d7004 	pop	{r7}		; (ldr r7, [sp], #4)
   24500:	e12fff1e 	bx	lr
   24504:	e52d7004 	push	{r7}		; (str r7, [sp, #-4]!)
   24508:	e3a07003 	mov	r7, #3
   2450c:	ef000000 	svc	0x00000000
   24510:	e49d7004 	pop	{r7}		; (ldr r7, [sp], #4)
   24514:	e12fff1e 	bx	lr
   24518:	e52d7004 	push	{r7}		; (str r7, [sp, #-4]!)
   2451c:	e3a07004 	mov	r7, #4
   24520:	ef000000 	svc	0x00000000
   24524:	e49d7004 	pop	{r7}		; (ldr r7, [sp], #4)
   24528:	e12fff1e 	bx	lr
   2452c:	e52d7004 	push	{r7}		; (str r7, [sp, #-4]!)
   24530:	e3a07005 	mov	r7, #5
   24534:	ef000000 	svc	0x00000000
   24538:	e49d7004 	pop	{r7}		; (ldr r7, [sp], #4)
   2453c:	e12fff1e 	bx	lr
   24540:	e52d7004 	push	{r7}		; (str r7, [sp, #-4]!)
   24544:	e3a07006 	mov	r7, #6
   24548:	ef000000 	svc	0x00000000
   2454c:	e49d7004 	pop	{r7}		; (ldr r7, [sp], #4)
   24550:	e12fff1e 	bx	lr
   24554:	e52d7004 	push	{r7}		; (str r7, [sp, #-4]!)
   24558:	e3a07007 	mov	r7, #7
   2455c:	ef000000 	svc	0x00000000
   24560:	e49d7004 	pop	{r7}		; (ldr r7, [sp], #4)
   24564:	e12fff1e 	bx	lr
   24568:	e52d7004 	push	{r7}		; (str r7, [sp, #-4]!)
   2456c:	e3a0700b 	mov	r7, #11
   24570:	ef000000 	svc	0x00000000
   24574:	e49d7004 	pop	{r7}		; (ldr r7, [sp], #4)
   24578:	e12fff1e 	bx	lr
   2457c:	e52d7004 	push	{r7}		; (str r7, [sp, #-4]!)
   24580:	e3a0700c 	mov	r7, #12
   24584:	ef000000 	svc	0x00000000
   24588:	e49d7004 	pop	{r7}		; (ldr r7, [sp], #4)
   2458c:	e12fff1e 	bx	lr
   24590:	e52d7004 	push	{r7}		; (str r7, [sp, #-4]!)
   24594:	e3a070b7 	mov	r7, #183	; 0xb7
   24598:	ef000000 	svc	0x00000000
   2459c:	e49d7004 	pop	{r7}		; (ldr r7, [sp], #4)
   245a0:	e12fff1e 	bx	lr
   245a4:	e52d7004 	push	{r7}		; (str r7, [sp, #-4]!)
   245a8:	e3a07014 	mov	r7, #20
   245ac:	ef000000 	svc	0x00000000
   245b0:	e49d7004 	pop	{r7}		; (ldr r7, [sp], #4)
   245b4:	e12fff1e 	bx	lr
   245b8:	e52d7004 	push	{r7}		; (str r7, [sp, #-4]!)
   245bc:	e3a0702b 	mov	r7, #43	; 0x2b
   245c0:	ef000000 	svc	0x00000000
   245c4:	e49d7004 	pop	{r7}		; (ldr r7, [sp], #4)
   245c8:	e12fff1e 	bx	lr
   245cc:	e52d7004 	push	{r7}		; (str r7, [sp, #-4]!)
   245d0:	e3a0706a 	mov	r7, #106	; 0x6a
   245d4:	ef000000 	svc	0x00000000
   245d8:	e49d7004 	pop	{r7}		; (ldr r7, [sp], #4)
   245dc:	e12fff1e 	bx	lr
   245e0:	e52d7004 	push	{r7}		; (str r7, [sp, #-4]!)
   245e4:	e3a07074 	mov	r7, #116	; 0x74
   245e8:	ef000000 	svc	0x00000000
   245ec:	e49d7004 	pop	{r7}		; (ldr r7, [sp], #4)
   245f0:	e12fff1e 	bx	lr
   245f4:	e52d7004 	push	{r7}		; (str r7, [sp, #-4]!)
   245f8:	e3a0707a 	mov	r7, #122	; 0x7a
   245fc:	ef000000 	svc	0x00000000
   24600:	e49d7004 	pop	{r7}		; (ldr r7, [sp], #4)
   24604:	e12fff1e 	bx	lr
   24608:	e52d7004 	push	{r7}		; (str r7, [sp, #-4]!)
   2460c:	e3a0708d 	mov	r7, #141	; 0x8d
   24610:	ef000000 	svc	0x00000000
   24614:	e49d7004 	pop	{r7}		; (ldr r7, [sp], #4)
   24618:	e12fff1e 	bx	lr
   2461c:	e52d7004 	push	{r7}		; (str r7, [sp, #-4]!)
   24620:	e3a070a2 	mov	r7, #162	; 0xa2
   24624:	ef000000 	svc	0x00000000
   24628:	e49d7004 	pop	{r7}		; (ldr r7, [sp], #4)
   2462c:	e12fff1e 	bx	lr
   24630:	e52d7004 	push	{r7}		; (str r7, [sp, #-4]!)
   24634:	e3a070be 	mov	r7, #190	; 0xbe
   24638:	ef000000 	svc	0x00000000
   2463c:	e49d7004 	pop	{r7}		; (ldr r7, [sp], #4)
   24640:	e12fff1e 	bx	lr
   24644:	e52d7004 	push	{r7}		; (str r7, [sp, #-4]!)
   24648:	e3a07036 	mov	r7, #54	; 0x36
   2464c:	ef000000 	svc	0x00000000
   24650:	e49d7004 	pop	{r7}		; (ldr r7, [sp], #4)
   24654:	e12fff1e 	bx	lr
   24658:	e52d7004 	push	{r7}		; (str r7, [sp, #-4]!)
   2465c:	e3a07036 	mov	r7, #54	; 0x36
   24660:	ef000000 	svc	0x00000000
   24664:	e49d7004 	pop	{r7}		; (ldr r7, [sp], #4)
   24668:	e12fff1e 	bx	lr
   2466c:	e52d7004 	push	{r7}		; (str r7, [sp, #-4]!)
   24670:	e3a0700d 	mov	r7, #13
   24674:	ef000000 	svc	0x00000000
   24678:	e49d7004 	pop	{r7}		; (ldr r7, [sp], #4)
   2467c:	e12fff1e 	bx	lr
   24680:	e52d7004 	push	{r7}		; (str r7, [sp, #-4]!)
   24684:	e3a07058 	mov	r7, #88	; 0x58
   24688:	ef000000 	svc	0x00000000
   2468c:	e49d7004 	pop	{r7}		; (ldr r7, [sp], #4)
   24690:	e12fff1e 	bx	lr
   24694:	e92d4010 	push	{r4, lr}
   24698:	e24dde19 	sub	sp, sp, #400	; 0x190
   2469c:	e28d4008 	add	r4, sp, #8
   246a0:	e1a00004 	mov	r0, r4
   246a4:	ebffffd2 	bl	245f4 <initrd_image+0x165f4>
   246a8:	e59f0024 	ldr	r0, [pc, #36]	; 246d4 <initrd_image+0x166d4>
   246ac:	e28d3f43 	add	r3, sp, #268	; 0x10c
   246b0:	e58d3000 	str	r3, [sp]
   246b4:	e1a01004 	mov	r1, r4
   246b8:	e28d308a 	add	r3, sp, #138	; 0x8a
   246bc:	e28d2049 	add	r2, sp, #73	; 0x49
   246c0:	e08f0000 	add	r0, pc, r0
   246c4:	ebffff68 	bl	2446c <initrd_image+0x1646c>
   246c8:	e3a00000 	mov	r0, #0
   246cc:	e28dde19 	add	sp, sp, #400	; 0x190
   246d0:	e8bd8010 	pop	{r4, pc}
   246d4:	000009a8 	andeq	r0, r0, r8, lsr #19
	...
   25070:	25207325 	strcs	r7, [r0, #-805]!	; 0xfffffcdb
   25074:	73252073 			; <UNDEFINED> instruction: 0x73252073
   25078:	0a732520 	beq	1cee500 <__bss_end+0x1cb5500>
   2507c:	00000000 	andeq	r0, r0, r0
   25080:	09000000 	stmdbeq	r0, {}	; <UNPREDICTABLE>
   25084:	a0700100 	rsbsge	r0, r0, r0, lsl #2
   25088:	00000000 	andeq	r0, r0, r0
   2508c:	f2218f97 	vrsqrts.f32	d8, d17, d7
   25090:	656d6f68 	strbvs	r6, [sp, #-3944]!	; 0xfffff098
	...
   250a0:	c0700100 	rsbsgt	r0, r0, r0, lsl #2
   250a4:	80700100 	rsbshi	r0, r0, r0, lsl #2
   250a8:	00000000 	andeq	r0, r0, r0
   250ac:	c01efdd1 			; <UNDEFINED> instruction: 0xc01efdd1
   250b0:	0000002e 	andeq	r0, r0, lr, lsr #32
	...
   250c0:	e0700100 	rsbs	r0, r0, r0, lsl #2
   250c4:	20000000 	andcs	r0, r0, r0
   250c8:	00000000 	andeq	r0, r0, r0
   250cc:	008fd0d1 	ldrdeq	sp, [pc], r1
   250d0:	00002e2e 	andeq	r2, r0, lr, lsr #28
	...
   250e0:	49710100 	ldmdbmi	r1!, {r8}^
   250e4:	00710100 	rsbseq	r0, r1, r0, lsl #2
   250e8:	00000000 	andeq	r0, r0, r0
   250ec:	4eaa8e2b 	cdpmi	14, 10, cr8, cr10, cr11, {1}
   250f0:	69736e61 	ldmdbvs	r3!, {r0, r5, r6, r9, sl, fp, sp, lr}^
   250f4:	00000073 	andeq	r0, r0, r3, ror r0
	...
   25100:	20710100 	rsbscs	r0, r1, r0, lsl #2
   25104:	e0700100 	rsbs	r0, r0, r0, lsl #2
   25108:	00000000 	andeq	r0, r0, r0
   2510c:	001efdd1 			; <UNDEFINED> instruction: 0x001efdd1
   25110:	0000002e 	andeq	r0, r0, lr, lsr #32
	...
   25124:	80700100 	rsbshi	r0, r0, r0, lsl #2
   25128:	00000000 	andeq	r0, r0, r0
   2512c:	808fd0d1 	ldrdhi	sp, [pc], r1
   25130:	00002e2e 	andeq	r2, r0, lr, lsr #28
	...
   25140:	0a000000 	beq	25148 <initrd_image+0x17148>
   25144:	00000000 	andeq	r0, r0, r0
   25148:	3c000000 	stccc	0, cr0, [r0], {-0}
   2514c:	6dabbe77 	stcvs	14, cr11, [fp, #476]!	; 0x1dc
   25150:	4d544143 	ldfmie	f4, [r4, #-268]	; 0xfffffef4
   25154:	00000045 	andeq	r0, r0, r5, asr #32
	...
   25160:	74736554 	ldrbtvc	r6, [r3], #-1364	; 0xfffffaac
   25164:	20676e69 	rsbcs	r6, r7, r9, ror #28
   25168:	73206f74 			; <UNDEFINED> instruction: 0x73206f74
   2516c:	69206565 	stmdbvs	r0!, {r0, r2, r5, r6, r8, sl, sp, lr}
   25170:	69662066 	stmdbvs	r6!, {r1, r2, r5, r6, sp}^
   25174:	4920656c 	stmdbmi	r0!, {r2, r3, r5, r6, r8, sl, sp, lr}
   25178:	77204f2f 	strvc	r4, [r0, -pc, lsr #30]!
   2517c:	736b726f 	cmnvc	fp, #-268435450	; 0xf0000006
   25180:	540a0a2e 	strpl	r0, [sl], #-2606	; 0xfffff5d2
   25184:	61206568 			; <UNDEFINED> instruction: 0x61206568
   25188:	6577736e 	ldrbvs	r7, [r7, #-878]!	; 0xfffffc92
   2518c:	73692072 	cmnvc	r9, #114	; 0x72
   25190:	202e2e2e 	eorcs	r2, lr, lr, lsr #28
   25194:	6279616d 	rsbsvs	r6, r9, #1073741851	; 0x4000001b
   25198:	0a0a3f65 	beq	2b4f34 <__bss_end+0x27bf34>
	...

00025400 <hardware_type>:
   25400:	00000009 	andeq	r0, r0, r9

00025404 <led_gpio>:
   25404:	00000010 	andeq	r0, r0, r0, lsl r0

00025408 <led_active_low>:
   25408:	00000001 	andeq	r0, r0, r1

0002540c <blinking_enabled>:
   2540c:	00000001 	andeq	r0, r0, r1

00025410 <scheduling_enabled>:
   25410:	00000001 	andeq	r0, r0, r1

Disassembly of section .bss:

00028000 <device_tree_found>:
   28000:	00000000 	andeq	r0, r0, r0

00028004 <hardware_revision>:
   28004:	00000000 	andeq	r0, r0, r0

00028008 <cmdline>:
	...

00028408 <io_base>:
   28408:	00000000 	andeq	r0, r0, r0

0002840c <act_led_gpio>:
   2840c:	00000000 	andeq	r0, r0, r0

00028410 <device_tree>:
	...

0002843c <num_interrupts>:
   2843c:	00000000 	andeq	r0, r0, r0

00028440 <fd_table>:
	...

000285c0 <root_dir>:
   285c0:	00000000 	andeq	r0, r0, r0

000285c4 <superblock_table>:
	...

00028604 <ramdisk_info>:
	...

00028610 <input_buffer_head>:
   28610:	00000000 	andeq	r0, r0, r0

00028614 <input_buffer_tail>:
   28614:	00000000 	andeq	r0, r0, r0

00028618 <input_buffer>:
	...

00028718 <console_wait_queue>:
   28718:	00000000 	andeq	r0, r0, r0

0002871c <console_read_mutex>:
   2871c:	00000000 	andeq	r0, r0, r0

00028720 <console_write_mutex>:
   28720:	00000000 	andeq	r0, r0, r0

00028724 <led_configured>:
   28724:	00000000 	andeq	r0, r0, r0

00028728 <serial>:
	...

00028750 <tick_counter>:
   28750:	00000000 	andeq	r0, r0, r0

00028754 <timer_next_wakeup>:
   28754:	00000000 	andeq	r0, r0, r0

00028758 <timer_wait_queue>:
   28758:	00000000 	andeq	r0, r0, r0

0002875c <lit.0>:
   2875c:	00000000 	andeq	r0, r0, r0

00028760 <gpio_reserved>:
	...

00028768 <max_chunk>:
   28768:	00000000 	andeq	r0, r0, r0

0002876c <i.0>:
   2876c:	00000000 	andeq	r0, r0, r0

00028770 <memory_total>:
   28770:	00000000 	andeq	r0, r0, r0

00028774 <memory_map>:
	...

00034000 <page_table>:
	...

00038000 <proc_first>:
   38000:	00000000 	andeq	r0, r0, r0

00038004 <avail_pid>:
   38004:	00000000 	andeq	r0, r0, r0

00038008 <current_process>:
   38008:	00000000 	andeq	r0, r0, r0

0003800c <userspace_started>:
   3800c:	00000000 	andeq	r0, r0, r0

00038010 <waitpid_wait_queue>:
   38010:	00000000 	andeq	r0, r0, r0

Disassembly of section .comment:

00000000 <.comment>:
   0:	3a434347 	bcc	10d0d24 <__bss_end+0x1097d24>
   4:	35312820 	ldrcc	r2, [r1, #-2080]!	; 0xfffff7e0
   8:	2e30313a 	mrccs	1, 1, r3, cr0, cr10, {1}
   c:	30322d33 	eorscc	r2, r2, r3, lsr sp
  10:	302e3132 	eorcc	r3, lr, r2, lsr r1
  14:	29342d37 	ldmdbcs	r4!, {r0, r1, r2, r4, r5, r8, sl, fp, sp}
  18:	2e303120 	rsfcssp	f3, f0, f0
  1c:	20312e33 	eorscs	r2, r1, r3, lsr lr
  20:	31323032 	teqcc	r2, r2, lsr r0
  24:	31323630 	teqcc	r2, r0, lsr r6
  28:	65722820 	ldrbvs	r2, [r2, #-2080]!	; 0xfffff7e0
  2c:	7361656c 	cmnvc	r1, #108, 10	; 0x1b000000
  30:	Address 0x0000000000000030 is out of bounds.


Disassembly of section .ARM.attributes:

00000000 <.ARM.attributes>:
   0:	00003841 	andeq	r3, r0, r1, asr #16
   4:	61656100 	cmnvs	r5, r0, lsl #2
   8:	01006962 	tsteq	r0, r2, ror #18
   c:	0000002e 	andeq	r0, r0, lr, lsr #32
  10:	726f4305 	rsbvc	r4, pc, #335544320	; 0x14000000
  14:	2d786574 	cfldr64cs	mvdx6, [r8, #-464]!	; 0xfffffe30
  18:	06003741 	streq	r3, [r0], -r1, asr #14
  1c:	0841070a 	stmdaeq	r1, {r1, r3, r8, r9, sl}^
  20:	12020901 	andne	r0, r2, #16384	; 0x4000
  24:	15011404 	strne	r1, [r1, #-1028]	; 0xfffffbfc
  28:	18031701 	stmdane	r3, {r0, r8, r9, sl, ip}
  2c:	1e011a01 	vmlane.f32	s2, s2, s2
  30:	2a012202 	bcs	48840 <__bss_end+0xf840>
  34:	44022c01 	strmi	r2, [r2], #-3073	; 0xfffff3ff
  38:	Address 0x0000000000000038 is out of bounds.

