
kernel7.elf:     file format elf32-littlearm


Disassembly of section .text:

00008000 <__start>:
    8000:	e59ff018 	ldr	pc, [pc, #24]	; 8020 <reset_addr>
    8004:	e59ff018 	ldr	pc, [pc, #24]	; 8024 <undefined_instruction_addr>
    8008:	e59ff018 	ldr	pc, [pc, #24]	; 8028 <software_interrupt_addr>
    800c:	e59ff018 	ldr	pc, [pc, #24]	; 802c <prefetch_abort_addr>
    8010:	e59ff018 	ldr	pc, [pc, #24]	; 8030 <data_abort_addr>
    8014:	e59ff018 	ldr	pc, [pc, #24]	; 8034 <unused_handler_addr>
    8018:	e59ff018 	ldr	pc, [pc, #24]	; 8038 <interrupt_addr>
    801c:	e59ff018 	ldr	pc, [pc, #24]	; 803c <fast_interrupt_addr>

00008020 <reset_addr>:
    8020:	00008040 	andeq	r8, r0, r0, asr #32

00008024 <undefined_instruction_addr>:
    8024:	000094a0 	andeq	r9, r0, r0, lsr #9

00008028 <software_interrupt_addr>:
    8028:	00009630 	andeq	r9, r0, r0, lsr r6

0000802c <prefetch_abort_addr>:
    802c:	00009488 	andeq	r9, r0, r8, lsl #9

00008030 <data_abort_addr>:
    8030:	00009488 	andeq	r9, r0, r8, lsl #9

00008034 <unused_handler_addr>:
    8034:	000094a0 	andeq	r9, r0, r0, lsr #9

00008038 <interrupt_addr>:
    8038:	000094b8 			; <UNDEFINED> instruction: 0x000094b8

0000803c <fast_interrupt_addr>:
    803c:	00009470 	andeq	r9, r0, r0, ror r4

00008040 <reset>:
    8040:	ee103fb0 	mrc	15, 0, r3, cr0, cr0, {5}
    8044:	e2133003 	ands	r3, r3, #3
    8048:	1a000023 	bne	80dc <wait_forever>
    804c:	f10c00c0 	cpsid	if
    8050:	e10f3000 	mrs	r3, CPSR
    8054:	e203401f 	and	r4, r3, #31
    8058:	e354001a 	cmp	r4, #26
    805c:	1a000006 	bne	807c <done_hyp>
    8060:	e3c3301f 	bic	r3, r3, #31
    8064:	e38330d3 	orr	r3, r3, #211	; 0xd3
    8068:	e3833c01 	orr	r3, r3, #256	; 0x100
    806c:	e28fe010 	add	lr, pc, #16
    8070:	e16ff003 	msr	SPSR_fsxc, r3
    8074:	e12ef30e 	msr	ELR_hyp, lr
    8078:	e160006e 	eret

0000807c <done_hyp>:
    807c:	e38330d3 	orr	r3, r3, #211	; 0xd3
    8080:	e121f003 	msr	CPSR_c, r3

00008084 <done_pi2>:
    8084:	e3a0d902 	mov	sp, #32768	; 0x8000
    8088:	e3a030d2 	mov	r3, #210	; 0xd2
    808c:	e121f003 	msr	CPSR_c, r3
    8090:	e3a0d901 	mov	sp, #16384	; 0x4000
    8094:	e3a030d3 	mov	r3, #211	; 0xd3
    8098:	e121f003 	msr	CPSR_c, r3
    809c:	e59f3040 	ldr	r3, [pc, #64]	; 80e4 <wait_forever+0x8>
    80a0:	e3a04000 	mov	r4, #0
    80a4:	e8b31fe0 	ldm	r3!, {r5, r6, r7, r8, r9, sl, fp, ip}
    80a8:	e8a41fe0 	stmia	r4!, {r5, r6, r7, r8, r9, sl, fp, ip}
    80ac:	e8b31fe0 	ldm	r3!, {r5, r6, r7, r8, r9, sl, fp, ip}
    80b0:	e8a41fe0 	stmia	r4!, {r5, r6, r7, r8, r9, sl, fp, ip}
    80b4:	e59f402c 	ldr	r4, [pc, #44]	; 80e8 <wait_forever+0xc>
    80b8:	e59f902c 	ldr	r9, [pc, #44]	; 80ec <wait_forever+0x10>
    80bc:	e3a05000 	mov	r5, #0

000080c0 <clear_bss>:
    80c0:	e5845000 	str	r5, [r4]
    80c4:	e2844004 	add	r4, r4, #4
    80c8:	e1540009 	cmp	r4, r9
    80cc:	dafffffb 	ble	80c0 <clear_bss>
    80d0:	e59f3014 	ldr	r3, [pc, #20]	; 80ec <wait_forever+0x10>
    80d4:	e59f4014 	ldr	r4, [pc, #20]	; 80f0 <wait_forever+0x14>
    80d8:	e12fff34 	blx	r4

000080dc <wait_forever>:
    80dc:	e320f002 	wfe
    80e0:	eafffffd 	b	80dc <wait_forever>
    80e4:	00008000 	andeq	r8, r0, r0
    80e8:	00026000 	andeq	r6, r2, r0
    80ec:	00039000 	andeq	r9, r3, r0
    80f0:	000080f4 	strdeq	r8, [r0], -r4

000080f4 <kernel_main>:
    80f4:	e92d4080 	push	{r7, lr}
    80f8:	e1a04001 	mov	r4, r1
    80fc:	e1a05002 	mov	r5, r2
    8100:	e1a07000 	mov	r7, r0
    8104:	e1a06003 	mov	r6, r3
    8108:	e24dd008 	sub	sp, sp, #8
    810c:	e1a00002 	mov	r0, r2
    8110:	eb000030 	bl	81d8 <hardware_detect>
    8114:	eb0001a0 	bl	879c <hardware_setup_vars>
    8118:	e3a00001 	mov	r0, #1
    811c:	eb0009fd 	bl	a918 <serial_init>
    8120:	e59f0084 	ldr	r0, [pc, #132]	; 81ac <kernel_main+0xb8>
    8124:	eb00126a 	bl	cad4 <serial_printk>
    8128:	e1a03005 	mov	r3, r5
    812c:	e1a02004 	mov	r2, r4
    8130:	e1a01007 	mov	r1, r7
    8134:	e59f0074 	ldr	r0, [pc, #116]	; 81b0 <kernel_main+0xbc>
    8138:	eb001254 	bl	ca90 <printk>
    813c:	e59f0070 	ldr	r0, [pc, #112]	; 81b4 <kernel_main+0xc0>
    8140:	eb001252 	bl	ca90 <printk>
    8144:	e59f106c 	ldr	r1, [pc, #108]	; 81b8 <kernel_main+0xc4>
    8148:	e59f006c 	ldr	r0, [pc, #108]	; 81bc <kernel_main+0xc8>
    814c:	eb00124f 	bl	ca90 <printk>
    8150:	e1a00004 	mov	r0, r4
    8154:	eb0000e3 	bl	84e8 <hardware_print_model>
    8158:	eb000162 	bl	86e8 <hardware_print_commandline>
    815c:	eb000443 	bl	9270 <platform_irq_enable>
    8160:	eb000910 	bl	a5a8 <drivers_init_all>
    8164:	e1a00006 	mov	r0, r6
    8168:	eb000da5 	bl	b804 <memory_hierarchy_init>
    816c:	eb000758 	bl	9ed4 <fd_table_init>
    8170:	e3a01b5d 	mov	r1, #95232	; 0x17400
    8174:	e59f0044 	ldr	r0, [pc, #68]	; 81c0 <kernel_main+0xcc>
    8178:	eb000931 	bl	a644 <ramdisk_init>
    817c:	e3a03000 	mov	r3, #0
    8180:	e59f203c 	ldr	r2, [pc, #60]	; 81c4 <kernel_main+0xd0>
    8184:	e59f103c 	ldr	r1, [pc, #60]	; 81c8 <kernel_main+0xd4>
    8188:	e58d3000 	str	r3, [sp]
    818c:	e59f0038 	ldr	r0, [pc, #56]	; 81cc <kernel_main+0xd8>
    8190:	eb00073d 	bl	9e8c <mount>
    8194:	eb000f20 	bl	be1c <create_idle_task>
    8198:	e59f0030 	ldr	r0, [pc, #48]	; 81d0 <kernel_main+0xdc>
    819c:	eb000f7c 	bl	bf94 <start_userspace>
    81a0:	e59f002c 	ldr	r0, [pc, #44]	; 81d4 <kernel_main+0xe0>
    81a4:	eb001239 	bl	ca90 <printk>
    81a8:	eafffffe 	b	81a8 <kernel_main+0xb4>
    81ac:	0000d000 	andeq	sp, r0, r0
    81b0:	0000d018 	andeq	sp, r0, r8, lsl r0
    81b4:	0000d03c 	andeq	sp, r0, ip, lsr r0
    81b8:	0000d048 	andeq	sp, r0, r8, asr #32
    81bc:	0000d04c 	andeq	sp, r0, ip, asr #32
    81c0:	0000e000 	andeq	lr, r0, r0
    81c4:	0000d05c 	andeq	sp, r0, ip, asr r0
    81c8:	0000d064 	andeq	sp, r0, r4, rrx
    81cc:	0000d068 	andeq	sp, r0, r8, rrx
    81d0:	0000d078 	andeq	sp, r0, r8, ror r0
    81d4:	0000d084 	andeq	sp, r0, r4, lsl #1

000081d8 <hardware_detect>:
    81d8:	e92d4070 	push	{r4, r5, r6, lr}
    81dc:	eb000288 	bl	8c04 <devicetree_setup>
    81e0:	e2504000 	subs	r4, r0, #0
    81e4:	0a000001 	beq	81f0 <hardware_detect+0x18>
    81e8:	e3a00000 	mov	r0, #0
    81ec:	e8bd8070 	pop	{r4, r5, r6, pc}
    81f0:	e3085000 	movw	r5, #32768	; 0x8000
    81f4:	e3a03001 	mov	r3, #1
    81f8:	e3405002 	movt	r5, #2
    81fc:	e30d109c 	movw	r1, #53404	; 0xd09c
    8200:	e3401000 	movt	r1, #0
    8204:	e1a02005 	mov	r2, r5
    8208:	e30d00ac 	movw	r0, #53420	; 0xd0ac
    820c:	e4823004 	str	r3, [r2], #4
    8210:	e3400000 	movt	r0, #0
    8214:	eb00031c 	bl	8e8c <devicetree_find_int>
    8218:	e5953004 	ldr	r3, [r5, #4]
    821c:	e30220e0 	movw	r2, #8416	; 0x20e0
    8220:	e3402090 	movt	r2, #144	; 0x90
    8224:	e1530002 	cmp	r3, r2
    8228:	0a0000ac 	beq	84e0 <hardware_detect+0x308>
    822c:	9a00001d 	bls	82a8 <hardware_detect+0xd0>
    8230:	e30220d3 	movw	r2, #8403	; 0x20d3
    8234:	e34020a0 	movt	r2, #160	; 0xa0
    8238:	e1530002 	cmp	r3, r2
    823c:	0a0000a5 	beq	84d8 <hardware_detect+0x300>
    8240:	9a00004d 	bls	837c <hardware_detect+0x1a4>
    8244:	e3022042 	movw	r2, #8258	; 0x2042
    8248:	e34020a2 	movt	r2, #162	; 0xa2
    824c:	e1530002 	cmp	r3, r2
    8250:	03a0300b 	moveq	r3, #11
    8254:	0a00000e 	beq	8294 <hardware_detect+0xbc>
    8258:	9a000086 	bls	8478 <hardware_detect+0x2a0>
    825c:	e3032112 	movw	r2, #12562	; 0x3112
    8260:	e34020b0 	movt	r2, #176	; 0xb0
    8264:	e1530002 	cmp	r3, r2
    8268:	8a00002a 	bhi	8318 <hardware_detect+0x140>
    826c:	e3032110 	movw	r2, #12560	; 0x3110
    8270:	e34020b0 	movt	r2, #176	; 0xb0
    8274:	e1530002 	cmp	r3, r2
    8278:	8a00008e 	bhi	84b8 <hardware_detect+0x2e0>
    827c:	e3c33801 	bic	r3, r3, #65536	; 0x10000
    8280:	e3020082 	movw	r0, #8322	; 0x2082
    8284:	e34000a2 	movt	r0, #162	; 0xa2
    8288:	e1530000 	cmp	r3, r0
    828c:	03a03009 	moveq	r3, #9
    8290:	13a03000 	movne	r3, #0
    8294:	e3052400 	movw	r2, #21504	; 0x5400
    8298:	e3a00000 	mov	r0, #0
    829c:	e3402002 	movt	r2, #2
    82a0:	e5823000 	str	r3, [r2]
    82a4:	e8bd8070 	pop	{r4, r5, r6, pc}
    82a8:	e3530015 	cmp	r3, #21
    82ac:	8a000051 	bhi	83f8 <hardware_detect+0x220>
    82b0:	e3530001 	cmp	r3, #1
    82b4:	9a00007d 	bls	84b0 <hardware_detect+0x2d8>
    82b8:	e2433002 	sub	r3, r3, #2
    82bc:	e3530013 	cmp	r3, #19
    82c0:	979ff103 	ldrls	pc, [pc, r3, lsl #2]
    82c4:	ea000079 	b	84b0 <hardware_detect+0x2d8>
    82c8:	000084a0 	andeq	r8, r0, r0, lsr #9
    82cc:	000084a0 	andeq	r8, r0, r0, lsr #9
    82d0:	000084a0 	andeq	r8, r0, r0, lsr #9
    82d4:	000084a0 	andeq	r8, r0, r0, lsr #9
    82d8:	000084a0 	andeq	r8, r0, r0, lsr #9
    82dc:	000084c0 	andeq	r8, r0, r0, asr #9
    82e0:	000084c0 	andeq	r8, r0, r0, asr #9
    82e4:	000084c0 	andeq	r8, r0, r0, asr #9
    82e8:	000084b0 			; <UNDEFINED> instruction: 0x000084b0
    82ec:	000084b0 			; <UNDEFINED> instruction: 0x000084b0
    82f0:	000084b0 			; <UNDEFINED> instruction: 0x000084b0
    82f4:	000084a0 	andeq	r8, r0, r0, lsr #9
    82f8:	000084a0 	andeq	r8, r0, r0, lsr #9
    82fc:	000084a0 	andeq	r8, r0, r0, lsr #9
    8300:	000084c8 	andeq	r8, r0, r8, asr #9
    8304:	000084d0 	ldrdeq	r8, [r0], -r0
    8308:	000084a8 	andeq	r8, r0, r8, lsr #9
    830c:	000084c8 	andeq	r8, r0, r8, asr #9
    8310:	000084d0 	ldrdeq	r8, [r0], -r0
    8314:	000084a8 	andeq	r8, r0, r8, lsr #9
    8318:	e3032115 	movw	r2, #12565	; 0x3115
    831c:	e34020c0 	movt	r2, #192	; 0xc0
    8320:	e1530002 	cmp	r3, r2
    8324:	8a00004c 	bhi	845c <hardware_detect+0x284>
    8328:	e3032113 	movw	r2, #12563	; 0x3113
    832c:	e34020c0 	movt	r2, #192	; 0xc0
    8330:	e1530002 	cmp	r3, r2
    8334:	8a00005f 	bhi	84b8 <hardware_detect+0x2e0>
    8338:	e3032115 	movw	r2, #12565	; 0x3115
    833c:	e34020b0 	movt	r2, #176	; 0xb0
    8340:	e1530002 	cmp	r3, r2
    8344:	8a000005 	bhi	8360 <hardware_detect+0x188>
    8348:	e3030113 	movw	r0, #12563	; 0x3113
    834c:	e34000b0 	movt	r0, #176	; 0xb0
    8350:	e1530000 	cmp	r3, r0
    8354:	13a03010 	movne	r3, #16
    8358:	03a03000 	moveq	r3, #0
    835c:	eaffffcc 	b	8294 <hardware_detect+0xbc>
    8360:	e30c2eef 	movw	r2, #52975	; 0xceef
    8364:	e34f2f3f 	movt	r2, #65343	; 0xff3f
    8368:	e0832002 	add	r2, r3, r2
    836c:	e3520002 	cmp	r2, #2
    8370:	33a03010 	movcc	r3, #16
    8374:	23a03000 	movcs	r3, #0
    8378:	eaffffc5 	b	8294 <hardware_detect+0xbc>
    837c:	e3012041 	movw	r2, #4161	; 0x1041
    8380:	e34020a0 	movt	r2, #160	; 0xa0
    8384:	e1530002 	cmp	r3, r2
    8388:	8a00000f 	bhi	83cc <hardware_detect+0x1f4>
    838c:	e3a02d41 	mov	r2, #4160	; 0x1040
    8390:	e34020a0 	movt	r2, #160	; 0xa0
    8394:	e1530002 	cmp	r3, r2
    8398:	23a03007 	movcs	r3, #7
    839c:	2affffbc 	bcs	8294 <hardware_detect+0xbc>
    83a0:	e3022120 	movw	r2, #8480	; 0x2120
    83a4:	e3402090 	movt	r2, #144	; 0x90
    83a8:	e1530002 	cmp	r3, r2
    83ac:	03a0300e 	moveq	r3, #14
    83b0:	0affffb7 	beq	8294 <hardware_detect+0xbc>
    83b4:	e3a00093 	mov	r0, #147	; 0x93
    83b8:	e3400092 	movt	r0, #146	; 0x92
    83bc:	e1530000 	cmp	r3, r0
    83c0:	03a03008 	moveq	r3, #8
    83c4:	13a03000 	movne	r3, #0
    83c8:	eaffffb1 	b	8294 <hardware_detect+0xbc>
    83cc:	e3022082 	movw	r2, #8322	; 0x2082
    83d0:	e34020a0 	movt	r2, #160	; 0xa0
    83d4:	e1530002 	cmp	r3, r2
    83d8:	03a03009 	moveq	r3, #9
    83dc:	0affffac 	beq	8294 <hardware_detect+0xbc>
    83e0:	e30200a0 	movw	r0, #8352	; 0x20a0
    83e4:	e34000a0 	movt	r0, #160	; 0xa0
    83e8:	e1530000 	cmp	r3, r0
    83ec:	03a0300c 	moveq	r3, #12
    83f0:	13a03000 	movne	r3, #0
    83f4:	eaffffa6 	b	8294 <hardware_detect+0xbc>
    83f8:	e3a02093 	mov	r2, #147	; 0x93
    83fc:	e3402090 	movt	r2, #144	; 0x90
    8400:	e1530002 	cmp	r3, r2
    8404:	8a00000e 	bhi	8444 <hardware_detect+0x26c>
    8408:	e3a02091 	mov	r2, #145	; 0x91
    840c:	e3402090 	movt	r2, #144	; 0x90
    8410:	e1530002 	cmp	r3, r2
    8414:	83a03008 	movhi	r3, #8
    8418:	8affff9d 	bhi	8294 <hardware_detect+0xbc>
    841c:	e3a02021 	mov	r2, #33	; 0x21
    8420:	e3402090 	movt	r2, #144	; 0x90
    8424:	e1530002 	cmp	r3, r2
    8428:	0a00001e 	beq	84a8 <hardware_detect+0x2d0>
    842c:	e3a00032 	mov	r0, #50	; 0x32
    8430:	e3400090 	movt	r0, #144	; 0x90
    8434:	e1530000 	cmp	r3, r0
    8438:	03a03004 	moveq	r3, #4
    843c:	13a03000 	movne	r3, #0
    8440:	eaffff93 	b	8294 <hardware_detect+0xbc>
    8444:	e3a000c1 	mov	r0, #193	; 0xc1
    8448:	e3400090 	movt	r0, #144	; 0x90
    844c:	e1530000 	cmp	r3, r0
    8450:	03a0300d 	moveq	r3, #13
    8454:	13a03000 	movne	r3, #0
    8458:	eaffff8d 	b	8294 <hardware_detect+0xbc>
    845c:	e30c2eec 	movw	r2, #52972	; 0xceec
    8460:	e34f2f2f 	movt	r2, #65327	; 0xff2f
    8464:	e0832002 	add	r2, r3, r2
    8468:	e3520002 	cmp	r2, #2
    846c:	33a03010 	movcc	r3, #16
    8470:	23a03000 	movcs	r3, #0
    8474:	eaffff86 	b	8294 <hardware_detect+0xbc>
    8478:	e3032111 	movw	r2, #12561	; 0x3111
    847c:	e34020a0 	movt	r2, #160	; 0xa0
    8480:	e1530002 	cmp	r3, r2
    8484:	0a00000b 	beq	84b8 <hardware_detect+0x2e0>
    8488:	e3010041 	movw	r0, #4161	; 0x1041
    848c:	e34000a2 	movt	r0, #162	; 0xa2
    8490:	e1530000 	cmp	r3, r0
    8494:	03a03007 	moveq	r3, #7
    8498:	13a03000 	movne	r3, #0
    849c:	eaffff7c 	b	8294 <hardware_detect+0xbc>
    84a0:	e3a03002 	mov	r3, #2
    84a4:	eaffff7a 	b	8294 <hardware_detect+0xbc>
    84a8:	e3a03003 	mov	r3, #3
    84ac:	eaffff78 	b	8294 <hardware_detect+0xbc>
    84b0:	e3a03000 	mov	r3, #0
    84b4:	eaffff76 	b	8294 <hardware_detect+0xbc>
    84b8:	e3a03010 	mov	r3, #16
    84bc:	eaffff74 	b	8294 <hardware_detect+0xbc>
    84c0:	e3a03001 	mov	r3, #1
    84c4:	eaffff72 	b	8294 <hardware_detect+0xbc>
    84c8:	e3a03004 	mov	r3, #4
    84cc:	eaffff70 	b	8294 <hardware_detect+0xbc>
    84d0:	e3a03006 	mov	r3, #6
    84d4:	eaffff6e 	b	8294 <hardware_detect+0xbc>
    84d8:	e3a0300a 	mov	r3, #10
    84dc:	eaffff6c 	b	8294 <hardware_detect+0xbc>
    84e0:	e3a0300f 	mov	r3, #15
    84e4:	eaffff6a 	b	8294 <hardware_detect+0xbc>

000084e8 <hardware_print_model>:
    84e8:	e92d4010 	push	{r4, lr}
    84ec:	e1a04000 	mov	r4, r0
    84f0:	e30d00b4 	movw	r0, #53428	; 0xd0b4
    84f4:	e1a01004 	mov	r1, r4
    84f8:	e3400000 	movt	r0, #0
    84fc:	e24dd080 	sub	sp, sp, #128	; 0x80
    8500:	eb001162 	bl	ca90 <printk>
    8504:	e3003c42 	movw	r3, #3138	; 0xc42
    8508:	e1540003 	cmp	r4, r3
    850c:	e3084000 	movw	r4, #32768	; 0x8000
    8510:	e3404002 	movt	r4, #2
    8514:	030d00cc 	movweq	r0, #53452	; 0xd0cc
    8518:	03400000 	movteq	r0, #0
    851c:	130d00dc 	movwne	r0, #53468	; 0xd0dc
    8520:	13400000 	movtne	r0, #0
    8524:	eb001159 	bl	ca90 <printk>
    8528:	e30d0aec 	movw	r0, #56044	; 0xdaec
    852c:	e3400000 	movt	r0, #0
    8530:	eb001156 	bl	ca90 <printk>
    8534:	e5943000 	ldr	r3, [r4]
    8538:	e3530000 	cmp	r3, #0
    853c:	1a000019 	bne	85a8 <hardware_print_model+0xc0>
    8540:	e30d0114 	movw	r0, #53524	; 0xd114
    8544:	e3400000 	movt	r0, #0
    8548:	eb001150 	bl	ca90 <printk>
    854c:	e3053400 	movw	r3, #21504	; 0x5400
    8550:	e3403002 	movt	r3, #2
    8554:	e5933000 	ldr	r3, [r3]
    8558:	e2433001 	sub	r3, r3, #1
    855c:	e353000f 	cmp	r3, #15
    8560:	979ff103 	ldrls	pc, [pc, r3, lsl #2]
    8564:	ea00005a 	b	86d4 <hardware_print_model+0x1ec>
    8568:	000085f4 	strdeq	r8, [r0], -r4
    856c:	00008604 	andeq	r8, r0, r4, lsl #12
    8570:	00008614 	andeq	r8, r0, r4, lsl r6
    8574:	00008624 	andeq	r8, r0, r4, lsr #12
    8578:	000086d4 	ldrdeq	r8, [r0], -r4
    857c:	00008634 	andeq	r8, r0, r4, lsr r6
    8580:	00008644 	andeq	r8, r0, r4, asr #12
    8584:	00008654 	andeq	r8, r0, r4, asr r6
    8588:	00008664 	andeq	r8, r0, r4, ror #12
    858c:	00008674 	andeq	r8, r0, r4, ror r6
    8590:	00008684 	andeq	r8, r0, r4, lsl #13
    8594:	00008694 	muleq	r0, r4, r6
    8598:	000086a4 	andeq	r8, r0, r4, lsr #13
    859c:	000086b4 			; <UNDEFINED> instruction: 0x000086b4
    85a0:	000086c4 	andeq	r8, r0, r4, asr #13
    85a4:	000085d4 	ldrdeq	r8, [r0], -r4
    85a8:	e30d10f0 	movw	r1, #53488	; 0xd0f0
    85ac:	e3a03080 	mov	r3, #128	; 0x80
    85b0:	e3401000 	movt	r1, #0
    85b4:	e1a0200d 	mov	r2, sp
    85b8:	e3a00000 	mov	r0, #0
    85bc:	eb000218 	bl	8e24 <devicetree_find_string>
    85c0:	e30d00f8 	movw	r0, #53496	; 0xd0f8
    85c4:	e1a0100d 	mov	r1, sp
    85c8:	e3400000 	movt	r0, #0
    85cc:	eb00112f 	bl	ca90 <printk>
    85d0:	eaffffda 	b	8540 <hardware_print_model+0x58>
    85d4:	e30d0194 	movw	r0, #53652	; 0xd194
    85d8:	e3400000 	movt	r0, #0
    85dc:	eb00112b 	bl	ca90 <printk>
    85e0:	e30d0aec 	movw	r0, #56044	; 0xdaec
    85e4:	e3400000 	movt	r0, #0
    85e8:	eb001128 	bl	ca90 <printk>
    85ec:	e28dd080 	add	sp, sp, #128	; 0x80
    85f0:	e8bd8010 	pop	{r4, pc}
    85f4:	e30d012c 	movw	r0, #53548	; 0xd12c
    85f8:	e3400000 	movt	r0, #0
    85fc:	eb001123 	bl	ca90 <printk>
    8600:	eafffff6 	b	85e0 <hardware_print_model+0xf8>
    8604:	e30d0134 	movw	r0, #53556	; 0xd134
    8608:	e3400000 	movt	r0, #0
    860c:	eb00111f 	bl	ca90 <printk>
    8610:	eafffff2 	b	85e0 <hardware_print_model+0xf8>
    8614:	e30d0130 	movw	r0, #53552	; 0xd130
    8618:	e3400000 	movt	r0, #0
    861c:	eb00111b 	bl	ca90 <printk>
    8620:	eaffffee 	b	85e0 <hardware_print_model+0xf8>
    8624:	e30d0138 	movw	r0, #53560	; 0xd138
    8628:	e3400000 	movt	r0, #0
    862c:	eb001117 	bl	ca90 <printk>
    8630:	eaffffea 	b	85e0 <hardware_print_model+0xf8>
    8634:	e30d016c 	movw	r0, #53612	; 0xd16c
    8638:	e3400000 	movt	r0, #0
    863c:	eb001113 	bl	ca90 <printk>
    8640:	eaffffe6 	b	85e0 <hardware_print_model+0xf8>
    8644:	e30d013c 	movw	r0, #53564	; 0xd13c
    8648:	e3400000 	movt	r0, #0
    864c:	eb00110f 	bl	ca90 <printk>
    8650:	eaffffe2 	b	85e0 <hardware_print_model+0xf8>
    8654:	e30d0154 	movw	r0, #53588	; 0xd154
    8658:	e3400000 	movt	r0, #0
    865c:	eb00110b 	bl	ca90 <printk>
    8660:	eaffffde 	b	85e0 <hardware_print_model+0xf8>
    8664:	e30d0148 	movw	r0, #53576	; 0xd148
    8668:	e3400000 	movt	r0, #0
    866c:	eb001107 	bl	ca90 <printk>
    8670:	eaffffda 	b	85e0 <hardware_print_model+0xf8>
    8674:	e30d014c 	movw	r0, #53580	; 0xd14c
    8678:	e3400000 	movt	r0, #0
    867c:	eb001103 	bl	ca90 <printk>
    8680:	eaffffd6 	b	85e0 <hardware_print_model+0xf8>
    8684:	e30d0140 	movw	r0, #53568	; 0xd140
    8688:	e3400000 	movt	r0, #0
    868c:	eb0010ff 	bl	ca90 <printk>
    8690:	eaffffd2 	b	85e0 <hardware_print_model+0xf8>
    8694:	e30d0180 	movw	r0, #53632	; 0xd180
    8698:	e3400000 	movt	r0, #0
    869c:	eb0010fb 	bl	ca90 <printk>
    86a0:	eaffffce 	b	85e0 <hardware_print_model+0xf8>
    86a4:	e30d015c 	movw	r0, #53596	; 0xd15c
    86a8:	e3400000 	movt	r0, #0
    86ac:	eb0010f7 	bl	ca90 <printk>
    86b0:	eaffffca 	b	85e0 <hardware_print_model+0xf8>
    86b4:	e30d0164 	movw	r0, #53604	; 0xd164
    86b8:	e3400000 	movt	r0, #0
    86bc:	eb0010f3 	bl	ca90 <printk>
    86c0:	eaffffc6 	b	85e0 <hardware_print_model+0xf8>
    86c4:	e30d0150 	movw	r0, #53584	; 0xd150
    86c8:	e3400000 	movt	r0, #0
    86cc:	eb0010ef 	bl	ca90 <printk>
    86d0:	eaffffc2 	b	85e0 <hardware_print_model+0xf8>
    86d4:	e5941004 	ldr	r1, [r4, #4]
    86d8:	e30d0198 	movw	r0, #53656	; 0xd198
    86dc:	e3400000 	movt	r0, #0
    86e0:	eb0010ea 	bl	ca90 <printk>
    86e4:	eaffffbd 	b	85e0 <hardware_print_model+0xf8>

000086e8 <hardware_print_commandline>:
    86e8:	e92d4010 	push	{r4, lr}
    86ec:	e3084000 	movw	r4, #32768	; 0x8000
    86f0:	e3404002 	movt	r4, #2
    86f4:	e30d01a4 	movw	r0, #53668	; 0xd1a4
    86f8:	e3400000 	movt	r0, #0
    86fc:	eb0010e3 	bl	ca90 <printk>
    8700:	e5943000 	ldr	r3, [r4]
    8704:	e3530000 	cmp	r3, #0
    8708:	08bd8010 	popeq	{r4, pc}
    870c:	e30d11c4 	movw	r1, #53700	; 0xd1c4
    8710:	e30d01d0 	movw	r0, #53712	; 0xd1d0
    8714:	e3401000 	movt	r1, #0
    8718:	e2842008 	add	r2, r4, #8
    871c:	e3400000 	movt	r0, #0
    8720:	e3a03b01 	mov	r3, #1024	; 0x400
    8724:	eb0001be 	bl	8e24 <devicetree_find_string>
    8728:	e30d0b88 	movw	r0, #56200	; 0xdb88
    872c:	e2841008 	add	r1, r4, #8
    8730:	e3400000 	movt	r0, #0
    8734:	e8bd4010 	pop	{r4, lr}
    8738:	ea0010d4 	b	ca90 <printk>

0000873c <hardware_get_type>:
    873c:	e3053400 	movw	r3, #21504	; 0x5400
    8740:	e3403002 	movt	r3, #2
    8744:	e5930000 	ldr	r0, [r3]
    8748:	e12fff1e 	bx	lr

0000874c <hardware_get_memory>:
    874c:	e3083000 	movw	r3, #32768	; 0x8000
    8750:	e3403002 	movt	r3, #2
    8754:	e92d4070 	push	{r4, r5, r6, lr}
    8758:	e1a05000 	mov	r5, r0
    875c:	e5936000 	ldr	r6, [r3]
    8760:	e1a04001 	mov	r4, r1
    8764:	e3560000 	cmp	r6, #0
    8768:	1a000006 	bne	8788 <hardware_get_memory+0x3c>
    876c:	e30d01d8 	movw	r0, #53720	; 0xd1d8
    8770:	e3400000 	movt	r0, #0
    8774:	eb0010c5 	bl	ca90 <printk>
    8778:	e5856000 	str	r6, [r5]
    877c:	e3a03201 	mov	r3, #268435456	; 0x10000000
    8780:	e5843000 	str	r3, [r4]
    8784:	e8bd8070 	pop	{r4, r5, r6, pc}
    8788:	e3a03000 	mov	r3, #0
    878c:	e5803000 	str	r3, [r0]
    8790:	eb0001e0 	bl	8f18 <devicetree_get_memory>
    8794:	e5840000 	str	r0, [r4]
    8798:	e8bd8070 	pop	{r4, r5, r6, pc}

0000879c <hardware_setup_vars>:
    879c:	e3053400 	movw	r3, #21504	; 0x5400
    87a0:	e3403002 	movt	r3, #2
    87a4:	e5933000 	ldr	r3, [r3]
    87a8:	e2433001 	sub	r3, r3, #1
    87ac:	e353000f 	cmp	r3, #15
    87b0:	979ff103 	ldrls	pc, [pc, r3, lsl #2]
    87b4:	ea00002e 	b	8874 <hardware_setup_vars+0xd8>
    87b8:	00008820 	andeq	r8, r0, r0, lsr #16
    87bc:	0000880c 	andeq	r8, r0, ip, lsl #16
    87c0:	00008820 	andeq	r8, r0, r0, lsr #16
    87c4:	0000880c 	andeq	r8, r0, ip, lsl #16
    87c8:	00008874 	andeq	r8, r0, r4, ror r8
    87cc:	0000880c 	andeq	r8, r0, ip, lsl #16
    87d0:	000087f8 	strdeq	r8, [r0], -r8	; <UNPREDICTABLE>
    87d4:	0000880c 	andeq	r8, r0, ip, lsl #16
    87d8:	000087f8 	strdeq	r8, [r0], -r8	; <UNPREDICTABLE>
    87dc:	0000883c 	andeq	r8, r0, ip, lsr r8
    87e0:	000087f8 	strdeq	r8, [r0], -r8	; <UNPREDICTABLE>
    87e4:	000087f8 	strdeq	r8, [r0], -r8	; <UNPREDICTABLE>
    87e8:	0000880c 	andeq	r8, r0, ip, lsl #16
    87ec:	000087f8 	strdeq	r8, [r0], -r8	; <UNPREDICTABLE>
    87f0:	0000883c 	andeq	r8, r0, ip, lsr r8
    87f4:	00008858 	andeq	r8, r0, r8, asr r8
    87f8:	e3083000 	movw	r3, #32768	; 0x8000
    87fc:	e3a0243f 	mov	r2, #1056964608	; 0x3f000000
    8800:	e3403002 	movt	r3, #2
    8804:	e5832408 	str	r2, [r3, #1032]	; 0x408
    8808:	e12fff1e 	bx	lr
    880c:	e3083000 	movw	r3, #32768	; 0x8000
    8810:	e3a02202 	mov	r2, #536870912	; 0x20000000
    8814:	e3403002 	movt	r3, #2
    8818:	e5832408 	str	r2, [r3, #1032]	; 0x408
    881c:	e12fff1e 	bx	lr
    8820:	e3083000 	movw	r3, #32768	; 0x8000
    8824:	e3a01202 	mov	r1, #536870912	; 0x20000000
    8828:	e3403002 	movt	r3, #2
    882c:	e3a02010 	mov	r2, #16
    8830:	e5831408 	str	r1, [r3, #1032]	; 0x408
    8834:	e583240c 	str	r2, [r3, #1036]	; 0x40c
    8838:	e12fff1e 	bx	lr
    883c:	e3083000 	movw	r3, #32768	; 0x8000
    8840:	e3a0143f 	mov	r1, #1056964608	; 0x3f000000
    8844:	e3403002 	movt	r3, #2
    8848:	e3a0201d 	mov	r2, #29
    884c:	e5831408 	str	r1, [r3, #1032]	; 0x408
    8850:	e583240c 	str	r2, [r3, #1036]	; 0x40c
    8854:	e12fff1e 	bx	lr
    8858:	e3083000 	movw	r3, #32768	; 0x8000
    885c:	e3a0102a 	mov	r1, #42	; 0x2a
    8860:	e3403002 	movt	r3, #2
    8864:	e3a024fe 	mov	r2, #-33554432	; 0xfe000000
    8868:	e583140c 	str	r1, [r3, #1036]	; 0x40c
    886c:	e5832408 	str	r2, [r3, #1032]	; 0x408
    8870:	e12fff1e 	bx	lr
    8874:	e3083000 	movw	r3, #32768	; 0x8000
    8878:	e3a024fe 	mov	r2, #-33554432	; 0xfe000000
    887c:	e3403002 	movt	r3, #2
    8880:	e5832408 	str	r2, [r3, #1032]	; 0x408
    8884:	e12fff1e 	bx	lr

00008888 <big_to_little64>:
    8888:	e1a02821 	lsr	r2, r1, #16
    888c:	e1a03000 	mov	r3, r0
    8890:	e7e7c850 	ubfx	ip, r0, #16, #8
    8894:	e2022cff 	and	r2, r2, #65280	; 0xff00
    8898:	e18ccc23 	orr	ip, ip, r3, lsr #24
    889c:	e20108ff 	and	r0, r1, #16711680	; 0xff0000
    88a0:	e1822000 	orr	r2, r2, r0
    88a4:	e1a00801 	lsl	r0, r1, #16
    88a8:	e20004ff 	and	r0, r0, #-16777216	; 0xff000000
    88ac:	e1820000 	orr	r0, r2, r0
    88b0:	e1800c01 	orr	r0, r0, r1, lsl #24
    88b4:	e2031cff 	and	r1, r3, #65280	; 0xff00
    88b8:	e1a03803 	lsl	r3, r3, #16
    88bc:	e18c1001 	orr	r1, ip, r1
    88c0:	e20338ff 	and	r3, r3, #16711680	; 0xff0000
    88c4:	e1811003 	orr	r1, r1, r3
    88c8:	e12fff1e 	bx	lr

000088cc <dt_parse_node>:
    88cc:	e92d4ff0 	push	{r4, r5, r6, r7, r8, r9, sl, fp, lr}
    88d0:	e1a06000 	mov	r6, r0
    88d4:	e5910000 	ldr	r0, [r1]
    88d8:	e1a05001 	mov	r5, r1
    88dc:	e24ddf45 	sub	sp, sp, #276	; 0x114
    88e0:	e7961100 	ldr	r1, [r6, r0, lsl #2]
    88e4:	e1cd20f0 	strd	r2, [sp]
    88e8:	e3510401 	cmp	r1, #16777216	; 0x1000000
    88ec:	1a00007f 	bne	8af0 <dt_parse_node+0x224>
    88f0:	e1a03100 	lsl	r3, r0, #2
    88f4:	e2800001 	add	r0, r0, #1
    88f8:	e5850000 	str	r0, [r5]
    88fc:	e2831004 	add	r1, r3, #4
    8900:	e0861001 	add	r1, r6, r1
    8904:	e3a02080 	mov	r2, #128	; 0x80
    8908:	e28d0010 	add	r0, sp, #16
    890c:	eb0010c9 	bl	cc38 <strlcpy>
    8910:	e5954000 	ldr	r4, [r5]
    8914:	e0863104 	add	r3, r6, r4, lsl #2
    8918:	e4937004 	ldr	r7, [r3], #4
    891c:	e2844001 	add	r4, r4, #1
    8920:	e6bf7f37 	rev	r7, r7
    8924:	e21770ff 	ands	r7, r7, #255	; 0xff
    8928:	1afffffa 	bne	8918 <dt_parse_node+0x4c>
    892c:	e5854000 	str	r4, [r5]
    8930:	e30d922c 	movw	r9, #53804	; 0xd22c
    8934:	e3409000 	movt	r9, #0
    8938:	e308b410 	movw	fp, #33808	; 0x8410
    893c:	e340b002 	movt	fp, #2
    8940:	e7963104 	ldr	r3, [r6, r4, lsl #2]
    8944:	e1a02104 	lsl	r2, r4, #2
    8948:	e6bf1f33 	rev	r1, r3
    894c:	e3530301 	cmp	r3, #67108864	; 0x4000000
    8950:	0a000008 	beq	8978 <dt_parse_node+0xac>
    8954:	e3510003 	cmp	r1, #3
    8958:	0a000009 	beq	8984 <dt_parse_node+0xb8>
    895c:	e3510001 	cmp	r1, #1
    8960:	0a00004d 	beq	8a9c <dt_parse_node+0x1d0>
    8964:	e3510002 	cmp	r1, #2
    8968:	0a000055 	beq	8ac4 <dt_parse_node+0x1f8>
    896c:	e1a00009 	mov	r0, r9
    8970:	eb001046 	bl	ca90 <printk>
    8974:	e5954000 	ldr	r4, [r5]
    8978:	e2844001 	add	r4, r4, #1
    897c:	e5854000 	str	r4, [r5]
    8980:	eaffffee 	b	8940 <dt_parse_node+0x74>
    8984:	e0862002 	add	r2, r6, r2
    8988:	e3a03000 	mov	r3, #0
    898c:	e5cd3094 	strb	r3, [sp, #148]	; 0x94
    8990:	e5923008 	ldr	r3, [r2, #8]
    8994:	e59b0014 	ldr	r0, [fp, #20]
    8998:	e59b1000 	ldr	r1, [fp]
    899c:	e6bf3f33 	rev	r3, r3
    89a0:	e0830000 	add	r0, r3, r0
    89a4:	e58d300c 	str	r3, [sp, #12]
    89a8:	e2843002 	add	r3, r4, #2
    89ac:	e5928004 	ldr	r8, [r2, #4]
    89b0:	e3a02080 	mov	r2, #128	; 0x80
    89b4:	e0811000 	add	r1, r1, r0
    89b8:	e28d0090 	add	r0, sp, #144	; 0x90
    89bc:	e5853000 	str	r3, [r5]
    89c0:	e2844001 	add	r4, r4, #1
    89c4:	e6bf8f38 	rev	r8, r8
    89c8:	eb00109a 	bl	cc38 <strlcpy>
    89cc:	e59d3000 	ldr	r3, [sp]
    89d0:	e3530000 	cmp	r3, #0
    89d4:	0a000005 	beq	89f0 <dt_parse_node+0x124>
    89d8:	e59d0000 	ldr	r0, [sp]
    89dc:	e3a02080 	mov	r2, #128	; 0x80
    89e0:	e28d1010 	add	r1, sp, #16
    89e4:	eb001059 	bl	cb50 <strncmp>
    89e8:	e3500000 	cmp	r0, #0
    89ec:	1a000005 	bne	8a08 <dt_parse_node+0x13c>
    89f0:	e59d1004 	ldr	r1, [sp, #4]
    89f4:	e3a02080 	mov	r2, #128	; 0x80
    89f8:	e28d0090 	add	r0, sp, #144	; 0x90
    89fc:	eb001053 	bl	cb50 <strncmp>
    8a00:	e3500000 	cmp	r0, #0
    8a04:	0a000033 	beq	8ad8 <dt_parse_node+0x20c>
    8a08:	e5954000 	ldr	r4, [r5]
    8a0c:	e2888003 	add	r8, r8, #3
    8a10:	e1b08128 	lsrs	r8, r8, #2
    8a14:	e2844001 	add	r4, r4, #1
    8a18:	e5854000 	str	r4, [r5]
    8a1c:	0affffc7 	beq	8940 <dt_parse_node+0x74>
    8a20:	e1a03004 	mov	r3, r4
    8a24:	e3a0a000 	mov	sl, #0
    8a28:	ea000000 	b	8a30 <dt_parse_node+0x164>
    8a2c:	e5953000 	ldr	r3, [r5]
    8a30:	e7961103 	ldr	r1, [r6, r3, lsl #2]
    8a34:	e2833001 	add	r3, r3, #1
    8a38:	e5853000 	str	r3, [r5]
    8a3c:	e3a02004 	mov	r2, #4
    8a40:	e58d100c 	str	r1, [sp, #12]
    8a44:	e28d0090 	add	r0, sp, #144	; 0x90
    8a48:	e28d100c 	add	r1, sp, #12
    8a4c:	e28aa001 	add	sl, sl, #1
    8a50:	eb000e96 	bl	c4b0 <memcpy>
    8a54:	e15a0008 	cmp	sl, r8
    8a58:	1afffff3 	bne	8a2c <dt_parse_node+0x160>
    8a5c:	e3a0a000 	mov	sl, #0
    8a60:	ea000000 	b	8a68 <dt_parse_node+0x19c>
    8a64:	e5954000 	ldr	r4, [r5]
    8a68:	e7963104 	ldr	r3, [r6, r4, lsl #2]
    8a6c:	e2844001 	add	r4, r4, #1
    8a70:	e5854000 	str	r4, [r5]
    8a74:	e3a02004 	mov	r2, #4
    8a78:	e58d300c 	str	r3, [sp, #12]
    8a7c:	e28d100c 	add	r1, sp, #12
    8a80:	e28d0090 	add	r0, sp, #144	; 0x90
    8a84:	e28aa001 	add	sl, sl, #1
    8a88:	eb000e88 	bl	c4b0 <memcpy>
    8a8c:	e15a0008 	cmp	sl, r8
    8a90:	1afffff3 	bne	8a64 <dt_parse_node+0x198>
    8a94:	e5954000 	ldr	r4, [r5]
    8a98:	eaffffa8 	b	8940 <dt_parse_node+0x74>
    8a9c:	e1cd20d0 	ldrd	r2, [sp]
    8aa0:	e1a01005 	mov	r1, r5
    8aa4:	e1a00006 	mov	r0, r6
    8aa8:	ebffff87 	bl	88cc <dt_parse_node>
    8aac:	e3500000 	cmp	r0, #0
    8ab0:	0afffff7 	beq	8a94 <dt_parse_node+0x1c8>
    8ab4:	e1a07000 	mov	r7, r0
    8ab8:	e1a00007 	mov	r0, r7
    8abc:	e28ddf45 	add	sp, sp, #276	; 0x114
    8ac0:	e8bd8ff0 	pop	{r4, r5, r6, r7, r8, r9, sl, fp, pc}
    8ac4:	e2844001 	add	r4, r4, #1
    8ac8:	e1a00007 	mov	r0, r7
    8acc:	e5854000 	str	r4, [r5]
    8ad0:	e28ddf45 	add	sp, sp, #276	; 0x114
    8ad4:	e8bd8ff0 	pop	{r4, r5, r6, r7, r8, r9, sl, fp, pc}
    8ad8:	e3540000 	cmp	r4, #0
    8adc:	0affffec 	beq	8a94 <dt_parse_node+0x1c8>
    8ae0:	e1a07004 	mov	r7, r4
    8ae4:	e1a00007 	mov	r0, r7
    8ae8:	e28ddf45 	add	sp, sp, #276	; 0x114
    8aec:	e8bd8ff0 	pop	{r4, r5, r6, r7, r8, r9, sl, fp, pc}
    8af0:	e30d0208 	movw	r0, #53768	; 0xd208
    8af4:	e3e07000 	mvn	r7, #0
    8af8:	e3400000 	movt	r0, #0
    8afc:	eb000fe3 	bl	ca90 <printk>
    8b00:	e5953000 	ldr	r3, [r5]
    8b04:	e1a00007 	mov	r0, r7
    8b08:	e2833001 	add	r3, r3, #1
    8b0c:	e5853000 	str	r3, [r5]
    8b10:	e28ddf45 	add	sp, sp, #276	; 0x114
    8b14:	e8bd8ff0 	pop	{r4, r5, r6, r7, r8, r9, sl, fp, pc}

00008b18 <devicetree_find_node_prop>:
    8b18:	e92d40f0 	push	{r4, r5, r6, r7, lr}
    8b1c:	e3084410 	movw	r4, #33808	; 0x8410
    8b20:	e3404002 	movt	r4, #2
    8b24:	e24dd00c 	sub	sp, sp, #12
    8b28:	e5943004 	ldr	r3, [r4, #4]
    8b2c:	e3530000 	cmp	r3, #0
    8b30:	0a00001d 	beq	8bac <devicetree_find_node_prop+0x94>
    8b34:	e5943010 	ldr	r3, [r4, #16]
    8b38:	e1a06000 	mov	r6, r0
    8b3c:	e5945000 	ldr	r5, [r4]
    8b40:	e1a07001 	mov	r7, r1
    8b44:	e0855003 	add	r5, r5, r3
    8b48:	e3a03000 	mov	r3, #0
    8b4c:	e58d3004 	str	r3, [sp, #4]
    8b50:	ea000009 	b	8b7c <devicetree_find_node_prop+0x64>
    8b54:	e59dc004 	ldr	ip, [sp, #4]
    8b58:	e795310c 	ldr	r3, [r5, ip, lsl #2]
    8b5c:	e1a0c10c 	lsl	ip, ip, #2
    8b60:	e3530409 	cmp	r3, #150994944	; 0x9000000
    8b64:	0a00000d 	beq	8ba0 <devicetree_find_node_prop+0x88>
    8b68:	e5942010 	ldr	r2, [r4, #16]
    8b6c:	e594300c 	ldr	r3, [r4, #12]
    8b70:	e08cc002 	add	ip, ip, r2
    8b74:	e15c0003 	cmp	ip, r3
    8b78:	8a000008 	bhi	8ba0 <devicetree_find_node_prop+0x88>
    8b7c:	e1a03007 	mov	r3, r7
    8b80:	e1a02006 	mov	r2, r6
    8b84:	e28d1004 	add	r1, sp, #4
    8b88:	e1a00005 	mov	r0, r5
    8b8c:	ebffff4e 	bl	88cc <dt_parse_node>
    8b90:	e3500000 	cmp	r0, #0
    8b94:	0affffee 	beq	8b54 <devicetree_find_node_prop+0x3c>
    8b98:	e28dd00c 	add	sp, sp, #12
    8b9c:	e8bd80f0 	pop	{r4, r5, r6, r7, pc}
    8ba0:	e3e00001 	mvn	r0, #1
    8ba4:	e28dd00c 	add	sp, sp, #12
    8ba8:	e8bd80f0 	pop	{r4, r5, r6, r7, pc}
    8bac:	e3e00012 	mvn	r0, #18
    8bb0:	eafffff8 	b	8b98 <devicetree_find_node_prop+0x80>

00008bb4 <devicetree_prop_int.isra.0>:
    8bb4:	e3083410 	movw	r3, #33808	; 0x8410
    8bb8:	e3403002 	movt	r3, #2
    8bbc:	e5932004 	ldr	r2, [r3, #4]
    8bc0:	e3520000 	cmp	r2, #0
    8bc4:	012fff1e 	bxeq	lr
    8bc8:	e5932000 	ldr	r2, [r3]
    8bcc:	e5933010 	ldr	r3, [r3, #16]
    8bd0:	e0823003 	add	r3, r2, r3
    8bd4:	e7932100 	ldr	r2, [r3, r0, lsl #2]
    8bd8:	e0833100 	add	r3, r3, r0, lsl #2
    8bdc:	e3520301 	cmp	r2, #67108864	; 0x4000000
    8be0:	e5933008 	ldr	r3, [r3, #8]
    8be4:	e6bf2f32 	rev	r2, r2
    8be8:	e6bf3f33 	rev	r3, r3
    8bec:	e5813000 	str	r3, [r1]
    8bf0:	012fff1e 	bxeq	lr
    8bf4:	e30d023c 	movw	r0, #53820	; 0xd23c
    8bf8:	e1a01002 	mov	r1, r2
    8bfc:	e3400000 	movt	r0, #0
    8c00:	ea000fa2 	b	ca90 <printk>

00008c04 <devicetree_setup>:
    8c04:	e3083410 	movw	r3, #33808	; 0x8410
    8c08:	e3a01000 	mov	r1, #0
    8c0c:	e3403002 	movt	r3, #2
    8c10:	e30fceed 	movw	ip, #65261	; 0xfeed
    8c14:	e34dc00d 	movt	ip, #53261	; 0xd00d
    8c18:	e5831004 	str	r1, [r3, #4]
    8c1c:	e5902000 	ldr	r2, [r0]
    8c20:	e6bf2f32 	rev	r2, r2
    8c24:	e152000c 	cmp	r2, ip
    8c28:	e5832008 	str	r2, [r3, #8]
    8c2c:	1a000022 	bne	8cbc <devicetree_setup+0xb8>
    8c30:	e5830000 	str	r0, [r3]
    8c34:	e3a02001 	mov	r2, #1
    8c38:	e5832004 	str	r2, [r3, #4]
    8c3c:	e5902004 	ldr	r2, [r0, #4]
    8c40:	e6bf2f32 	rev	r2, r2
    8c44:	e583200c 	str	r2, [r3, #12]
    8c48:	e5902008 	ldr	r2, [r0, #8]
    8c4c:	e6bf2f32 	rev	r2, r2
    8c50:	e5832010 	str	r2, [r3, #16]
    8c54:	e590200c 	ldr	r2, [r0, #12]
    8c58:	e6bf2f32 	rev	r2, r2
    8c5c:	e5832014 	str	r2, [r3, #20]
    8c60:	e5902010 	ldr	r2, [r0, #16]
    8c64:	e6bf2f32 	rev	r2, r2
    8c68:	e5832018 	str	r2, [r3, #24]
    8c6c:	e5902014 	ldr	r2, [r0, #20]
    8c70:	e6bf2f32 	rev	r2, r2
    8c74:	e583201c 	str	r2, [r3, #28]
    8c78:	e3520001 	cmp	r2, #1
    8c7c:	e590c018 	ldr	ip, [r0, #24]
    8c80:	e6bfcf3c 	rev	ip, ip
    8c84:	e583c020 	str	ip, [r3, #32]
    8c88:	9a000009 	bls	8cb4 <devicetree_setup+0xb0>
    8c8c:	e590c01c 	ldr	ip, [r0, #28]
    8c90:	e3520002 	cmp	r2, #2
    8c94:	e6bf2f3c 	rev	r2, ip
    8c98:	e5832024 	str	r2, [r3, #36]	; 0x24
    8c9c:	0a000004 	beq	8cb4 <devicetree_setup+0xb0>
    8ca0:	e5902020 	ldr	r2, [r0, #32]
    8ca4:	e1a00001 	mov	r0, r1
    8ca8:	e6bf2f32 	rev	r2, r2
    8cac:	e5832028 	str	r2, [r3, #40]	; 0x28
    8cb0:	e12fff1e 	bx	lr
    8cb4:	e3a00000 	mov	r0, #0
    8cb8:	e12fff1e 	bx	lr
    8cbc:	e3e00012 	mvn	r0, #18
    8cc0:	e12fff1e 	bx	lr

00008cc4 <devicetree_find_reserved>:
    8cc4:	e92d4ff0 	push	{r4, r5, r6, r7, r8, r9, sl, fp, lr}
    8cc8:	e3085410 	movw	r5, #33808	; 0x8410
    8ccc:	e3405002 	movt	r5, #2
    8cd0:	e24dd00c 	sub	sp, sp, #12
    8cd4:	e5953004 	ldr	r3, [r5, #4]
    8cd8:	e3530000 	cmp	r3, #0
    8cdc:	0a00004e 	beq	8e1c <devicetree_find_reserved+0x158>
    8ce0:	e30d0268 	movw	r0, #53864	; 0xd268
    8ce4:	e3400000 	movt	r0, #0
    8ce8:	eb000f68 	bl	ca90 <printk>
    8cec:	e5951008 	ldr	r1, [r5, #8]
    8cf0:	e30d0278 	movw	r0, #53880	; 0xd278
    8cf4:	e3400000 	movt	r0, #0
    8cf8:	eb000f64 	bl	ca90 <printk>
    8cfc:	e595100c 	ldr	r1, [r5, #12]
    8d00:	e30d0288 	movw	r0, #53896	; 0xd288
    8d04:	e3400000 	movt	r0, #0
    8d08:	eb000f60 	bl	ca90 <printk>
    8d0c:	e5951010 	ldr	r1, [r5, #16]
    8d10:	e30d029c 	movw	r0, #53916	; 0xd29c
    8d14:	e3400000 	movt	r0, #0
    8d18:	eb000f5c 	bl	ca90 <printk>
    8d1c:	e5951014 	ldr	r1, [r5, #20]
    8d20:	e30d02b0 	movw	r0, #53936	; 0xd2b0
    8d24:	e3400000 	movt	r0, #0
    8d28:	eb000f58 	bl	ca90 <printk>
    8d2c:	e5951018 	ldr	r1, [r5, #24]
    8d30:	e30d02c4 	movw	r0, #53956	; 0xd2c4
    8d34:	e3400000 	movt	r0, #0
    8d38:	eb000f54 	bl	ca90 <printk>
    8d3c:	e595101c 	ldr	r1, [r5, #28]
    8d40:	e30d02d8 	movw	r0, #53976	; 0xd2d8
    8d44:	e3400000 	movt	r0, #0
    8d48:	eb000f50 	bl	ca90 <printk>
    8d4c:	e5951020 	ldr	r1, [r5, #32]
    8d50:	e30d02ec 	movw	r0, #53996	; 0xd2ec
    8d54:	e3400000 	movt	r0, #0
    8d58:	eb000f4c 	bl	ca90 <printk>
    8d5c:	e595301c 	ldr	r3, [r5, #28]
    8d60:	e3530001 	cmp	r3, #1
    8d64:	8a000020 	bhi	8dec <devicetree_find_reserved+0x128>
    8d68:	e5954000 	ldr	r4, [r5]
    8d6c:	e30d0320 	movw	r0, #54048	; 0xd320
    8d70:	e5953018 	ldr	r3, [r5, #24]
    8d74:	e30d9334 	movw	r9, #54068	; 0xd334
    8d78:	e3400000 	movt	r0, #0
    8d7c:	e0844003 	add	r4, r4, r3
    8d80:	e3409000 	movt	r9, #0
    8d84:	eb000f41 	bl	ca90 <printk>
    8d88:	ea00000d 	b	8dc4 <devicetree_find_reserved+0x100>
    8d8c:	e2844010 	add	r4, r4, #16
    8d90:	ebfffebc 	bl	8888 <big_to_little64>
    8d94:	e1a06000 	mov	r6, r0
    8d98:	e1a05001 	mov	r5, r1
    8d9c:	e1a00008 	mov	r0, r8
    8da0:	e1a01007 	mov	r1, r7
    8da4:	ebfffeb7 	bl	8888 <big_to_little64>
    8da8:	e1a0a000 	mov	sl, r0
    8dac:	e1a0b001 	mov	fp, r1
    8db0:	e1a02006 	mov	r2, r6
    8db4:	e1a03005 	mov	r3, r5
    8db8:	e1a00009 	mov	r0, r9
    8dbc:	e1cda0f0 	strd	sl, [sp]
    8dc0:	eb000f32 	bl	ca90 <printk>
    8dc4:	e5948000 	ldr	r8, [r4]
    8dc8:	e5947004 	ldr	r7, [r4, #4]
    8dcc:	e1c400d8 	ldrd	r0, [r4, #8]
    8dd0:	e1983007 	orrs	r3, r8, r7
    8dd4:	1affffec 	bne	8d8c <devicetree_find_reserved+0xc8>
    8dd8:	e1903001 	orrs	r3, r0, r1
    8ddc:	1affffea 	bne	8d8c <devicetree_find_reserved+0xc8>
    8de0:	e3a00000 	mov	r0, #0
    8de4:	e28dd00c 	add	sp, sp, #12
    8de8:	e8bd8ff0 	pop	{r4, r5, r6, r7, r8, r9, sl, fp, pc}
    8dec:	e5951024 	ldr	r1, [r5, #36]	; 0x24
    8df0:	e30d0300 	movw	r0, #54016	; 0xd300
    8df4:	e3400000 	movt	r0, #0
    8df8:	eb000f24 	bl	ca90 <printk>
    8dfc:	e595301c 	ldr	r3, [r5, #28]
    8e00:	e3530002 	cmp	r3, #2
    8e04:	9affffd7 	bls	8d68 <devicetree_find_reserved+0xa4>
    8e08:	e5951028 	ldr	r1, [r5, #40]	; 0x28
    8e0c:	e30d0310 	movw	r0, #54032	; 0xd310
    8e10:	e3400000 	movt	r0, #0
    8e14:	eb000f1d 	bl	ca90 <printk>
    8e18:	eaffffd2 	b	8d68 <devicetree_find_reserved+0xa4>
    8e1c:	e3e00012 	mvn	r0, #18
    8e20:	eaffffef 	b	8de4 <devicetree_find_reserved+0x120>

00008e24 <devicetree_find_string>:
    8e24:	e92d4010 	push	{r4, lr}
    8e28:	e1a04002 	mov	r4, r2
    8e2c:	ebffff39 	bl	8b18 <devicetree_find_node_prop>
    8e30:	e3083410 	movw	r3, #33808	; 0x8410
    8e34:	e3403002 	movt	r3, #2
    8e38:	e5932004 	ldr	r2, [r3, #4]
    8e3c:	e3520000 	cmp	r2, #0
    8e40:	0a00000f 	beq	8e84 <devicetree_find_string+0x60>
    8e44:	e5932000 	ldr	r2, [r3]
    8e48:	e5933010 	ldr	r3, [r3, #16]
    8e4c:	e0822003 	add	r2, r2, r3
    8e50:	e0823100 	add	r3, r2, r0, lsl #2
    8e54:	e7920100 	ldr	r0, [r2, r0, lsl #2]
    8e58:	e2833008 	add	r3, r3, #8
    8e5c:	e6bf0f30 	rev	r0, r0
    8e60:	e3500000 	cmp	r0, #0
    8e64:	0a000006 	beq	8e84 <devicetree_find_string+0x60>
    8e68:	e2433001 	sub	r3, r3, #1
    8e6c:	e2442001 	sub	r2, r4, #1
    8e70:	e0830000 	add	r0, r3, r0
    8e74:	e5f31001 	ldrb	r1, [r3, #1]!
    8e78:	e1530000 	cmp	r3, r0
    8e7c:	e5e21001 	strb	r1, [r2, #1]!
    8e80:	1afffffb 	bne	8e74 <devicetree_find_string+0x50>
    8e84:	e3a00000 	mov	r0, #0
    8e88:	e8bd8010 	pop	{r4, pc}

00008e8c <devicetree_find_int>:
    8e8c:	e92d4010 	push	{r4, lr}
    8e90:	e1a04002 	mov	r4, r2
    8e94:	ebffff1f 	bl	8b18 <devicetree_find_node_prop>
    8e98:	e1a01004 	mov	r1, r4
    8e9c:	ebffff44 	bl	8bb4 <devicetree_prop_int.isra.0>
    8ea0:	e3a00000 	mov	r0, #0
    8ea4:	e8bd8010 	pop	{r4, pc}

00008ea8 <devicetree_find_int64>:
    8ea8:	e92d4010 	push	{r4, lr}
    8eac:	e1a04002 	mov	r4, r2
    8eb0:	ebffff18 	bl	8b18 <devicetree_find_node_prop>
    8eb4:	e3081410 	movw	r1, #33808	; 0x8410
    8eb8:	e3401002 	movt	r1, #2
    8ebc:	e5913004 	ldr	r3, [r1, #4]
    8ec0:	e3530000 	cmp	r3, #0
    8ec4:	0a00000c 	beq	8efc <devicetree_find_int64+0x54>
    8ec8:	e5912010 	ldr	r2, [r1, #16]
    8ecc:	e5913000 	ldr	r3, [r1]
    8ed0:	e0833002 	add	r3, r3, r2
    8ed4:	e793c100 	ldr	ip, [r3, r0, lsl #2]
    8ed8:	e0830100 	add	r0, r3, r0, lsl #2
    8edc:	e6bf1f3c 	rev	r1, ip
    8ee0:	e35c0302 	cmp	ip, #134217728	; 0x8000000
    8ee4:	e5903008 	ldr	r3, [r0, #8]
    8ee8:	e590200c 	ldr	r2, [r0, #12]
    8eec:	e6bf3f33 	rev	r3, r3
    8ef0:	e6bf2f32 	rev	r2, r2
    8ef4:	e1c420f0 	strd	r2, [r4]
    8ef8:	1a000001 	bne	8f04 <devicetree_find_int64+0x5c>
    8efc:	e3a00000 	mov	r0, #0
    8f00:	e8bd8010 	pop	{r4, pc}
    8f04:	e30d0360 	movw	r0, #54112	; 0xd360
    8f08:	e3400000 	movt	r0, #0
    8f0c:	eb000edf 	bl	ca90 <printk>
    8f10:	e3a00000 	mov	r0, #0
    8f14:	e8bd8010 	pop	{r4, pc}

00008f18 <devicetree_get_memory>:
    8f18:	e30d138c 	movw	r1, #54156	; 0xd38c
    8f1c:	e3a00000 	mov	r0, #0
    8f20:	e92d43f0 	push	{r4, r5, r6, r7, r8, r9, lr}
    8f24:	e24dd02c 	sub	sp, sp, #44	; 0x2c
    8f28:	e3401000 	movt	r1, #0
    8f2c:	e3086410 	movw	r6, #33808	; 0x8410
    8f30:	e3406002 	movt	r6, #2
    8f34:	ebfffef7 	bl	8b18 <devicetree_find_node_prop>
    8f38:	e28d1014 	add	r1, sp, #20
    8f3c:	ebffff1c 	bl	8bb4 <devicetree_prop_int.isra.0>
    8f40:	e59d1014 	ldr	r1, [sp, #20]
    8f44:	e30d039c 	movw	r0, #54172	; 0xd39c
    8f48:	e3400000 	movt	r0, #0
    8f4c:	eb000ecf 	bl	ca90 <printk>
    8f50:	e30d13b8 	movw	r1, #54200	; 0xd3b8
    8f54:	e3a00000 	mov	r0, #0
    8f58:	e3401000 	movt	r1, #0
    8f5c:	ebfffeed 	bl	8b18 <devicetree_find_node_prop>
    8f60:	e28d1018 	add	r1, sp, #24
    8f64:	ebffff12 	bl	8bb4 <devicetree_prop_int.isra.0>
    8f68:	e59d1018 	ldr	r1, [sp, #24]
    8f6c:	e30d03c4 	movw	r0, #54212	; 0xd3c4
    8f70:	e3400000 	movt	r0, #0
    8f74:	eb000ec5 	bl	ca90 <printk>
    8f78:	e30d13e0 	movw	r1, #54240	; 0xd3e0
    8f7c:	e30d03e4 	movw	r0, #54244	; 0xd3e4
    8f80:	e3401000 	movt	r1, #0
    8f84:	e3400000 	movt	r0, #0
    8f88:	ebfffee2 	bl	8b18 <devicetree_find_node_prop>
    8f8c:	e5963010 	ldr	r3, [r6, #16]
    8f90:	e1a04000 	mov	r4, r0
    8f94:	e5965000 	ldr	r5, [r6]
    8f98:	e2809002 	add	r9, r0, #2
    8f9c:	e1a07100 	lsl	r7, r0, #2
    8fa0:	e0855003 	add	r5, r5, r3
    8fa4:	e7953100 	ldr	r3, [r5, r0, lsl #2]
    8fa8:	e6bf3f33 	rev	r3, r3
    8fac:	e58d301c 	str	r3, [sp, #28]
    8fb0:	e3530008 	cmp	r3, #8
    8fb4:	e0853007 	add	r3, r5, r7
    8fb8:	e5933004 	ldr	r3, [r3, #4]
    8fbc:	e6bf3f33 	rev	r3, r3
    8fc0:	e58d301c 	str	r3, [sp, #28]
    8fc4:	0a000002 	beq	8fd4 <devicetree_get_memory+0xbc>
    8fc8:	e30d03ec 	movw	r0, #54252	; 0xd3ec
    8fcc:	e3400000 	movt	r0, #0
    8fd0:	eb000eae 	bl	ca90 <printk>
    8fd4:	e59d3014 	ldr	r3, [sp, #20]
    8fd8:	e3530001 	cmp	r3, #1
    8fdc:	0a000067 	beq	9180 <devicetree_get_memory+0x268>
    8fe0:	e3530002 	cmp	r3, #2
    8fe4:	0a000050 	beq	912c <devicetree_get_memory+0x214>
    8fe8:	e30d0428 	movw	r0, #54312	; 0xd428
    8fec:	e3a07000 	mov	r7, #0
    8ff0:	e3400000 	movt	r0, #0
    8ff4:	e1a08007 	mov	r8, r7
    8ff8:	eb000ea4 	bl	ca90 <printk>
    8ffc:	e59d3018 	ldr	r3, [sp, #24]
    9000:	e3530001 	cmp	r3, #1
    9004:	0a000055 	beq	9160 <devicetree_get_memory+0x248>
    9008:	e3530002 	cmp	r3, #2
    900c:	0a00002b 	beq	90c0 <devicetree_get_memory+0x1a8>
    9010:	e30d0448 	movw	r0, #54344	; 0xd448
    9014:	e3400000 	movt	r0, #0
    9018:	eb000e9c 	bl	ca90 <printk>
    901c:	e30d13e0 	movw	r1, #54240	; 0xd3e0
    9020:	e30d0468 	movw	r0, #54376	; 0xd468
    9024:	e3401000 	movt	r1, #0
    9028:	e3400000 	movt	r0, #0
    902c:	ebfffeb9 	bl	8b18 <devicetree_find_node_prop>
    9030:	e5963010 	ldr	r3, [r6, #16]
    9034:	e1a05000 	mov	r5, r0
    9038:	e5964000 	ldr	r4, [r6]
    903c:	e1a06100 	lsl	r6, r0, #2
    9040:	e0844003 	add	r4, r4, r3
    9044:	e7943100 	ldr	r3, [r4, r0, lsl #2]
    9048:	e6bf7f33 	rev	r7, r3
    904c:	e3530302 	cmp	r3, #134217728	; 0x8000000
    9050:	0a000054 	beq	91a8 <devicetree_get_memory+0x290>
    9054:	e357000c 	cmp	r7, #12
    9058:	0a000064 	beq	91f0 <devicetree_get_memory+0x2d8>
    905c:	e3570018 	cmp	r7, #24
    9060:	0a00006d 	beq	921c <devicetree_get_memory+0x304>
    9064:	e30d04bc 	movw	r0, #54460	; 0xd4bc
    9068:	e1a01007 	mov	r1, r7
    906c:	e3400000 	movt	r0, #0
    9070:	eb000e86 	bl	ca90 <printk>
    9074:	e1b07127 	lsrs	r7, r7, #2
    9078:	0a00000d 	beq	90b4 <devicetree_get_memory+0x19c>
    907c:	e0877005 	add	r7, r7, r5
    9080:	e2866004 	add	r6, r6, #4
    9084:	e0846006 	add	r6, r4, r6
    9088:	e30d54e8 	movw	r5, #54504	; 0xd4e8
    908c:	e3405000 	movt	r5, #0
    9090:	e2844004 	add	r4, r4, #4
    9094:	e0844107 	add	r4, r4, r7, lsl #2
    9098:	e5b62004 	ldr	r2, [r6, #4]!
    909c:	e3a03000 	mov	r3, #0
    90a0:	e1a00005 	mov	r0, r5
    90a4:	e6bf2f32 	rev	r2, r2
    90a8:	eb000e78 	bl	ca90 <printk>
    90ac:	e1560004 	cmp	r6, r4
    90b0:	1afffff8 	bne	9098 <devicetree_get_memory+0x180>
    90b4:	e3a07000 	mov	r7, #0
    90b8:	e1a08007 	mov	r8, r7
    90bc:	ea000043 	b	91d0 <devicetree_get_memory+0x2b8>
    90c0:	e0851109 	add	r1, r5, r9, lsl #2
    90c4:	e3a02008 	mov	r2, #8
    90c8:	e28d0020 	add	r0, sp, #32
    90cc:	eb000cf7 	bl	c4b0 <memcpy>
    90d0:	e1cd02d0 	ldrd	r0, [sp, #32]
    90d4:	ebfffdeb 	bl	8888 <big_to_little64>
    90d8:	e1a05000 	mov	r5, r0
    90dc:	e1a04001 	mov	r4, r1
    90e0:	e3550b01 	cmp	r5, #1024	; 0x400
    90e4:	e2d43000 	sbcs	r3, r4, #0
    90e8:	3affffcb 	bcc	901c <devicetree_get_memory+0x104>
    90ec:	e1a03a25 	lsr	r3, r5, #20
    90f0:	e1833604 	orr	r3, r3, r4, lsl #12
    90f4:	e1a02a24 	lsr	r2, r4, #20
    90f8:	e58d3008 	str	r3, [sp, #8]
    90fc:	e30d052c 	movw	r0, #54572	; 0xd52c
    9100:	e58d200c 	str	r2, [sp, #12]
    9104:	e1a03004 	mov	r3, r4
    9108:	e58d7000 	str	r7, [sp]
    910c:	e1a02005 	mov	r2, r5
    9110:	e58d8004 	str	r8, [sp, #4]
    9114:	e3400000 	movt	r0, #0
    9118:	eb000e5c 	bl	ca90 <printk>
    911c:	e1a00005 	mov	r0, r5
    9120:	e1a01004 	mov	r1, r4
    9124:	e28dd02c 	add	sp, sp, #44	; 0x2c
    9128:	e8bd83f0 	pop	{r4, r5, r6, r7, r8, r9, pc}
    912c:	e2871008 	add	r1, r7, #8
    9130:	e3a02008 	mov	r2, #8
    9134:	e0851001 	add	r1, r5, r1
    9138:	e28d0020 	add	r0, sp, #32
    913c:	e2849004 	add	r9, r4, #4
    9140:	eb000cda 	bl	c4b0 <memcpy>
    9144:	e1cd02d0 	ldrd	r0, [sp, #32]
    9148:	ebfffdce 	bl	8888 <big_to_little64>
    914c:	e59d3018 	ldr	r3, [sp, #24]
    9150:	e1a07000 	mov	r7, r0
    9154:	e1a08001 	mov	r8, r1
    9158:	e3530001 	cmp	r3, #1
    915c:	1affffa9 	bne	9008 <devicetree_get_memory+0xf0>
    9160:	e0851109 	add	r1, r5, r9, lsl #2
    9164:	e28d001c 	add	r0, sp, #28
    9168:	e3a02004 	mov	r2, #4
    916c:	e3a04000 	mov	r4, #0
    9170:	eb000cce 	bl	c4b0 <memcpy>
    9174:	e59d501c 	ldr	r5, [sp, #28]
    9178:	e6bf5f35 	rev	r5, r5
    917c:	eaffffd7 	b	90e0 <devicetree_get_memory+0x1c8>
    9180:	e2871008 	add	r1, r7, #8
    9184:	e3a02004 	mov	r2, #4
    9188:	e0851001 	add	r1, r5, r1
    918c:	e28d001c 	add	r0, sp, #28
    9190:	e2849003 	add	r9, r4, #3
    9194:	eb000cc5 	bl	c4b0 <memcpy>
    9198:	e59d701c 	ldr	r7, [sp, #28]
    919c:	e3a08000 	mov	r8, #0
    91a0:	e6bf7f37 	rev	r7, r7
    91a4:	eaffff94 	b	8ffc <devicetree_get_memory+0xe4>
    91a8:	e0844006 	add	r4, r4, r6
    91ac:	e3a08000 	mov	r8, #0
    91b0:	e5947008 	ldr	r7, [r4, #8]
    91b4:	e594500c 	ldr	r5, [r4, #12]
    91b8:	e1a04008 	mov	r4, r8
    91bc:	e6bf7f37 	rev	r7, r7
    91c0:	e6bf5f35 	rev	r5, r5
    91c4:	e3550b01 	cmp	r5, #1024	; 0x400
    91c8:	e2d43000 	sbcs	r3, r4, #0
    91cc:	2affffc6 	bcs	90ec <devicetree_get_memory+0x1d4>
    91d0:	e30d04f4 	movw	r0, #54516	; 0xd4f4
    91d4:	e3a05201 	mov	r5, #268435456	; 0x10000000
    91d8:	e3400000 	movt	r0, #0
    91dc:	eb000e2b 	bl	ca90 <printk>
    91e0:	e3a02000 	mov	r2, #0
    91e4:	e3a03c01 	mov	r3, #256	; 0x100
    91e8:	e1a04002 	mov	r4, r2
    91ec:	eaffffc1 	b	90f8 <devicetree_get_memory+0x1e0>
    91f0:	e0844006 	add	r4, r4, r6
    91f4:	e1c400d8 	ldrd	r0, [r4, #8]
    91f8:	ebfffda2 	bl	8888 <big_to_little64>
    91fc:	e1a07000 	mov	r7, r0
    9200:	e1a08001 	mov	r8, r1
    9204:	e5940010 	ldr	r0, [r4, #16]
    9208:	e3a01000 	mov	r1, #0
    920c:	ebfffd9d 	bl	8888 <big_to_little64>
    9210:	e1a05000 	mov	r5, r0
    9214:	e1a04001 	mov	r4, r1
    9218:	eaffffe9 	b	91c4 <devicetree_get_memory+0x2ac>
    921c:	e0846006 	add	r6, r4, r6
    9220:	e3a04000 	mov	r4, #0
    9224:	e1c600d8 	ldrd	r0, [r6, #8]
    9228:	ebfffd96 	bl	8888 <big_to_little64>
    922c:	e5965010 	ldr	r5, [r6, #16]
    9230:	e1a07000 	mov	r7, r0
    9234:	e1a08001 	mov	r8, r1
    9238:	e1c601d4 	ldrd	r0, [r6, #20]
    923c:	e6bf5f35 	rev	r5, r5
    9240:	ebfffd90 	bl	8888 <big_to_little64>
    9244:	e596201c 	ldr	r2, [r6, #28]
    9248:	e1cd00f0 	strd	r0, [sp]
    924c:	e6bf2f32 	rev	r2, r2
    9250:	e30d0474 	movw	r0, #54388	; 0xd474
    9254:	e58d400c 	str	r4, [sp, #12]
    9258:	e1a03a22 	lsr	r3, r2, #20
    925c:	e58d3008 	str	r3, [sp, #8]
    9260:	e1a03004 	mov	r3, r4
    9264:	e3400000 	movt	r0, #0
    9268:	eb000e08 	bl	ca90 <printk>
    926c:	eaffffd4 	b	91c4 <devicetree_get_memory+0x2ac>

00009270 <platform_irq_enable>:
    9270:	e3053400 	movw	r3, #21504	; 0x5400
    9274:	e3403002 	movt	r3, #2
    9278:	e5933000 	ldr	r3, [r3]
    927c:	e3530010 	cmp	r3, #16
    9280:	0a000001 	beq	928c <platform_irq_enable+0x1c>
    9284:	e3a00000 	mov	r0, #0
    9288:	e12fff1e 	bx	lr
    928c:	e30d0564 	movw	r0, #54628	; 0xd564
    9290:	e92d4010 	push	{r4, lr}
    9294:	e3400000 	movt	r0, #0
    9298:	eb000dfc 	bl	ca90 <printk>
    929c:	e3a00000 	mov	r0, #0
    92a0:	e34f0f84 	movt	r0, #65412	; 0xff84
    92a4:	eb000093 	bl	94f8 <gic400_init>
    92a8:	e3a00000 	mov	r0, #0
    92ac:	e8bd8010 	pop	{r4, pc}

000092b0 <irq_enable>:
    92b0:	e3500040 	cmp	r0, #64	; 0x40
    92b4:	e92d4070 	push	{r4, r5, r6, lr}
    92b8:	e1a04000 	mov	r4, r0
    92bc:	ca00000f 	bgt	9300 <irq_enable+0x50>
    92c0:	e3500000 	cmp	r0, #0
    92c4:	e280301f 	add	r3, r0, #31
    92c8:	a1a03000 	movge	r3, r0
    92cc:	e30b5210 	movw	r5, #45584	; 0xb210
    92d0:	e204401f 	and	r4, r4, #31
    92d4:	e1a032c3 	asr	r3, r3, #5
    92d8:	e0855103 	add	r5, r5, r3, lsl #2
    92dc:	e1a00005 	mov	r0, r5
    92e0:	eb0004bb 	bl	a5d4 <bcm2835_read>
    92e4:	e3a01001 	mov	r1, #1
    92e8:	e1a03000 	mov	r3, r0
    92ec:	e1a00005 	mov	r0, r5
    92f0:	e1831411 	orr	r1, r3, r1, lsl r4
    92f4:	eb0004b0 	bl	a5bc <bcm2835_write>
    92f8:	e3a00000 	mov	r0, #0
    92fc:	e8bd8070 	pop	{r4, r5, r6, pc}
    9300:	e30d0580 	movw	r0, #54656	; 0xd580
    9304:	e1a01004 	mov	r1, r4
    9308:	e3400000 	movt	r0, #0
    930c:	eb000ddf 	bl	ca90 <printk>
    9310:	e3e00000 	mvn	r0, #0
    9314:	e8bd8070 	pop	{r4, r5, r6, pc}

00009318 <irq_disable>:
    9318:	e3500040 	cmp	r0, #64	; 0x40
    931c:	e92d4070 	push	{r4, r5, r6, lr}
    9320:	e1a04000 	mov	r4, r0
    9324:	ca00000f 	bgt	9368 <irq_disable+0x50>
    9328:	e3500000 	cmp	r0, #0
    932c:	e280301f 	add	r3, r0, #31
    9330:	a1a03000 	movge	r3, r0
    9334:	e30b521c 	movw	r5, #45596	; 0xb21c
    9338:	e204401f 	and	r4, r4, #31
    933c:	e1a032c3 	asr	r3, r3, #5
    9340:	e0855103 	add	r5, r5, r3, lsl #2
    9344:	e1a00005 	mov	r0, r5
    9348:	eb0004a1 	bl	a5d4 <bcm2835_read>
    934c:	e3a01001 	mov	r1, #1
    9350:	e1a03000 	mov	r3, r0
    9354:	e1a00005 	mov	r0, r5
    9358:	e1831411 	orr	r1, r3, r1, lsl r4
    935c:	eb000496 	bl	a5bc <bcm2835_write>
    9360:	e3a00000 	mov	r0, #0
    9364:	e8bd8070 	pop	{r4, r5, r6, pc}
    9368:	e30d0580 	movw	r0, #54656	; 0xd580
    936c:	e1a01004 	mov	r1, r4
    9370:	e3400000 	movt	r0, #0
    9374:	eb000dc5 	bl	ca90 <printk>
    9378:	e3e00000 	mvn	r0, #0
    937c:	e8bd8070 	pop	{r4, r5, r6, pc}

00009380 <interrupt_handler_c>:
    9380:	e92d41f0 	push	{r4, r5, r6, r7, r8, lr}
    9384:	e3054400 	movw	r4, #21504	; 0x5400
    9388:	e3404002 	movt	r4, #2
    938c:	e3a00cb2 	mov	r0, #45568	; 0xb200
    9390:	e5943000 	ldr	r3, [r4]
    9394:	e3530010 	cmp	r3, #16
    9398:	0a00001b 	beq	940c <interrupt_handler_c+0x8c>
    939c:	eb00048c 	bl	a5d4 <bcm2835_read>
    93a0:	e3100702 	tst	r0, #524288	; 0x80000
    93a4:	e1a05000 	mov	r5, r0
    93a8:	1a000006 	bne	93c8 <interrupt_handler_c+0x48>
    93ac:	e3100001 	tst	r0, #1
    93b0:	1a000021 	bne	943c <interrupt_handler_c+0xbc>
    93b4:	e30d05b8 	movw	r0, #54712	; 0xd5b8
    93b8:	e1a01005 	mov	r1, r5
    93bc:	e3400000 	movt	r0, #0
    93c0:	e8bd41f0 	pop	{r4, r5, r6, r7, r8, lr}
    93c4:	ea000db1 	b	ca90 <printk>
    93c8:	eb000583 	bl	a9dc <serial_interrupt_handler>
    93cc:	e3150001 	tst	r5, #1
    93d0:	1a000019 	bne	943c <interrupt_handler_c+0xbc>
    93d4:	e5943000 	ldr	r3, [r4]
    93d8:	e3530010 	cmp	r3, #16
    93dc:	1a000003 	bne	93f0 <interrupt_handler_c+0x70>
    93e0:	e3a03d4a 	mov	r3, #4736	; 0x1280
    93e4:	e3e02000 	mvn	r2, #0
    93e8:	e34f3f84 	movt	r3, #65412	; 0xff84
    93ec:	e5832000 	str	r2, [r3]
    93f0:	e3053410 	movw	r3, #21520	; 0x5410
    93f4:	e3403002 	movt	r3, #2
    93f8:	e5933000 	ldr	r3, [r3]
    93fc:	e3530000 	cmp	r3, #0
    9400:	08bd81f0 	popeq	{r4, r5, r6, r7, r8, pc}
    9404:	e8bd41f0 	pop	{r4, r5, r6, r7, r8, lr}
    9408:	ea000aa5 	b	bea4 <schedule>
    940c:	eb000470 	bl	a5d4 <bcm2835_read>
    9410:	e1a07000 	mov	r7, r0
    9414:	e30b0204 	movw	r0, #45572	; 0xb204
    9418:	eb00046d 	bl	a5d4 <bcm2835_read>
    941c:	e1a05000 	mov	r5, r0
    9420:	e30b0208 	movw	r0, #45576	; 0xb208
    9424:	eb00046a 	bl	a5d4 <bcm2835_read>
    9428:	e3150402 	tst	r5, #33554432	; 0x2000000
    942c:	e1a06000 	mov	r6, r0
    9430:	1a00000a 	bne	9460 <interrupt_handler_c+0xe0>
    9434:	e3100001 	tst	r0, #1
    9438:	0a000001 	beq	9444 <interrupt_handler_c+0xc4>
    943c:	eb000582 	bl	aa4c <timer_interrupt_handler>
    9440:	eaffffe3 	b	93d4 <interrupt_handler_c+0x54>
    9444:	e30d0590 	movw	r0, #54672	; 0xd590
    9448:	e1a03006 	mov	r3, r6
    944c:	e3400000 	movt	r0, #0
    9450:	e1a02005 	mov	r2, r5
    9454:	e1a01007 	mov	r1, r7
    9458:	e8bd41f0 	pop	{r4, r5, r6, r7, r8, lr}
    945c:	ea000d8b 	b	ca90 <printk>
    9460:	eb00055d 	bl	a9dc <serial_interrupt_handler>
    9464:	e3160001 	tst	r6, #1
    9468:	0affffd9 	beq	93d4 <interrupt_handler_c+0x54>
    946c:	eafffff2 	b	943c <interrupt_handler_c+0xbc>

00009470 <fiq_handler>:
    9470:	e24ee004 	sub	lr, lr, #4
    9474:	e92d401f 	push	{r0, r1, r2, r3, r4, lr}
    9478:	e30d05d8 	movw	r0, #54744	; 0xd5d8
    947c:	e3400000 	movt	r0, #0
    9480:	eb000d82 	bl	ca90 <printk>
    9484:	e8fd801f 	ldm	sp!, {r0, r1, r2, r3, r4, pc}^

00009488 <abort_handler>:
    9488:	e24ee004 	sub	lr, lr, #4
    948c:	e92d500f 	push	{r0, r1, r2, r3, ip, lr}
    9490:	e30d05e8 	movw	r0, #54760	; 0xd5e8
    9494:	e3400000 	movt	r0, #0
    9498:	eb000d7c 	bl	ca90 <printk>
    949c:	e8fd900f 	ldm	sp!, {r0, r1, r2, r3, ip, pc}^

000094a0 <undef_handler>:
    94a0:	e92d500f 	push	{r0, r1, r2, r3, ip, lr}
    94a4:	e30d05fc 	movw	r0, #54780	; 0xd5fc
    94a8:	e3400000 	movt	r0, #0
    94ac:	e1a0100e 	mov	r1, lr
    94b0:	eb000d76 	bl	ca90 <printk>
    94b4:	e8fd900f 	ldm	sp!, {r0, r1, r2, r3, ip, pc}^

000094b8 <interrupt_handler>:
    94b8:	e24ee004 	sub	lr, lr, #4
    94bc:	e59fd030 	ldr	sp, [pc, #48]	; 94f4 <exit_interrupt+0x18>
    94c0:	e59dd000 	ldr	sp, [sp]
    94c4:	e8cd7fff 	stmia	sp, {r0, r1, r2, r3, r4, r5, r6, r7, r8, r9, sl, fp, ip, sp, lr}^
    94c8:	e58de03c 	str	lr, [sp, #60]	; 0x3c
    94cc:	e14f0000 	mrs	r0, SPSR
    94d0:	e58d0040 	str	r0, [sp, #64]	; 0x40
    94d4:	e28dda02 	add	sp, sp, #8192	; 0x2000
    94d8:	ebffffa8 	bl	9380 <interrupt_handler_c>

000094dc <exit_interrupt>:
    94dc:	e24dda02 	sub	sp, sp, #8192	; 0x2000
    94e0:	e59d0040 	ldr	r0, [sp, #64]	; 0x40
    94e4:	e16ff000 	msr	SPSR_fsxc, r0
    94e8:	e59de03c 	ldr	lr, [sp, #60]	; 0x3c
    94ec:	e8dd7fff 	ldm	sp, {r0, r1, r2, r3, r4, r5, r6, r7, r8, r9, sl, fp, ip, sp, lr}^
    94f0:	e1b0f00e 	movs	pc, lr
    94f4:	00038008 	andeq	r8, r3, r8

000094f8 <gic400_init>:
    94f8:	e3a03a01 	mov	r3, #4096	; 0x1000
    94fc:	e3a02000 	mov	r2, #0
    9500:	e34f3f84 	movt	r3, #65412	; 0xff84
    9504:	e52de004 	push	{lr}		; (str lr, [sp, #-4]!)
    9508:	e5832000 	str	r2, [r3]
    950c:	e3012004 	movw	r2, #4100	; 0x1004
    9510:	e34f2f84 	movt	r2, #65412	; 0xff84
    9514:	e5922000 	ldr	r2, [r2]
    9518:	e308343c 	movw	r3, #33852	; 0x843c
    951c:	e202200f 	and	r2, r2, #15
    9520:	e3403002 	movt	r3, #2
    9524:	e3520000 	cmp	r2, #0
    9528:	e1a0e282 	lsl	lr, r2, #5
    952c:	e583e000 	str	lr, [r3]
    9530:	0a00002d 	beq	95ec <gic400_init+0xf4>
    9534:	e3a00e46 	mov	r0, #1120	; 0x460
    9538:	e3a03d46 	mov	r3, #4480	; 0x1180
    953c:	e3430fe1 	movt	r0, #16353	; 0x3fe1
    9540:	e0820000 	add	r0, r2, r0
    9544:	e3e02000 	mvn	r2, #0
    9548:	e34f3f84 	movt	r3, #65412	; 0xff84
    954c:	e1a00100 	lsl	r0, r0, #2
    9550:	e5832000 	str	r2, [r3]
    9554:	e2831c01 	add	r1, r3, #256	; 0x100
    9558:	e5812000 	str	r2, [r1]
    955c:	e2831c02 	add	r1, r3, #512	; 0x200
    9560:	e5812000 	str	r2, [r1]
    9564:	e2833004 	add	r3, r3, #4
    9568:	e1530000 	cmp	r3, r0
    956c:	1afffff7 	bne	9550 <gic400_init+0x58>
    9570:	e1b0212e 	lsrs	r2, lr, #2
    9574:	0a00000f 	beq	95b8 <gic400_init+0xc0>
    9578:	e3a01c05 	mov	r1, #1280	; 0x500
    957c:	e3a03b05 	mov	r3, #5120	; 0x1400
    9580:	e3431fe1 	movt	r1, #16353	; 0x3fe1
    9584:	e30ac0a0 	movw	ip, #41120	; 0xa0a0
    9588:	e0821001 	add	r1, r2, r1
    958c:	e3000101 	movw	r0, #257	; 0x101
    9590:	e34f3f84 	movt	r3, #65412	; 0xff84
    9594:	e34ac0a0 	movt	ip, #41120	; 0xa0a0
    9598:	e1a01101 	lsl	r1, r1, #2
    959c:	e3400101 	movt	r0, #257	; 0x101
    95a0:	e583c000 	str	ip, [r3]
    95a4:	e2832b01 	add	r2, r3, #1024	; 0x400
    95a8:	e5820000 	str	r0, [r2]
    95ac:	e2833004 	add	r3, r3, #4
    95b0:	e1510003 	cmp	r1, r3
    95b4:	1afffff9 	bne	95a0 <gic400_init+0xa8>
    95b8:	e1b0e22e 	lsrs	lr, lr, #4
    95bc:	0a00000a 	beq	95ec <gic400_init+0xf4>
    95c0:	e3a02c07 	mov	r2, #1792	; 0x700
    95c4:	e3a03b07 	mov	r3, #7168	; 0x1c00
    95c8:	e3432fe1 	movt	r2, #16353	; 0x3fe1
    95cc:	e3a01000 	mov	r1, #0
    95d0:	e08e2002 	add	r2, lr, r2
    95d4:	e34f3f84 	movt	r3, #65412	; 0xff84
    95d8:	e1a02102 	lsl	r2, r2, #2
    95dc:	e5831000 	str	r1, [r3]
    95e0:	e2833004 	add	r3, r3, #4
    95e4:	e1520003 	cmp	r2, r3
    95e8:	1afffffb 	bne	95dc <gic400_init+0xe4>
    95ec:	e3a03c11 	mov	r3, #4352	; 0x1100
    95f0:	e3a02102 	mov	r2, #-2147483648	; 0x80000000
    95f4:	e34f3f84 	movt	r3, #65412	; 0xff84
    95f8:	e5832000 	str	r2, [r3]
    95fc:	e3a03a01 	mov	r3, #4096	; 0x1000
    9600:	e3a02001 	mov	r2, #1
    9604:	e34f3f84 	movt	r3, #65412	; 0xff84
    9608:	e5832000 	str	r2, [r3]
    960c:	e3023004 	movw	r3, #8196	; 0x2004
    9610:	e3a010f0 	mov	r1, #240	; 0xf0
    9614:	e34f3f84 	movt	r3, #65412	; 0xff84
    9618:	e5831000 	str	r1, [r3]
    961c:	e3a03a02 	mov	r3, #8192	; 0x2000
    9620:	e34f3f84 	movt	r3, #65412	; 0xff84
    9624:	e5832000 	str	r2, [r3]
    9628:	e3a00000 	mov	r0, #0
    962c:	e49df004 	pop	{pc}		; (ldr pc, [sp], #4)

00009630 <swi_handler>:
    9630:	e59fd034 	ldr	sp, [pc, #52]	; 966c <swi_handler+0x3c>
    9634:	e59dd000 	ldr	sp, [sp]
    9638:	e8cd7fff 	stmia	sp, {r0, r1, r2, r3, r4, r5, r6, r7, r8, r9, sl, fp, ip, sp, lr}^
    963c:	e58de03c 	str	lr, [sp, #60]	; 0x3c
    9640:	e14fc000 	mrs	ip, SPSR
    9644:	e58dc040 	str	ip, [sp, #64]	; 0x40
    9648:	e28dda02 	add	sp, sp, #8192	; 0x2000
    964c:	eb000007 	bl	9670 <swi_handler_c>
    9650:	e24dda02 	sub	sp, sp, #8192	; 0x2000
    9654:	e58d0000 	str	r0, [sp]
    9658:	e59d0040 	ldr	r0, [sp, #64]	; 0x40
    965c:	e16ff000 	msr	SPSR_fsxc, r0
    9660:	e59de03c 	ldr	lr, [sp, #60]	; 0x3c
    9664:	e8dd7fff 	ldm	sp, {r0, r1, r2, r3, r4, r5, r6, r7, r8, r9, sl, fp, ip, sp, lr}^
    9668:	e1b0f00e 	movs	pc, lr
    966c:	00038008 	andeq	r8, r3, r8

00009670 <swi_handler_c>:
    9670:	e357007a 	cmp	r7, #122	; 0x7a
    9674:	e92d40b0 	push	{r4, r5, r7, lr}
    9678:	e1a04000 	mov	r4, r0
    967c:	ca000080 	bgt	9884 <swi_handler_c+0x214>
    9680:	e3570000 	cmp	r7, #0
    9684:	da000096 	ble	98e4 <swi_handler_c+0x274>
    9688:	e1a03002 	mov	r3, r2
    968c:	e2472001 	sub	r2, r7, #1
    9690:	e3520079 	cmp	r2, #121	; 0x79
    9694:	979ff102 	ldrls	pc, [pc, r2, lsl #2]
    9698:	ea000091 	b	98e4 <swi_handler_c+0x274>
    969c:	00009a28 	andeq	r9, r0, r8, lsr #20
    96a0:	000098e4 	andeq	r9, r0, r4, ror #17
    96a4:	00009a18 	andeq	r9, r0, r8, lsl sl
    96a8:	00009a08 	andeq	r9, r0, r8, lsl #20
    96ac:	000099f8 	strdeq	r9, [r0], -r8
    96b0:	000099ec 	andeq	r9, r0, ip, ror #19
    96b4:	000099cc 	andeq	r9, r0, ip, asr #19
    96b8:	000098e4 	andeq	r9, r0, r4, ror #17
    96bc:	000098e4 	andeq	r9, r0, r4, ror #17
    96c0:	000098e4 	andeq	r9, r0, r4, ror #17
    96c4:	000099a0 	andeq	r9, r0, r0, lsr #19
    96c8:	00009994 	muleq	r0, r4, r9
    96cc:	00009988 	andeq	r9, r0, r8, lsl #19
    96d0:	000098e4 	andeq	r9, r0, r4, ror #17
    96d4:	000098e4 	andeq	r9, r0, r4, ror #17
    96d8:	000098e4 	andeq	r9, r0, r4, ror #17
    96dc:	000098e4 	andeq	r9, r0, r4, ror #17
    96e0:	000098e4 	andeq	r9, r0, r4, ror #17
    96e4:	000098e4 	andeq	r9, r0, r4, ror #17
    96e8:	00009974 	andeq	r9, r0, r4, ror r9
    96ec:	000098e4 	andeq	r9, r0, r4, ror #17
    96f0:	000098e4 	andeq	r9, r0, r4, ror #17
    96f4:	000098e4 	andeq	r9, r0, r4, ror #17
    96f8:	000098e4 	andeq	r9, r0, r4, ror #17
    96fc:	000098e4 	andeq	r9, r0, r4, ror #17
    9700:	000098e4 	andeq	r9, r0, r4, ror #17
    9704:	000098e4 	andeq	r9, r0, r4, ror #17
    9708:	000098e4 	andeq	r9, r0, r4, ror #17
    970c:	000098e4 	andeq	r9, r0, r4, ror #17
    9710:	000098e4 	andeq	r9, r0, r4, ror #17
    9714:	000098e4 	andeq	r9, r0, r4, ror #17
    9718:	000098e4 	andeq	r9, r0, r4, ror #17
    971c:	000098e4 	andeq	r9, r0, r4, ror #17
    9720:	000098e4 	andeq	r9, r0, r4, ror #17
    9724:	000098e4 	andeq	r9, r0, r4, ror #17
    9728:	000098e4 	andeq	r9, r0, r4, ror #17
    972c:	000098e4 	andeq	r9, r0, r4, ror #17
    9730:	000098e4 	andeq	r9, r0, r4, ror #17
    9734:	000098e4 	andeq	r9, r0, r4, ror #17
    9738:	000098e4 	andeq	r9, r0, r4, ror #17
    973c:	000098e4 	andeq	r9, r0, r4, ror #17
    9740:	000098e4 	andeq	r9, r0, r4, ror #17
    9744:	00009968 	andeq	r9, r0, r8, ror #18
    9748:	000098e4 	andeq	r9, r0, r4, ror #17
    974c:	000098e4 	andeq	r9, r0, r4, ror #17
    9750:	000098e4 	andeq	r9, r0, r4, ror #17
    9754:	000098e4 	andeq	r9, r0, r4, ror #17
    9758:	000098e4 	andeq	r9, r0, r4, ror #17
    975c:	000098e4 	andeq	r9, r0, r4, ror #17
    9760:	000098e4 	andeq	r9, r0, r4, ror #17
    9764:	000098e4 	andeq	r9, r0, r4, ror #17
    9768:	000098e4 	andeq	r9, r0, r4, ror #17
    976c:	000098e4 	andeq	r9, r0, r4, ror #17
    9770:	00009950 	andeq	r9, r0, r0, asr r9
    9774:	000098e4 	andeq	r9, r0, r4, ror #17
    9778:	000098e4 	andeq	r9, r0, r4, ror #17
    977c:	000098e4 	andeq	r9, r0, r4, ror #17
    9780:	000098e4 	andeq	r9, r0, r4, ror #17
    9784:	000098e4 	andeq	r9, r0, r4, ror #17
    9788:	000098e4 	andeq	r9, r0, r4, ror #17
    978c:	000098e4 	andeq	r9, r0, r4, ror #17
    9790:	000098e4 	andeq	r9, r0, r4, ror #17
    9794:	000098e4 	andeq	r9, r0, r4, ror #17
    9798:	000098e4 	andeq	r9, r0, r4, ror #17
    979c:	000098e4 	andeq	r9, r0, r4, ror #17
    97a0:	000098e4 	andeq	r9, r0, r4, ror #17
    97a4:	000098e4 	andeq	r9, r0, r4, ror #17
    97a8:	000098e4 	andeq	r9, r0, r4, ror #17
    97ac:	000098e4 	andeq	r9, r0, r4, ror #17
    97b0:	000098e4 	andeq	r9, r0, r4, ror #17
    97b4:	000098e4 	andeq	r9, r0, r4, ror #17
    97b8:	000098e4 	andeq	r9, r0, r4, ror #17
    97bc:	000098e4 	andeq	r9, r0, r4, ror #17
    97c0:	000098e4 	andeq	r9, r0, r4, ror #17
    97c4:	000098e4 	andeq	r9, r0, r4, ror #17
    97c8:	000098e4 	andeq	r9, r0, r4, ror #17
    97cc:	000098e4 	andeq	r9, r0, r4, ror #17
    97d0:	000098e4 	andeq	r9, r0, r4, ror #17
    97d4:	000098e4 	andeq	r9, r0, r4, ror #17
    97d8:	000098e4 	andeq	r9, r0, r4, ror #17
    97dc:	000098e4 	andeq	r9, r0, r4, ror #17
    97e0:	000098e4 	andeq	r9, r0, r4, ror #17
    97e4:	000098e4 	andeq	r9, r0, r4, ror #17
    97e8:	000098e4 	andeq	r9, r0, r4, ror #17
    97ec:	000098e4 	andeq	r9, r0, r4, ror #17
    97f0:	000098e4 	andeq	r9, r0, r4, ror #17
    97f4:	000098e4 	andeq	r9, r0, r4, ror #17
    97f8:	00009920 	andeq	r9, r0, r0, lsr #18
    97fc:	000098e4 	andeq	r9, r0, r4, ror #17
    9800:	000098e4 	andeq	r9, r0, r4, ror #17
    9804:	000098e4 	andeq	r9, r0, r4, ror #17
    9808:	000098e4 	andeq	r9, r0, r4, ror #17
    980c:	000098e4 	andeq	r9, r0, r4, ror #17
    9810:	000098e4 	andeq	r9, r0, r4, ror #17
    9814:	000098e4 	andeq	r9, r0, r4, ror #17
    9818:	000098e4 	andeq	r9, r0, r4, ror #17
    981c:	000098e4 	andeq	r9, r0, r4, ror #17
    9820:	000098e4 	andeq	r9, r0, r4, ror #17
    9824:	000098e4 	andeq	r9, r0, r4, ror #17
    9828:	000098e4 	andeq	r9, r0, r4, ror #17
    982c:	000098e4 	andeq	r9, r0, r4, ror #17
    9830:	000098e4 	andeq	r9, r0, r4, ror #17
    9834:	000098e4 	andeq	r9, r0, r4, ror #17
    9838:	000098e4 	andeq	r9, r0, r4, ror #17
    983c:	000098e4 	andeq	r9, r0, r4, ror #17
    9840:	00009914 	andeq	r9, r0, r4, lsl r9
    9844:	000098e4 	andeq	r9, r0, r4, ror #17
    9848:	000098e4 	andeq	r9, r0, r4, ror #17
    984c:	000098e4 	andeq	r9, r0, r4, ror #17
    9850:	000098e4 	andeq	r9, r0, r4, ror #17
    9854:	000098e4 	andeq	r9, r0, r4, ror #17
    9858:	000098e4 	andeq	r9, r0, r4, ror #17
    985c:	000098e4 	andeq	r9, r0, r4, ror #17
    9860:	000098e4 	andeq	r9, r0, r4, ror #17
    9864:	000098e4 	andeq	r9, r0, r4, ror #17
    9868:	00009908 	andeq	r9, r0, r8, lsl #18
    986c:	000098e4 	andeq	r9, r0, r4, ror #17
    9870:	000098e4 	andeq	r9, r0, r4, ror #17
    9874:	000098e4 	andeq	r9, r0, r4, ror #17
    9878:	000098e4 	andeq	r9, r0, r4, ror #17
    987c:	000098e4 	andeq	r9, r0, r4, ror #17
    9880:	000098fc 	strdeq	r9, [r0], -ip
    9884:	e35700be 	cmp	r7, #190	; 0xbe
    9888:	0a000068 	beq	9a30 <swi_handler_c+0x3c0>
    988c:	da000008 	ble	98b4 <swi_handler_c+0x244>
    9890:	e3570a02 	cmp	r7, #8192	; 0x2000
    9894:	0a00006b 	beq	9a48 <swi_handler_c+0x3d8>
    9898:	e3023009 	movw	r3, #8201	; 0x2009
    989c:	e1570003 	cmp	r7, r3
    98a0:	1a00000f 	bne	98e4 <swi_handler_c+0x274>
    98a4:	eb000762 	bl	b634 <memory_allocate>
    98a8:	e1a07000 	mov	r7, r0
    98ac:	e1a00007 	mov	r0, r7
    98b0:	e8bd80b0 	pop	{r4, r5, r7, pc}
    98b4:	e35700a2 	cmp	r7, #162	; 0xa2
    98b8:	0a00005f 	beq	9a3c <swi_handler_c+0x3cc>
    98bc:	e35700b7 	cmp	r7, #183	; 0xb7
    98c0:	1a000002 	bne	98d0 <swi_handler_c+0x260>
    98c4:	eb0001c3 	bl	9fd8 <getcwd>
    98c8:	e1a07000 	mov	r7, r0
    98cc:	eafffff6 	b	98ac <swi_handler_c+0x23c>
    98d0:	e357008d 	cmp	r7, #141	; 0x8d
    98d4:	1a000002 	bne	98e4 <swi_handler_c+0x274>
    98d8:	eb00018a 	bl	9f08 <getdents>
    98dc:	e1a07000 	mov	r7, r0
    98e0:	eafffff1 	b	98ac <swi_handler_c+0x23c>
    98e4:	e30d065c 	movw	r0, #54876	; 0xd65c
    98e8:	e1a01007 	mov	r1, r7
    98ec:	e3400000 	movt	r0, #0
    98f0:	eb000c66 	bl	ca90 <printk>
    98f4:	e3a07000 	mov	r7, #0
    98f8:	eaffffeb 	b	98ac <swi_handler_c+0x23c>
    98fc:	eb0000af 	bl	9bc0 <uname>
    9900:	e1a07000 	mov	r7, r0
    9904:	eaffffe8 	b	98ac <swi_handler_c+0x23c>
    9908:	eb000082 	bl	9b18 <sysinfo>
    990c:	e1a07000 	mov	r7, r0
    9910:	eaffffe5 	b	98ac <swi_handler_c+0x23c>
    9914:	eb000152 	bl	9e64 <stat>
    9918:	e1a07000 	mov	r7, r0
    991c:	eaffffe2 	b	98ac <swi_handler_c+0x23c>
    9920:	e3a01001 	mov	r1, #1
    9924:	e3a00024 	mov	r0, #36	; 0x24
    9928:	e3451a00 	movt	r1, #23040	; 0x5a00
    992c:	e3400010 	movt	r0, #16
    9930:	eb000321 	bl	a5bc <bcm2835_write>
    9934:	e3a01020 	mov	r1, #32
    9938:	e3a0001c 	mov	r0, #28
    993c:	e3451a00 	movt	r1, #23040	; 0x5a00
    9940:	e3400010 	movt	r0, #16
    9944:	eb00031c 	bl	a5bc <bcm2835_write>
    9948:	e3e07000 	mvn	r7, #0
    994c:	eaffffd6 	b	98ac <swi_handler_c+0x23c>
    9950:	e30d0610 	movw	r0, #54800	; 0xd610
    9954:	e1a02001 	mov	r2, r1
    9958:	e3400000 	movt	r0, #0
    995c:	e1a01004 	mov	r1, r4
    9960:	eb000c4a 	bl	ca90 <printk>
    9964:	eafffff7 	b	9948 <swi_handler_c+0x2d8>
    9968:	eb000089 	bl	9b94 <times>
    996c:	e1a07000 	mov	r7, r0
    9970:	eaffffcd 	b	98ac <swi_handler_c+0x23c>
    9974:	e3083008 	movw	r3, #32776	; 0x8008
    9978:	e3403003 	movt	r3, #3
    997c:	e5933000 	ldr	r3, [r3]
    9980:	e59370a8 	ldr	r7, [r3, #168]	; 0xa8
    9984:	eaffffc8 	b	98ac <swi_handler_c+0x23c>
    9988:	eb000abf 	bl	c48c <time_since_boot>
    998c:	e1a07000 	mov	r7, r0
    9990:	eaffffc5 	b	98ac <swi_handler_c+0x23c>
    9994:	eb000177 	bl	9f78 <chdir>
    9998:	e1a07000 	mov	r7, r0
    999c:	eaffffc2 	b	98ac <swi_handler_c+0x23c>
    99a0:	e1a02003 	mov	r2, r3
    99a4:	eb00089d 	bl	bc20 <execve>
    99a8:	e3083008 	movw	r3, #32776	; 0x8008
    99ac:	e3a02001 	mov	r2, #1
    99b0:	e3403003 	movt	r3, #3
    99b4:	e1a07000 	mov	r7, r0
    99b8:	e5933000 	ldr	r3, [r3]
    99bc:	e59330b0 	ldr	r3, [r3, #176]	; 0xb0
    99c0:	e5832098 	str	r2, [r3, #152]	; 0x98
    99c4:	eb000936 	bl	bea4 <schedule>
    99c8:	eaffffb7 	b	98ac <swi_handler_c+0x23c>
    99cc:	e3080008 	movw	r0, #32776	; 0x8008
    99d0:	e1a02003 	mov	r2, r3
    99d4:	e3400003 	movt	r0, #3
    99d8:	e5903000 	ldr	r3, [r0]
    99dc:	e1a00004 	mov	r0, r4
    99e0:	eb0009c2 	bl	c0f0 <waitpid>
    99e4:	e1a07000 	mov	r7, r0
    99e8:	eaffffaf 	b	98ac <swi_handler_c+0x23c>
    99ec:	eb0000e0 	bl	9d74 <close>
    99f0:	e1a07000 	mov	r7, r0
    99f4:	eaffffac 	b	98ac <swi_handler_c+0x23c>
    99f8:	e1a02003 	mov	r2, r3
    99fc:	eb0000de 	bl	9d7c <open>
    9a00:	e1a07000 	mov	r7, r0
    9a04:	eaffffa8 	b	98ac <swi_handler_c+0x23c>
    9a08:	e1a02003 	mov	r2, r3
    9a0c:	eb000106 	bl	9e2c <write>
    9a10:	e1a07000 	mov	r7, r0
    9a14:	eaffffa4 	b	98ac <swi_handler_c+0x23c>
    9a18:	e1a02003 	mov	r2, r3
    9a1c:	eb0000de 	bl	9d9c <read>
    9a20:	e1a07000 	mov	r7, r0
    9a24:	eaffffa0 	b	98ac <swi_handler_c+0x23c>
    9a28:	eb000019 	bl	9a94 <exit>
    9a2c:	eaffffb0 	b	98f4 <swi_handler_c+0x284>
    9a30:	eb00097f 	bl	c034 <vfork>
    9a34:	e1a07000 	mov	r7, r0
    9a38:	eaffff9b 	b	98ac <swi_handler_c+0x23c>
    9a3c:	eb00001e 	bl	9abc <nanosleep>
    9a40:	e1a07000 	mov	r7, r0
    9a44:	eaffff98 	b	98ac <swi_handler_c+0x23c>
    9a48:	e3500000 	cmp	r0, #0
    9a4c:	1a000007 	bne	9a70 <swi_handler_c+0x400>
    9a50:	e30d0638 	movw	r0, #54840	; 0xd638
    9a54:	e1a07004 	mov	r7, r4
    9a58:	e3400000 	movt	r0, #0
    9a5c:	eb000c0b 	bl	ca90 <printk>
    9a60:	e305340c 	movw	r3, #21516	; 0x540c
    9a64:	e3403002 	movt	r3, #2
    9a68:	e5834000 	str	r4, [r3]
    9a6c:	eaffff8e 	b	98ac <swi_handler_c+0x23c>
    9a70:	e30d064c 	movw	r0, #54860	; 0xd64c
    9a74:	e3a07000 	mov	r7, #0
    9a78:	e3400000 	movt	r0, #0
    9a7c:	eb000c03 	bl	ca90 <printk>
    9a80:	e305340c 	movw	r3, #21516	; 0x540c
    9a84:	e3a02001 	mov	r2, #1
    9a88:	e3403002 	movt	r3, #2
    9a8c:	e5832000 	str	r2, [r3]
    9a90:	eaffff85 	b	98ac <swi_handler_c+0x23c>

00009a94 <exit>:
    9a94:	e3083008 	movw	r3, #32776	; 0x8008
    9a98:	e3a02002 	mov	r2, #2
    9a9c:	e3403003 	movt	r3, #3
    9aa0:	e92d4010 	push	{r4, lr}
    9aa4:	e5933000 	ldr	r3, [r3]
    9aa8:	e5832098 	str	r2, [r3, #152]	; 0x98
    9aac:	e58300ac 	str	r0, [r3, #172]	; 0xac
    9ab0:	eb000988 	bl	c0d8 <waitpid_done>
    9ab4:	e8bd4010 	pop	{r4, lr}
    9ab8:	ea0008f9 	b	bea4 <schedule>

00009abc <nanosleep>:
    9abc:	e5903004 	ldr	r3, [r0, #4]
    9ac0:	e30d1e83 	movw	r1, #56963	; 0xde83
    9ac4:	e344131b 	movt	r1, #17179	; 0x431b
    9ac8:	e3042dd3 	movw	r2, #19923	; 0x4dd3
    9acc:	e92d4010 	push	{r4, lr}
    9ad0:	e5904000 	ldr	r4, [r0]
    9ad4:	e0803391 	umull	r3, r0, r1, r3
    9ad8:	e3412062 	movt	r2, #4194	; 0x1062
    9adc:	e1a00920 	lsr	r0, r0, #18
    9ae0:	e1a04304 	lsl	r4, r4, #6
    9ae4:	e1a00300 	lsl	r0, r0, #6
    9ae8:	e0803092 	umull	r3, r0, r2, r0
    9aec:	e0844320 	add	r4, r4, r0, lsr #6
    9af0:	eb000a6a 	bl	c4a0 <ticks_since_boot>
    9af4:	e0844000 	add	r4, r4, r0
    9af8:	ea000000 	b	9b00 <nanosleep+0x44>
    9afc:	eb0003f9 	bl	aae8 <timer_sleep_until>
    9b00:	eb000a66 	bl	c4a0 <ticks_since_boot>
    9b04:	e1500004 	cmp	r0, r4
    9b08:	e1a00004 	mov	r0, r4
    9b0c:	9afffffa 	bls	9afc <nanosleep+0x40>
    9b10:	e3a00000 	mov	r0, #0
    9b14:	e8bd8010 	pop	{r4, pc}

00009b18 <sysinfo>:
    9b18:	e92d4010 	push	{r4, lr}
    9b1c:	e3a02040 	mov	r2, #64	; 0x40
    9b20:	e24dd008 	sub	sp, sp, #8
    9b24:	e3a01000 	mov	r1, #0
    9b28:	e1a04000 	mov	r4, r0
    9b2c:	eb000aac 	bl	c5e4 <memset>
    9b30:	eb000a5a 	bl	c4a0 <ticks_since_boot>
    9b34:	e1a00320 	lsr	r0, r0, #6
    9b38:	e5840000 	str	r0, [r4]
    9b3c:	eb00072c 	bl	b7f4 <memory_get_total>
    9b40:	e5840010 	str	r0, [r4, #16]
    9b44:	eb0006a5 	bl	b5e0 <memory_total_free>
    9b48:	e5840014 	str	r0, [r4, #20]
    9b4c:	e28d1004 	add	r1, sp, #4
    9b50:	e3a00001 	mov	r0, #1
    9b54:	eb000784 	bl	b96c <process_get_totals>
    9b58:	e59d2004 	ldr	r2, [sp, #4]
    9b5c:	e3083000 	movw	r3, #32768	; 0x8000
    9b60:	e3403003 	movt	r3, #3
    9b64:	e5842038 	str	r2, [r4, #56]	; 0x38
    9b68:	e5933000 	ldr	r3, [r3]
    9b6c:	e5840028 	str	r0, [r4, #40]	; 0x28
    9b70:	e3a00000 	mov	r0, #0
    9b74:	e59320a4 	ldr	r2, [r3, #164]	; 0xa4
    9b78:	e1520000 	cmp	r2, r0
    9b7c:	e282303f 	add	r3, r2, #63	; 0x3f
    9b80:	a1a03002 	movge	r3, r2
    9b84:	e1a03343 	asr	r3, r3, #6
    9b88:	e584303c 	str	r3, [r4, #60]	; 0x3c
    9b8c:	e28dd008 	add	sp, sp, #8
    9b90:	e8bd8010 	pop	{r4, pc}

00009b94 <times>:
    9b94:	e3082008 	movw	r2, #32776	; 0x8008
    9b98:	e1a03000 	mov	r3, r0
    9b9c:	e3402003 	movt	r2, #3
    9ba0:	e3a00000 	mov	r0, #0
    9ba4:	e5922000 	ldr	r2, [r2]
    9ba8:	e59220a4 	ldr	r2, [r2, #164]	; 0xa4
    9bac:	e5830004 	str	r0, [r3, #4]
    9bb0:	e5830008 	str	r0, [r3, #8]
    9bb4:	e5832000 	str	r2, [r3]
    9bb8:	e583000c 	str	r0, [r3, #12]
    9bbc:	e12fff1e 	bx	lr

00009bc0 <uname>:
    9bc0:	e30d1670 	movw	r1, #54896	; 0xd670
    9bc4:	e3a02041 	mov	r2, #65	; 0x41
    9bc8:	e92d4010 	push	{r4, lr}
    9bcc:	e1a04000 	mov	r4, r0
    9bd0:	e3401000 	movt	r1, #0
    9bd4:	eb000c17 	bl	cc38 <strlcpy>
    9bd8:	e3a02041 	mov	r2, #65	; 0x41
    9bdc:	e30d1678 	movw	r1, #54904	; 0xd678
    9be0:	e0840002 	add	r0, r4, r2
    9be4:	e3401000 	movt	r1, #0
    9be8:	eb000c12 	bl	cc38 <strlcpy>
    9bec:	e30d1048 	movw	r1, #53320	; 0xd048
    9bf0:	e3a02041 	mov	r2, #65	; 0x41
    9bf4:	e3401000 	movt	r1, #0
    9bf8:	e2840082 	add	r0, r4, #130	; 0x82
    9bfc:	eb000c0d 	bl	cc38 <strlcpy>
    9c00:	e30d167c 	movw	r1, #54908	; 0xd67c
    9c04:	e3a02041 	mov	r2, #65	; 0x41
    9c08:	e3401000 	movt	r1, #0
    9c0c:	e28400c3 	add	r0, r4, #195	; 0xc3
    9c10:	eb000c08 	bl	cc38 <strlcpy>
    9c14:	e30d169c 	movw	r1, #54940	; 0xd69c
    9c18:	e3a02041 	mov	r2, #65	; 0x41
    9c1c:	e3401000 	movt	r1, #0
    9c20:	e2840f41 	add	r0, r4, #260	; 0x104
    9c24:	eb000c03 	bl	cc38 <strlcpy>
    9c28:	e2840f51 	add	r0, r4, #324	; 0x144
    9c2c:	e30d16a4 	movw	r1, #54948	; 0xd6a4
    9c30:	e3401000 	movt	r1, #0
    9c34:	e3a02041 	mov	r2, #65	; 0x41
    9c38:	e2800001 	add	r0, r0, #1
    9c3c:	eb000bfd 	bl	cc38 <strlcpy>
    9c40:	e3a00000 	mov	r0, #0
    9c44:	e8bd8010 	pop	{r4, pc}

00009c48 <fd_free>:
    9c48:	e3e00008 	mvn	r0, #8
    9c4c:	e12fff1e 	bx	lr

00009c50 <fd_allocate>:
    9c50:	e3081440 	movw	r1, #33856	; 0x8440
    9c54:	e3a0c00c 	mov	ip, #12
    9c58:	e52de004 	push	{lr}		; (str lr, [sp, #-4]!)
    9c5c:	e1a0e000 	mov	lr, r0
    9c60:	e3401002 	movt	r1, #2
    9c64:	e3a00000 	mov	r0, #0
    9c68:	ea000002 	b	9c78 <fd_allocate+0x28>
    9c6c:	e2800001 	add	r0, r0, #1
    9c70:	e3500020 	cmp	r0, #32
    9c74:	0a000009 	beq	9ca0 <fd_allocate+0x50>
    9c78:	e003009c 	mul	r3, ip, r0
    9c7c:	e7912003 	ldr	r2, [r1, r3]
    9c80:	e3520000 	cmp	r2, #0
    9c84:	1afffff8 	bne	9c6c <fd_allocate+0x1c>
    9c88:	e081c003 	add	ip, r1, r3
    9c8c:	e58c2008 	str	r2, [ip, #8]
    9c90:	e3a02001 	mov	r2, #1
    9c94:	e58ce004 	str	lr, [ip, #4]
    9c98:	e7812003 	str	r2, [r1, r3]
    9c9c:	e49df004 	pop	{pc}		; (ldr pc, [sp], #4)
    9ca0:	e3e00016 	mvn	r0, #22
    9ca4:	e49df004 	pop	{pc}		; (ldr pc, [sp], #4)

00009ca8 <get_inode>:
    9ca8:	e92d4030 	push	{r4, r5, lr}
    9cac:	e1a04000 	mov	r4, r0
    9cb0:	e5d03000 	ldrb	r3, [r0]
    9cb4:	e24ddf41 	sub	sp, sp, #260	; 0x104
    9cb8:	e353002f 	cmp	r3, #47	; 0x2f
    9cbc:	13082008 	movwne	r2, #32776	; 0x8008
    9cc0:	03082440 	movweq	r2, #33856	; 0x8440
    9cc4:	13402003 	movtne	r2, #3
    9cc8:	02804001 	addeq	r4, r0, #1
    9ccc:	05d03001 	ldrbeq	r3, [r0, #1]
    9cd0:	03402002 	movteq	r2, #2
    9cd4:	15922000 	ldrne	r2, [r2]
    9cd8:	05920180 	ldreq	r0, [r2, #384]	; 0x180
    9cdc:	159200b4 	ldrne	r0, [r2, #180]	; 0xb4
    9ce0:	e3530000 	cmp	r3, #0
    9ce4:	0a00001d 	beq	9d60 <get_inode+0xb8>
    9ce8:	e3a01000 	mov	r1, #0
    9cec:	e2844001 	add	r4, r4, #1
    9cf0:	e1a0c00d 	mov	ip, sp
    9cf4:	e1a05001 	mov	r5, r1
    9cf8:	ea000007 	b	9d1c <get_inode+0x74>
    9cfc:	e4c23001 	strb	r3, [r2], #1
    9d00:	e5d43000 	ldrb	r3, [r4]
    9d04:	e3530000 	cmp	r3, #0
    9d08:	0a000010 	beq	9d50 <get_inode+0xa8>
    9d0c:	e35100ff 	cmp	r1, #255	; 0xff
    9d10:	0a000014 	beq	9d68 <get_inode+0xc0>
    9d14:	e2844001 	add	r4, r4, #1
    9d18:	e1a0c002 	mov	ip, r2
    9d1c:	e353002f 	cmp	r3, #47	; 0x2f
    9d20:	e1a0200c 	mov	r2, ip
    9d24:	e2811001 	add	r1, r1, #1
    9d28:	1afffff3 	bne	9cfc <get_inode+0x54>
    9d2c:	e5cc5000 	strb	r5, [ip]
    9d30:	e1a0100d 	mov	r1, sp
    9d34:	eb000109 	bl	a160 <romfs_get_inode>
    9d38:	e5d43000 	ldrb	r3, [r4]
    9d3c:	e3a01000 	mov	r1, #0
    9d40:	e1a0200d 	mov	r2, sp
    9d44:	e1530001 	cmp	r3, r1
    9d48:	1afffff1 	bne	9d14 <get_inode+0x6c>
    9d4c:	e1a0200d 	mov	r2, sp
    9d50:	e3a03000 	mov	r3, #0
    9d54:	e5c23000 	strb	r3, [r2]
    9d58:	e1a0100d 	mov	r1, sp
    9d5c:	eb0000ff 	bl	a160 <romfs_get_inode>
    9d60:	e28ddf41 	add	sp, sp, #260	; 0x104
    9d64:	e8bd8030 	pop	{r4, r5, pc}
    9d68:	e3a03000 	mov	r3, #0
    9d6c:	e5cc3001 	strb	r3, [ip, #1]
    9d70:	eafffff8 	b	9d58 <get_inode+0xb0>

00009d74 <close>:
    9d74:	e3e00008 	mvn	r0, #8
    9d78:	e12fff1e 	bx	lr

00009d7c <open>:
    9d7c:	e92d4010 	push	{r4, lr}
    9d80:	ebffffc8 	bl	9ca8 <get_inode>
    9d84:	e3500000 	cmp	r0, #0
    9d88:	ba000001 	blt	9d94 <open+0x18>
    9d8c:	e8bd4010 	pop	{r4, lr}
    9d90:	eaffffae 	b	9c50 <fd_allocate>
    9d94:	e3e00001 	mvn	r0, #1
    9d98:	e8bd8010 	pop	{r4, pc}

00009d9c <read>:
    9d9c:	e250c000 	subs	ip, r0, #0
    9da0:	e1a03002 	mov	r3, r2
    9da4:	e92d4010 	push	{r4, lr}
    9da8:	e1a0e001 	mov	lr, r1
    9dac:	0a000012 	beq	9dfc <read+0x60>
    9db0:	e35c001f 	cmp	ip, #31
    9db4:	8a000014 	bhi	9e0c <read+0x70>
    9db8:	e3081440 	movw	r1, #33856	; 0x8440
    9dbc:	e3a0200c 	mov	r2, #12
    9dc0:	e3401002 	movt	r1, #2
    9dc4:	e0020c92 	mul	r2, r2, ip
    9dc8:	e7910002 	ldr	r0, [r1, r2]
    9dcc:	e0814002 	add	r4, r1, r2
    9dd0:	e3500000 	cmp	r0, #0
    9dd4:	0a00000e 	beq	9e14 <read+0x78>
    9dd8:	e1c400d4 	ldrd	r0, [r4, #4]
    9ddc:	e1a0200e 	mov	r2, lr
    9de0:	eb000161 	bl	a36c <romfs_read_file>
    9de4:	e3500000 	cmp	r0, #0
    9de8:	d8bd8010 	pople	{r4, pc}
    9dec:	e5943008 	ldr	r3, [r4, #8]
    9df0:	e0833000 	add	r3, r3, r0
    9df4:	e5843008 	str	r3, [r4, #8]
    9df8:	e8bd8010 	pop	{r4, pc}
    9dfc:	e1a0000e 	mov	r0, lr
    9e00:	e1a01002 	mov	r1, r2
    9e04:	e8bd4010 	pop	{r4, lr}
    9e08:	ea00023d 	b	a704 <console_read>
    9e0c:	e3e00016 	mvn	r0, #22
    9e10:	e8bd8010 	pop	{r4, pc}
    9e14:	e30d06ac 	movw	r0, #54956	; 0xd6ac
    9e18:	e1a0100c 	mov	r1, ip
    9e1c:	e3400000 	movt	r0, #0
    9e20:	eb000b1a 	bl	ca90 <printk>
    9e24:	e3e00008 	mvn	r0, #8
    9e28:	e8bd8010 	pop	{r4, pc}

00009e2c <write>:
    9e2c:	e240c001 	sub	ip, r0, #1
    9e30:	e35c0001 	cmp	ip, #1
    9e34:	8a000002 	bhi	9e44 <write+0x18>
    9e38:	e1a00001 	mov	r0, r1
    9e3c:	e1a01002 	mov	r1, r2
    9e40:	ea00022e 	b	a700 <console_write>
    9e44:	e1a03000 	mov	r3, r0
    9e48:	e30d06d8 	movw	r0, #55000	; 0xd6d8
    9e4c:	e3400000 	movt	r0, #0
    9e50:	e1a01003 	mov	r1, r3
    9e54:	e92d4010 	push	{r4, lr}
    9e58:	eb000b0c 	bl	ca90 <printk>
    9e5c:	e3e00008 	mvn	r0, #8
    9e60:	e8bd8010 	pop	{r4, pc}

00009e64 <stat>:
    9e64:	e92d4010 	push	{r4, lr}
    9e68:	e1a04001 	mov	r4, r1
    9e6c:	ebffff8d 	bl	9ca8 <get_inode>
    9e70:	e3500000 	cmp	r0, #0
    9e74:	ba000002 	blt	9e84 <stat+0x20>
    9e78:	e1a01004 	mov	r1, r4
    9e7c:	e8bd4010 	pop	{r4, lr}
    9e80:	ea000066 	b	a020 <romfs_stat>
    9e84:	e3e00001 	mvn	r0, #1
    9e88:	e8bd8010 	pop	{r4, pc}

00009e8c <mount>:
    9e8c:	e30d105c 	movw	r1, #53340	; 0xd05c
    9e90:	e1a00002 	mov	r0, r2
    9e94:	e92d4070 	push	{r4, r5, r6, lr}
    9e98:	e3a02005 	mov	r2, #5
    9e9c:	e3401000 	movt	r1, #0
    9ea0:	eb000b2a 	bl	cb50 <strncmp>
    9ea4:	e2504000 	subs	r4, r0, #0
    9ea8:	1a000007 	bne	9ecc <mount+0x40>
    9eac:	e3085440 	movw	r5, #33856	; 0x8440
    9eb0:	e3405002 	movt	r5, #2
    9eb4:	e2850f61 	add	r0, r5, #388	; 0x184
    9eb8:	eb0000f4 	bl	a290 <romfs_mount>
    9ebc:	e3500000 	cmp	r0, #0
    9ec0:	a5850180 	strge	r0, [r5, #384]	; 0x180
    9ec4:	a1a00004 	movge	r0, r4
    9ec8:	e8bd8070 	pop	{r4, r5, r6, pc}
    9ecc:	e3e00012 	mvn	r0, #18
    9ed0:	e8bd8070 	pop	{r4, r5, r6, pc}

00009ed4 <fd_table_init>:
    9ed4:	e3a03000 	mov	r3, #0
    9ed8:	e3082440 	movw	r2, #33856	; 0x8440
    9edc:	e3402002 	movt	r2, #2
    9ee0:	e1a01003 	mov	r1, r3
    9ee4:	e7821103 	str	r1, [r2, r3, lsl #2]
    9ee8:	e2833003 	add	r3, r3, #3
    9eec:	e3530060 	cmp	r3, #96	; 0x60
    9ef0:	1afffffb 	bne	9ee4 <fd_table_init+0x10>
    9ef4:	e3a03001 	mov	r3, #1
    9ef8:	e5823000 	str	r3, [r2]
    9efc:	e582300c 	str	r3, [r2, #12]
    9f00:	e5823018 	str	r3, [r2, #24]
    9f04:	e12fff1e 	bx	lr

00009f08 <getdents>:
    9f08:	e350001f 	cmp	r0, #31
    9f0c:	8a000017 	bhi	9f70 <getdents+0x68>
    9f10:	e92d4070 	push	{r4, r5, r6, lr}
    9f14:	e3a0c00c 	mov	ip, #12
    9f18:	e308e440 	movw	lr, #33856	; 0x8440
    9f1c:	e1a03002 	mov	r3, r2
    9f20:	e340e002 	movt	lr, #2
    9f24:	e1a05001 	mov	r5, r1
    9f28:	e00c009c 	mul	ip, ip, r0
    9f2c:	e1a04000 	mov	r4, r0
    9f30:	e79e200c 	ldr	r2, [lr, ip]
    9f34:	e08e100c 	add	r1, lr, ip
    9f38:	e3520000 	cmp	r2, #0
    9f3c:	0a000005 	beq	9f58 <getdents+0x50>
    9f40:	e5910004 	ldr	r0, [r1, #4]
    9f44:	e28cc008 	add	ip, ip, #8
    9f48:	e08e100c 	add	r1, lr, ip
    9f4c:	e1a02005 	mov	r2, r5
    9f50:	e8bd4070 	pop	{r4, r5, r6, lr}
    9f54:	ea000125 	b	a3f0 <romfs_getdents>
    9f58:	e30d0700 	movw	r0, #55040	; 0xd700
    9f5c:	e1a01004 	mov	r1, r4
    9f60:	e3400000 	movt	r0, #0
    9f64:	eb000ac9 	bl	ca90 <printk>
    9f68:	e3e00008 	mvn	r0, #8
    9f6c:	e8bd8070 	pop	{r4, r5, r6, pc}
    9f70:	e3e00016 	mvn	r0, #22
    9f74:	e12fff1e 	bx	lr

00009f78 <chdir>:
    9f78:	e92d4010 	push	{r4, lr}
    9f7c:	e24dd038 	sub	sp, sp, #56	; 0x38
    9f80:	ebffff48 	bl	9ca8 <get_inode>
    9f84:	e2504000 	subs	r4, r0, #0
    9f88:	ba00000e 	blt	9fc8 <chdir+0x50>
    9f8c:	e28d1004 	add	r1, sp, #4
    9f90:	eb000022 	bl	a020 <romfs_stat>
    9f94:	e3500000 	cmp	r0, #0
    9f98:	ba000008 	blt	9fc0 <chdir+0x48>
    9f9c:	e59d300c 	ldr	r3, [sp, #12]
    9fa0:	e2033a0f 	and	r3, r3, #61440	; 0xf000
    9fa4:	e3530901 	cmp	r3, #16384	; 0x4000
    9fa8:	1a000008 	bne	9fd0 <chdir+0x58>
    9fac:	e3083008 	movw	r3, #32776	; 0x8008
    9fb0:	e3a00000 	mov	r0, #0
    9fb4:	e3403003 	movt	r3, #3
    9fb8:	e5933000 	ldr	r3, [r3]
    9fbc:	e58340b4 	str	r4, [r3, #180]	; 0xb4
    9fc0:	e28dd038 	add	sp, sp, #56	; 0x38
    9fc4:	e8bd8010 	pop	{r4, pc}
    9fc8:	e3e00001 	mvn	r0, #1
    9fcc:	eafffffb 	b	9fc0 <chdir+0x48>
    9fd0:	e3e00013 	mvn	r0, #19
    9fd4:	eafffff9 	b	9fc0 <chdir+0x48>

00009fd8 <getcwd>:
    9fd8:	e3083008 	movw	r3, #32776	; 0x8008
    9fdc:	e3403003 	movt	r3, #3
    9fe0:	e92d4030 	push	{r4, r5, lr}
    9fe4:	e24dd03c 	sub	sp, sp, #60	; 0x3c
    9fe8:	e5933000 	ldr	r3, [r3]
    9fec:	e1a04000 	mov	r4, r0
    9ff0:	e1a05001 	mov	r5, r1
    9ff4:	e28d1004 	add	r1, sp, #4
    9ff8:	e59300b4 	ldr	r0, [r3, #180]	; 0xb4
    9ffc:	eb000007 	bl	a020 <romfs_stat>
    a000:	e30d1730 	movw	r1, #55088	; 0xd730
    a004:	e1a02005 	mov	r2, r5
    a008:	e3401000 	movt	r1, #0
    a00c:	e1a00004 	mov	r0, r4
    a010:	eb000af1 	bl	cbdc <strncpy>
    a014:	e1a00004 	mov	r0, r4
    a018:	e28dd03c 	add	sp, sp, #60	; 0x3c
    a01c:	e8bd8030 	pop	{r4, r5, pc}

0000a020 <romfs_stat>:
    a020:	e92d4070 	push	{r4, r5, r6, lr}
    a024:	e1a06000 	mov	r6, r0
    a028:	e24dd008 	sub	sp, sp, #8
    a02c:	e1a05001 	mov	r5, r1
    a030:	e3a02034 	mov	r2, #52	; 0x34
    a034:	e3a01000 	mov	r1, #0
    a038:	e1a00005 	mov	r0, r5
    a03c:	eb000968 	bl	c5e4 <memset>
    a040:	e5856004 	str	r6, [r5, #4]
    a044:	e30031b6 	movw	r3, #438	; 0x1b6
    a048:	e5853008 	str	r3, [r5, #8]
    a04c:	e28d2004 	add	r2, sp, #4
    a050:	e3a01004 	mov	r1, #4
    a054:	e1a00006 	mov	r0, r6
    a058:	eb000163 	bl	a5ec <ramdisk_read>
    a05c:	e59d4004 	ldr	r4, [sp, #4]
    a060:	e3a01004 	mov	r1, #4
    a064:	e6bf4f34 	rev	r4, r4
    a068:	e0860001 	add	r0, r6, r1
    a06c:	e3140008 	tst	r4, #8
    a070:	e2044007 	and	r4, r4, #7
    a074:	e28d2004 	add	r2, sp, #4
    a078:	15953008 	ldrne	r3, [r5, #8]
    a07c:	e2444001 	sub	r4, r4, #1
    a080:	13833049 	orrne	r3, r3, #73	; 0x49
    a084:	15853008 	strne	r3, [r5, #8]
    a088:	eb000157 	bl	a5ec <ramdisk_read>
    a08c:	e59d3004 	ldr	r3, [sp, #4]
    a090:	e6bf3f33 	rev	r3, r3
    a094:	e3540006 	cmp	r4, #6
    a098:	979ff104 	ldrls	pc, [pc, r4, lsl #2]
    a09c:	ea00002d 	b	a158 <romfs_stat+0x138>
    a0a0:	0000a148 	andeq	sl, r0, r8, asr #2
    a0a4:	0000a138 	andeq	sl, r0, r8, lsr r1
    a0a8:	0000a128 	andeq	sl, r0, r8, lsr #2
    a0ac:	0000a114 	andeq	sl, r0, r4, lsl r1
    a0b0:	0000a100 	andeq	sl, r0, r0, lsl #2
    a0b4:	0000a0f0 	strdeq	sl, [r0], -r0
    a0b8:	0000a0bc 	strheq	sl, [r0], -ip
    a0bc:	e5953008 	ldr	r3, [r5, #8]
    a0c0:	e3833a01 	orr	r3, r3, #4096	; 0x1000
    a0c4:	e5853008 	str	r3, [r5, #8]
    a0c8:	e28d2004 	add	r2, sp, #4
    a0cc:	e3a01004 	mov	r1, #4
    a0d0:	e2860008 	add	r0, r6, #8
    a0d4:	eb000144 	bl	a5ec <ramdisk_read>
    a0d8:	e59d3004 	ldr	r3, [sp, #4]
    a0dc:	e3a00000 	mov	r0, #0
    a0e0:	e6bf3f33 	rev	r3, r3
    a0e4:	e585301c 	str	r3, [r5, #28]
    a0e8:	e28dd008 	add	sp, sp, #8
    a0ec:	e8bd8070 	pop	{r4, r5, r6, pc}
    a0f0:	e5953008 	ldr	r3, [r5, #8]
    a0f4:	e3833903 	orr	r3, r3, #49152	; 0xc000
    a0f8:	e5853008 	str	r3, [r5, #8]
    a0fc:	eafffff1 	b	a0c8 <romfs_stat+0xa8>
    a100:	e5952008 	ldr	r2, [r5, #8]
    a104:	e5853018 	str	r3, [r5, #24]
    a108:	e3823a02 	orr	r3, r2, #8192	; 0x2000
    a10c:	e5853008 	str	r3, [r5, #8]
    a110:	eaffffec 	b	a0c8 <romfs_stat+0xa8>
    a114:	e5952008 	ldr	r2, [r5, #8]
    a118:	e5853018 	str	r3, [r5, #24]
    a11c:	e3823a06 	orr	r3, r2, #24576	; 0x6000
    a120:	e5853008 	str	r3, [r5, #8]
    a124:	eaffffe7 	b	a0c8 <romfs_stat+0xa8>
    a128:	e5953008 	ldr	r3, [r5, #8]
    a12c:	e3833a0a 	orr	r3, r3, #40960	; 0xa000
    a130:	e5853008 	str	r3, [r5, #8]
    a134:	eaffffe3 	b	a0c8 <romfs_stat+0xa8>
    a138:	e5953008 	ldr	r3, [r5, #8]
    a13c:	e3833902 	orr	r3, r3, #32768	; 0x8000
    a140:	e5853008 	str	r3, [r5, #8]
    a144:	eaffffdf 	b	a0c8 <romfs_stat+0xa8>
    a148:	e5953008 	ldr	r3, [r5, #8]
    a14c:	e3833901 	orr	r3, r3, #16384	; 0x4000
    a150:	e5853008 	str	r3, [r5, #8]
    a154:	eaffffdb 	b	a0c8 <romfs_stat+0xa8>
    a158:	e1a06003 	mov	r6, r3
    a15c:	eaffffb3 	b	a030 <romfs_stat+0x10>

0000a160 <romfs_get_inode>:
    a160:	e92d43f0 	push	{r4, r5, r6, r7, r8, r9, lr}
    a164:	e24ddf47 	sub	sp, sp, #284	; 0x11c
    a168:	e28d2004 	add	r2, sp, #4
    a16c:	e1a05000 	mov	r5, r0
    a170:	e1a08001 	mov	r8, r1
    a174:	e3a01004 	mov	r1, #4
    a178:	eb00011b 	bl	a5ec <ramdisk_read>
    a17c:	e59d4004 	ldr	r4, [sp, #4]
    a180:	e28d2004 	add	r2, sp, #4
    a184:	e2850004 	add	r0, r5, #4
    a188:	e3a01004 	mov	r1, #4
    a18c:	e6bf4f34 	rev	r4, r4
    a190:	e2044007 	and	r4, r4, #7
    a194:	eb000114 	bl	a5ec <ramdisk_read>
    a198:	e59d7004 	ldr	r7, [sp, #4]
    a19c:	e3540001 	cmp	r4, #1
    a1a0:	e6bf7f37 	rev	r7, r7
    a1a4:	1a000037 	bne	a288 <romfs_get_inode+0x128>
    a1a8:	e3a09000 	mov	r9, #0
    a1ac:	e28d2004 	add	r2, sp, #4
    a1b0:	e3a01004 	mov	r1, #4
    a1b4:	e1a00007 	mov	r0, r7
    a1b8:	e3a04c01 	mov	r4, #256	; 0x100
    a1bc:	e2875e11 	add	r5, r7, #272	; 0x110
    a1c0:	eb000109 	bl	a5ec <ramdisk_read>
    a1c4:	e59d3004 	ldr	r3, [sp, #4]
    a1c8:	e6bf3f33 	rev	r3, r3
    a1cc:	e3c3600f 	bic	r6, r3, #15
    a1d0:	e5cd9018 	strb	r9, [sp, #24]
    a1d4:	e0450004 	sub	r0, r5, r4
    a1d8:	e3a01010 	mov	r1, #16
    a1dc:	e28d2008 	add	r2, sp, #8
    a1e0:	eb000101 	bl	a5ec <ramdisk_read>
    a1e4:	e3540000 	cmp	r4, #0
    a1e8:	e28d1008 	add	r1, sp, #8
    a1ec:	e28d0018 	add	r0, sp, #24
    a1f0:	da000003 	ble	a204 <romfs_get_inode+0xa4>
    a1f4:	e3540010 	cmp	r4, #16
    a1f8:	b1a02004 	movlt	r2, r4
    a1fc:	a3a02010 	movge	r2, #16
    a200:	eb000aa5 	bl	cc9c <strncat>
    a204:	e5dd3017 	ldrb	r3, [sp, #23]
    a208:	e2444010 	sub	r4, r4, #16
    a20c:	e3530000 	cmp	r3, #0
    a210:	1affffef 	bne	a1d4 <romfs_get_inode+0x74>
    a214:	e3a02c01 	mov	r2, #256	; 0x100
    a218:	e28d1018 	add	r1, sp, #24
    a21c:	e1a00008 	mov	r0, r8
    a220:	eb000a4a 	bl	cb50 <strncmp>
    a224:	e3500000 	cmp	r0, #0
    a228:	0a000005 	beq	a244 <romfs_get_inode+0xe4>
    a22c:	e3560000 	cmp	r6, #0
    a230:	e1a07006 	mov	r7, r6
    a234:	1affffdc 	bne	a1ac <romfs_get_inode+0x4c>
    a238:	e3e00000 	mvn	r0, #0
    a23c:	e28ddf47 	add	sp, sp, #284	; 0x11c
    a240:	e8bd83f0 	pop	{r4, r5, r6, r7, r8, r9, pc}
    a244:	e28d2008 	add	r2, sp, #8
    a248:	e3a01004 	mov	r1, #4
    a24c:	e1a00007 	mov	r0, r7
    a250:	eb0000e5 	bl	a5ec <ramdisk_read>
    a254:	e59d4008 	ldr	r4, [sp, #8]
    a258:	e2870004 	add	r0, r7, #4
    a25c:	e28d2008 	add	r2, sp, #8
    a260:	e3a01004 	mov	r1, #4
    a264:	eb0000e0 	bl	a5ec <ramdisk_read>
    a268:	e6bf4f34 	rev	r4, r4
    a26c:	e59d3008 	ldr	r3, [sp, #8]
    a270:	e3140007 	tst	r4, #7
    a274:	e1a00007 	mov	r0, r7
    a278:	e6bf3f33 	rev	r3, r3
    a27c:	e1a07003 	mov	r7, r3
    a280:	0affffef 	beq	a244 <romfs_get_inode+0xe4>
    a284:	eaffffec 	b	a23c <romfs_get_inode+0xdc>
    a288:	e3e00013 	mvn	r0, #19
    a28c:	eaffffea 	b	a23c <romfs_get_inode+0xdc>

0000a290 <romfs_mount>:
    a290:	e92d4030 	push	{r4, r5, lr}
    a294:	e24dd044 	sub	sp, sp, #68	; 0x44
    a298:	e3a01008 	mov	r1, #8
    a29c:	e28d2018 	add	r2, sp, #24
    a2a0:	e3a00000 	mov	r0, #0
    a2a4:	eb0000d0 	bl	a5ec <ramdisk_read>
    a2a8:	e30d1738 	movw	r1, #55096	; 0xd738
    a2ac:	e3a02008 	mov	r2, #8
    a2b0:	e3401000 	movt	r1, #0
    a2b4:	e28d0018 	add	r0, sp, #24
    a2b8:	eb000a35 	bl	cb94 <memcmp>
    a2bc:	e2505000 	subs	r5, r0, #0
    a2c0:	1a000022 	bne	a350 <romfs_mount+0xc0>
    a2c4:	e3a01004 	mov	r1, #4
    a2c8:	e3a00008 	mov	r0, #8
    a2cc:	e08d2001 	add	r2, sp, r1
    a2d0:	e3a04010 	mov	r4, #16
    a2d4:	eb0000c4 	bl	a5ec <ramdisk_read>
    a2d8:	e59d3004 	ldr	r3, [sp, #4]
    a2dc:	e28d2004 	add	r2, sp, #4
    a2e0:	e3a01004 	mov	r1, #4
    a2e4:	e3a0000c 	mov	r0, #12
    a2e8:	e6bf3f33 	rev	r3, r3
    a2ec:	e58d3020 	str	r3, [sp, #32]
    a2f0:	eb0000bd 	bl	a5ec <ramdisk_read>
    a2f4:	e5cd5028 	strb	r5, [sp, #40]	; 0x28
    a2f8:	e1a05004 	mov	r5, r4
    a2fc:	e59d3004 	ldr	r3, [sp, #4]
    a300:	e6bf3f33 	rev	r3, r3
    a304:	e58d3024 	str	r3, [sp, #36]	; 0x24
    a308:	e3a01010 	mov	r1, #16
    a30c:	e28d2008 	add	r2, sp, #8
    a310:	e1a00005 	mov	r0, r5
    a314:	e0855001 	add	r5, r5, r1
    a318:	eb0000b3 	bl	a5ec <ramdisk_read>
    a31c:	e3540000 	cmp	r4, #0
    a320:	e1a02004 	mov	r2, r4
    a324:	e28d1008 	add	r1, sp, #8
    a328:	e28d0028 	add	r0, sp, #40	; 0x28
    a32c:	da000000 	ble	a334 <romfs_mount+0xa4>
    a330:	eb000a59 	bl	cc9c <strncat>
    a334:	e5dd3017 	ldrb	r3, [sp, #23]
    a338:	e2444010 	sub	r4, r4, #16
    a33c:	e3530000 	cmp	r3, #0
    a340:	1afffff0 	bne	a308 <romfs_mount+0x78>
    a344:	e1a00005 	mov	r0, r5
    a348:	e28dd044 	add	sp, sp, #68	; 0x44
    a34c:	e8bd8030 	pop	{r4, r5, pc}
    a350:	e30d0744 	movw	r0, #55108	; 0xd744
    a354:	e3e05000 	mvn	r5, #0
    a358:	e3400000 	movt	r0, #0
    a35c:	eb0009cb 	bl	ca90 <printk>
    a360:	eafffff7 	b	a344 <romfs_mount+0xb4>

0000a364 <romfs_statfs>:
    a364:	e3a00000 	mov	r0, #0
    a368:	e12fff1e 	bx	lr

0000a36c <romfs_read_file>:
    a36c:	e92d43f0 	push	{r4, r5, r6, r7, r8, r9, lr}
    a370:	e24dd01c 	sub	sp, sp, #28
    a374:	e1a05000 	mov	r5, r0
    a378:	e1a08002 	mov	r8, r2
    a37c:	e1a07001 	mov	r7, r1
    a380:	e28d2004 	add	r2, sp, #4
    a384:	e3a01004 	mov	r1, #4
    a388:	e2800008 	add	r0, r0, #8
    a38c:	e1a06003 	mov	r6, r3
    a390:	e2855010 	add	r5, r5, #16
    a394:	e3a04000 	mov	r4, #0
    a398:	eb000093 	bl	a5ec <ramdisk_read>
    a39c:	e59d9004 	ldr	r9, [sp, #4]
    a3a0:	e6bf9f39 	rev	r9, r9
    a3a4:	ea000000 	b	a3ac <romfs_read_file+0x40>
    a3a8:	e2844010 	add	r4, r4, #16
    a3ac:	e0850004 	add	r0, r5, r4
    a3b0:	e28d2008 	add	r2, sp, #8
    a3b4:	e3a01010 	mov	r1, #16
    a3b8:	eb00008b 	bl	a5ec <ramdisk_read>
    a3bc:	e5dd0017 	ldrb	r0, [sp, #23]
    a3c0:	e3500000 	cmp	r0, #0
    a3c4:	1afffff7 	bne	a3a8 <romfs_read_file+0x3c>
    a3c8:	e0491007 	sub	r1, r9, r7
    a3cc:	e2840010 	add	r0, r4, #16
    a3d0:	e1510006 	cmp	r1, r6
    a3d4:	e1a02008 	mov	r2, r8
    a3d8:	e0800005 	add	r0, r0, r5
    a3dc:	21a01006 	movcs	r1, r6
    a3e0:	e0800007 	add	r0, r0, r7
    a3e4:	eb000080 	bl	a5ec <ramdisk_read>
    a3e8:	e28dd01c 	add	sp, sp, #28
    a3ec:	e8bd83f0 	pop	{r4, r5, r6, r7, r8, r9, pc}

0000a3f0 <romfs_getdents>:
    a3f0:	e92d4ff0 	push	{r4, r5, r6, r7, r8, r9, sl, fp, lr}
    a3f4:	e24dd02c 	sub	sp, sp, #44	; 0x2c
    a3f8:	e5919000 	ldr	r9, [r1]
    a3fc:	e58d100c 	str	r1, [sp, #12]
    a400:	e58d3004 	str	r3, [sp, #4]
    a404:	e3790001 	cmn	r9, #1
    a408:	03a0b000 	moveq	fp, #0
    a40c:	0a000049 	beq	a538 <romfs_getdents+0x148>
    a410:	e3590000 	cmp	r9, #0
    a414:	e1a08002 	mov	r8, r2
    a418:	0a000049 	beq	a544 <romfs_getdents+0x154>
    a41c:	e28d3014 	add	r3, sp, #20
    a420:	e58d3008 	str	r3, [sp, #8]
    a424:	e3a0b000 	mov	fp, #0
    a428:	e59d2008 	ldr	r2, [sp, #8]
    a42c:	e3a01004 	mov	r1, #4
    a430:	e1a00009 	mov	r0, r9
    a434:	e3a06000 	mov	r6, #0
    a438:	e2894010 	add	r4, r9, #16
    a43c:	eb00006a 	bl	a5ec <ramdisk_read>
    a440:	e59d7014 	ldr	r7, [sp, #20]
    a444:	e6bf7f37 	rev	r7, r7
    a448:	e3c7700f 	bic	r7, r7, #15
    a44c:	ea000000 	b	a454 <romfs_getdents+0x64>
    a450:	e2866010 	add	r6, r6, #16
    a454:	e0860004 	add	r0, r6, r4
    a458:	e28d2018 	add	r2, sp, #24
    a45c:	e3a01010 	mov	r1, #16
    a460:	eb000061 	bl	a5ec <ramdisk_read>
    a464:	e5dd3027 	ldrb	r3, [sp, #39]	; 0x27
    a468:	e3530000 	cmp	r3, #0
    a46c:	1afffff7 	bne	a450 <romfs_getdents+0x60>
    a470:	e28d0018 	add	r0, sp, #24
    a474:	eb000a2f 	bl	cd38 <strlen>
    a478:	e0806006 	add	r6, r0, r6
    a47c:	e286500d 	add	r5, r6, #13
    a480:	e2153003 	ands	r3, r5, #3
    a484:	0a000004 	beq	a49c <romfs_getdents+0xac>
    a488:	e2752000 	rsbs	r2, r5, #0
    a48c:	e2022003 	and	r2, r2, #3
    a490:	52623000 	rsbpl	r3, r2, #0
    a494:	e2633004 	rsb	r3, r3, #4
    a498:	e0855003 	add	r5, r5, r3
    a49c:	e59d3004 	ldr	r3, [sp, #4]
    a4a0:	e085a00b 	add	sl, r5, fp
    a4a4:	e15a0003 	cmp	sl, r3
    a4a8:	8a000020 	bhi	a530 <romfs_getdents+0x140>
    a4ac:	e3590000 	cmp	r9, #0
    a4b0:	0a00001d 	beq	a52c <romfs_getdents+0x13c>
    a4b4:	e5889000 	str	r9, [r8]
    a4b8:	e1a0b006 	mov	fp, r6
    a4bc:	e0864004 	add	r4, r6, r4
    a4c0:	e288900c 	add	r9, r8, #12
    a4c4:	e5885004 	str	r5, [r8, #4]
    a4c8:	e3a03000 	mov	r3, #0
    a4cc:	e5885008 	str	r5, [r8, #8]
    a4d0:	e5c8300c 	strb	r3, [r8, #12]
    a4d4:	e044000b 	sub	r0, r4, fp
    a4d8:	e3a01010 	mov	r1, #16
    a4dc:	e28d2018 	add	r2, sp, #24
    a4e0:	eb000041 	bl	a5ec <ramdisk_read>
    a4e4:	e35b0000 	cmp	fp, #0
    a4e8:	e28d1018 	add	r1, sp, #24
    a4ec:	e1a00009 	mov	r0, r9
    a4f0:	da000003 	ble	a504 <romfs_getdents+0x114>
    a4f4:	e35b0010 	cmp	fp, #16
    a4f8:	b1a0200b 	movlt	r2, fp
    a4fc:	a3a02010 	movge	r2, #16
    a500:	eb0009e5 	bl	cc9c <strncat>
    a504:	e5dd3027 	ldrb	r3, [sp, #39]	; 0x27
    a508:	e24bb010 	sub	fp, fp, #16
    a50c:	e3530000 	cmp	r3, #0
    a510:	1affffef 	bne	a4d4 <romfs_getdents+0xe4>
    a514:	e0886006 	add	r6, r8, r6
    a518:	e1a09007 	mov	r9, r7
    a51c:	e0888005 	add	r8, r8, r5
    a520:	e1a0b00a 	mov	fp, sl
    a524:	e5c6300c 	strb	r3, [r6, #12]
    a528:	eaffffbe 	b	a428 <romfs_getdents+0x38>
    a52c:	e3e09000 	mvn	r9, #0
    a530:	e59d300c 	ldr	r3, [sp, #12]
    a534:	e5839000 	str	r9, [r3]
    a538:	e1a0000b 	mov	r0, fp
    a53c:	e28dd02c 	add	sp, sp, #44	; 0x2c
    a540:	e8bd8ff0 	pop	{r4, r5, r6, r7, r8, r9, sl, fp, pc}
    a544:	e28d3014 	add	r3, sp, #20
    a548:	e3a01004 	mov	r1, #4
    a54c:	e58d3008 	str	r3, [sp, #8]
    a550:	e1a02003 	mov	r2, r3
    a554:	e1a04000 	mov	r4, r0
    a558:	eb000023 	bl	a5ec <ramdisk_read>
    a55c:	e59d2014 	ldr	r2, [sp, #20]
    a560:	e1a03002 	mov	r3, r2
    a564:	e6bf3f33 	rev	r3, r3
    a568:	e2033007 	and	r3, r3, #7
    a56c:	e3530001 	cmp	r3, #1
    a570:	1a000006 	bne	a590 <romfs_getdents+0x1a0>
    a574:	e59d2008 	ldr	r2, [sp, #8]
    a578:	e2840004 	add	r0, r4, #4
    a57c:	e3a01004 	mov	r1, #4
    a580:	eb000019 	bl	a5ec <ramdisk_read>
    a584:	e59d9014 	ldr	r9, [sp, #20]
    a588:	e6bf9f39 	rev	r9, r9
    a58c:	eaffffa4 	b	a424 <romfs_getdents+0x34>
    a590:	e30d075c 	movw	r0, #55132	; 0xd75c
    a594:	e1a01004 	mov	r1, r4
    a598:	e3400000 	movt	r0, #0
    a59c:	e3e0b013 	mvn	fp, #19
    a5a0:	eb00093a 	bl	ca90 <printk>
    a5a4:	eaffffe3 	b	a538 <romfs_getdents+0x148>

0000a5a8 <drivers_init_all>:
    a5a8:	e92d4010 	push	{r4, lr}
    a5ac:	eb00007e 	bl	a7ac <led_init>
    a5b0:	eb000111 	bl	a9fc <timer_init>
    a5b4:	e8bd4010 	pop	{r4, lr}
    a5b8:	ea00010b 	b	a9ec <serial_enable_interrupts>

0000a5bc <bcm2835_write>:
    a5bc:	e3083408 	movw	r3, #33800	; 0x8408
    a5c0:	e3403002 	movt	r3, #2
    a5c4:	e5933000 	ldr	r3, [r3]
    a5c8:	e0800003 	add	r0, r0, r3
    a5cc:	e5801000 	str	r1, [r0]
    a5d0:	e12fff1e 	bx	lr

0000a5d4 <bcm2835_read>:
    a5d4:	e3083408 	movw	r3, #33800	; 0x8408
    a5d8:	e3403002 	movt	r3, #2
    a5dc:	e5933000 	ldr	r3, [r3]
    a5e0:	e0800003 	add	r0, r0, r3
    a5e4:	e5900000 	ldr	r0, [r0]
    a5e8:	e12fff1e 	bx	lr

0000a5ec <ramdisk_read>:
    a5ec:	e308c604 	movw	ip, #34308	; 0x8604
    a5f0:	e340c002 	movt	ip, #2
    a5f4:	e92d4010 	push	{r4, lr}
    a5f8:	e1a04001 	mov	r4, r1
    a5fc:	e59ce004 	ldr	lr, [ip, #4]
    a600:	e0801001 	add	r1, r0, r1
    a604:	e151000e 	cmp	r1, lr
    a608:	8a000007 	bhi	a62c <ramdisk_read+0x40>
    a60c:	e59c1000 	ldr	r1, [ip]
    a610:	e1a03000 	mov	r3, r0
    a614:	e1a00002 	mov	r0, r2
    a618:	e1a02004 	mov	r2, r4
    a61c:	e0811003 	add	r1, r1, r3
    a620:	eb0007a2 	bl	c4b0 <memcpy>
    a624:	e1a00004 	mov	r0, r4
    a628:	e8bd8010 	pop	{r4, pc}
    a62c:	e30d0794 	movw	r0, #55188	; 0xd794
    a630:	e1a0200e 	mov	r2, lr
    a634:	e3400000 	movt	r0, #0
    a638:	eb000914 	bl	ca90 <printk>
    a63c:	e3e00021 	mvn	r0, #33	; 0x21
    a640:	e8bd8010 	pop	{r4, pc}

0000a644 <ramdisk_init>:
    a644:	e92d4070 	push	{r4, r5, r6, lr}
    a648:	e1a04000 	mov	r4, r0
    a64c:	e30d07bc 	movw	r0, #55228	; 0xd7bc
    a650:	e1a02004 	mov	r2, r4
    a654:	e3400000 	movt	r0, #0
    a658:	e1a05001 	mov	r5, r1
    a65c:	eb00090b 	bl	ca90 <printk>
    a660:	e3083604 	movw	r3, #34308	; 0x8604
    a664:	e3a00000 	mov	r0, #0
    a668:	e3403002 	movt	r3, #2
    a66c:	e1c340f0 	strd	r4, [r3]
    a670:	e8bd8070 	pop	{r4, r5, r6, pc}

0000a674 <console_insert_char>:
    a674:	e3083610 	movw	r3, #34320	; 0x8610
    a678:	e3403002 	movt	r3, #2
    a67c:	e8931002 	ldm	r3, {r1, ip}
    a680:	e2812001 	add	r2, r1, #1
    a684:	e3520c01 	cmp	r2, #256	; 0x100
    a688:	23a02000 	movcs	r2, #0
    a68c:	e15c0002 	cmp	ip, r2
    a690:	0a000017 	beq	a6f4 <console_insert_char+0x80>
    a694:	e0831001 	add	r1, r3, r1
    a698:	e3500002 	cmp	r0, #2
    a69c:	e92d4010 	push	{r4, lr}
    a6a0:	e5832000 	str	r2, [r3]
    a6a4:	e5c10008 	strb	r0, [r1, #8]
    a6a8:	0a00000c 	beq	a6e0 <console_insert_char+0x6c>
    a6ac:	e350001a 	cmp	r0, #26
    a6b0:	0a000003 	beq	a6c4 <console_insert_char+0x50>
    a6b4:	e59f0040 	ldr	r0, [pc, #64]	; a6fc <console_insert_char+0x88>
    a6b8:	eb0006d6 	bl	c218 <wait_queue_wake>
    a6bc:	e3a00000 	mov	r0, #0
    a6c0:	e8bd8010 	pop	{r4, pc}
    a6c4:	e3052410 	movw	r2, #21520	; 0x5410
    a6c8:	e3402002 	movt	r2, #2
    a6cc:	e5923000 	ldr	r3, [r2]
    a6d0:	e16f3f13 	clz	r3, r3
    a6d4:	e1a032a3 	lsr	r3, r3, #5
    a6d8:	e5823000 	str	r3, [r2]
    a6dc:	eafffff4 	b	a6b4 <console_insert_char+0x40>
    a6e0:	e3083008 	movw	r3, #32776	; 0x8008
    a6e4:	e3403003 	movt	r3, #3
    a6e8:	e5930000 	ldr	r0, [r3]
    a6ec:	eb0006d9 	bl	c258 <dump_saved_user_state>
    a6f0:	eaffffef 	b	a6b4 <console_insert_char+0x40>
    a6f4:	e3e00000 	mvn	r0, #0
    a6f8:	e12fff1e 	bx	lr
    a6fc:	00028718 	andeq	r8, r2, r8, lsl r7

0000a700 <console_write>:
    a700:	ea00009b 	b	a974 <serial_write>

0000a704 <console_read>:
    a704:	e92d41f0 	push	{r4, r5, r6, r7, r8, lr}
    a708:	e3084610 	movw	r4, #34320	; 0x8610
    a70c:	e3404002 	movt	r4, #2
    a710:	e1a05000 	mov	r5, r0
    a714:	e1a06001 	mov	r6, r1
    a718:	e594c000 	ldr	ip, [r4]
    a71c:	e5943004 	ldr	r3, [r4, #4]
    a720:	e15c0003 	cmp	ip, r3
    a724:	1a000009 	bne	a750 <console_read+0x4c>
    a728:	e3087008 	movw	r7, #32776	; 0x8008
    a72c:	e2848f42 	add	r8, r4, #264	; 0x108
    a730:	e3407003 	movt	r7, #3
    a734:	e5971000 	ldr	r1, [r7]
    a738:	e1a00008 	mov	r0, r8
    a73c:	eb0006a2 	bl	c1cc <wait_queue_add>
    a740:	e594c000 	ldr	ip, [r4]
    a744:	e5943004 	ldr	r3, [r4, #4]
    a748:	e15c0003 	cmp	ip, r3
    a74c:	0afffff8 	beq	a734 <console_read+0x30>
    a750:	e3560000 	cmp	r6, #0
    a754:	0a000012 	beq	a7a4 <console_read+0xa0>
    a758:	e5943004 	ldr	r3, [r4, #4]
    a75c:	e2460001 	sub	r0, r6, #1
    a760:	e0850000 	add	r0, r5, r0
    a764:	e2452001 	sub	r2, r5, #1
    a768:	e3a05000 	mov	r5, #0
    a76c:	e153000c 	cmp	r3, ip
    a770:	e0841003 	add	r1, r4, r3
    a774:	03a0e000 	moveq	lr, #0
    a778:	0a000004 	beq	a790 <console_read+0x8c>
    a77c:	e5d1e008 	ldrb	lr, [r1, #8]
    a780:	e2833001 	add	r3, r3, #1
    a784:	e35300ff 	cmp	r3, #255	; 0xff
    a788:	e3a05001 	mov	r5, #1
    a78c:	83a03000 	movhi	r3, #0
    a790:	e5e2e001 	strb	lr, [r2, #1]!
    a794:	e1500002 	cmp	r0, r2
    a798:	1afffff3 	bne	a76c <console_read+0x68>
    a79c:	e3550000 	cmp	r5, #0
    a7a0:	15843004 	strne	r3, [r4, #4]
    a7a4:	e1a00006 	mov	r0, r6
    a7a8:	e8bd81f0 	pop	{r4, r5, r6, r7, r8, pc}

0000a7ac <led_init>:
    a7ac:	e92d4010 	push	{r4, lr}
    a7b0:	e3084724 	movw	r4, #34596	; 0x8724
    a7b4:	e3404002 	movt	r4, #2
    a7b8:	e3a03001 	mov	r3, #1
    a7bc:	e5843000 	str	r3, [r4]
    a7c0:	ebfff7dd 	bl	873c <hardware_get_type>
    a7c4:	e3500002 	cmp	r0, #2
    a7c8:	1a00000f 	bne	a80c <led_init+0x60>
    a7cc:	e3054404 	movw	r4, #21508	; 0x5404
    a7d0:	e3a00010 	mov	r0, #16
    a7d4:	e3404002 	movt	r4, #2
    a7d8:	e3a03001 	mov	r3, #1
    a7dc:	e8840009 	stm	r4, {r0, r3}
    a7e0:	e30d1818 	movw	r1, #55320	; 0xd818
    a7e4:	e3401000 	movt	r1, #0
    a7e8:	eb0000cc 	bl	ab20 <gpio_request>
    a7ec:	e5940000 	ldr	r0, [r4]
    a7f0:	eb00012b 	bl	aca4 <gpio_direction_output>
    a7f4:	e5941000 	ldr	r1, [r4]
    a7f8:	e30d0820 	movw	r0, #55328	; 0xd820
    a7fc:	e3400000 	movt	r0, #0
    a800:	eb0008a2 	bl	ca90 <printk>
    a804:	e3a00000 	mov	r0, #0
    a808:	e8bd8010 	pop	{r4, pc}
    a80c:	ebfff7ca 	bl	873c <hardware_get_type>
    a810:	e3500001 	cmp	r0, #1
    a814:	0affffec 	beq	a7cc <led_init+0x20>
    a818:	ebfff7c7 	bl	873c <hardware_get_type>
    a81c:	e3500004 	cmp	r0, #4
    a820:	1a000005 	bne	a83c <led_init+0x90>
    a824:	e3054404 	movw	r4, #21508	; 0x5404
    a828:	e3a0002f 	mov	r0, #47	; 0x2f
    a82c:	e3404002 	movt	r4, #2
    a830:	e3a03000 	mov	r3, #0
    a834:	e8840009 	stm	r4, {r0, r3}
    a838:	eaffffe8 	b	a7e0 <led_init+0x34>
    a83c:	ebfff7be 	bl	873c <hardware_get_type>
    a840:	e3500003 	cmp	r0, #3
    a844:	0afffff6 	beq	a824 <led_init+0x78>
    a848:	ebfff7bb 	bl	873c <hardware_get_type>
    a84c:	e3500007 	cmp	r0, #7
    a850:	0afffff3 	beq	a824 <led_init+0x78>
    a854:	ebfff7b8 	bl	873c <hardware_get_type>
    a858:	e3500009 	cmp	r0, #9
    a85c:	1a000005 	bne	a878 <led_init+0xcc>
    a860:	e3054404 	movw	r4, #21508	; 0x5404
    a864:	e3a00012 	mov	r0, #18
    a868:	e3404002 	movt	r4, #2
    a86c:	e3a03000 	mov	r3, #0
    a870:	e8840009 	stm	r4, {r0, r3}
    a874:	eaffffd9 	b	a7e0 <led_init+0x34>
    a878:	e30d07ec 	movw	r0, #55276	; 0xd7ec
    a87c:	e3400000 	movt	r0, #0
    a880:	eb000882 	bl	ca90 <printk>
    a884:	e3a03000 	mov	r3, #0
    a888:	e3a00013 	mov	r0, #19
    a88c:	e5843000 	str	r3, [r4]
    a890:	e8bd8010 	pop	{r4, pc}

0000a894 <led_on>:
    a894:	e3083724 	movw	r3, #34596	; 0x8724
    a898:	e3403002 	movt	r3, #2
    a89c:	e5933000 	ldr	r3, [r3]
    a8a0:	e3530000 	cmp	r3, #0
    a8a4:	0a000009 	beq	a8d0 <led_on+0x3c>
    a8a8:	e3053404 	movw	r3, #21508	; 0x5404
    a8ac:	e3403002 	movt	r3, #2
    a8b0:	e92d4010 	push	{r4, lr}
    a8b4:	e8930005 	ldm	r3, {r0, r2}
    a8b8:	e3520000 	cmp	r2, #0
    a8bc:	13a01000 	movne	r1, #0
    a8c0:	03a01001 	moveq	r1, #1
    a8c4:	eb00012f 	bl	ad88 <gpio_set_value>
    a8c8:	e3a00000 	mov	r0, #0
    a8cc:	e8bd8010 	pop	{r4, pc}
    a8d0:	e3a00000 	mov	r0, #0
    a8d4:	e12fff1e 	bx	lr

0000a8d8 <led_off>:
    a8d8:	e3083724 	movw	r3, #34596	; 0x8724
    a8dc:	e3403002 	movt	r3, #2
    a8e0:	e5933000 	ldr	r3, [r3]
    a8e4:	e3530000 	cmp	r3, #0
    a8e8:	0a000008 	beq	a910 <led_off+0x38>
    a8ec:	e3053404 	movw	r3, #21508	; 0x5404
    a8f0:	e3403002 	movt	r3, #2
    a8f4:	e92d4010 	push	{r4, lr}
    a8f8:	e1c300d0 	ldrd	r0, [r3]
    a8fc:	e3510000 	cmp	r1, #0
    a900:	13a01001 	movne	r1, #1
    a904:	eb00011f 	bl	ad88 <gpio_set_value>
    a908:	e3a00000 	mov	r0, #0
    a90c:	e8bd8010 	pop	{r4, pc}
    a910:	e3a00000 	mov	r0, #0
    a914:	e12fff1e 	bx	lr

0000a918 <serial_init>:
    a918:	e3500001 	cmp	r0, #1
    a91c:	e92d4010 	push	{r4, lr}
    a920:	0a000007 	beq	a944 <serial_init+0x2c>
    a924:	e3500002 	cmp	r0, #2
    a928:	0a00000d 	beq	a964 <serial_init+0x4c>
    a92c:	e3a02001 	mov	r2, #1
    a930:	e3a00000 	mov	r0, #0
    a934:	e3083728 	movw	r3, #34600	; 0x8728
    a938:	e3403002 	movt	r3, #2
    a93c:	e5832000 	str	r2, [r3]
    a940:	e8bd8010 	pop	{r4, pc}
    a944:	e3080728 	movw	r0, #34600	; 0x8728
    a948:	e3400002 	movt	r0, #2
    a94c:	eb0001c2 	bl	b05c <pl011_uart_init>
    a950:	e3500000 	cmp	r0, #0
    a954:	0afffff4 	beq	a92c <serial_init+0x14>
    a958:	e3a02000 	mov	r2, #0
    a95c:	e3e00012 	mvn	r0, #18
    a960:	eafffff3 	b	a934 <serial_init+0x1c>
    a964:	e3080728 	movw	r0, #34600	; 0x8728
    a968:	e3400002 	movt	r0, #2
    a96c:	eb0002ca 	bl	b49c <mini_uart_init>
    a970:	eafffff6 	b	a950 <serial_init+0x38>

0000a974 <serial_write>:
    a974:	e92d41f0 	push	{r4, r5, r6, r7, r8, lr}
    a978:	e3085728 	movw	r5, #34600	; 0x8728
    a97c:	e3405002 	movt	r5, #2
    a980:	e5953000 	ldr	r3, [r5]
    a984:	e3530000 	cmp	r3, #0
    a988:	01a07003 	moveq	r7, r3
    a98c:	0a000010 	beq	a9d4 <serial_write+0x60>
    a990:	e3510000 	cmp	r1, #0
    a994:	e1a07001 	mov	r7, r1
    a998:	0a00000d 	beq	a9d4 <serial_write+0x60>
    a99c:	e0806001 	add	r6, r0, r1
    a9a0:	e2404001 	sub	r4, r0, #1
    a9a4:	e2466001 	sub	r6, r6, #1
    a9a8:	e5f40001 	ldrb	r0, [r4, #1]!
    a9ac:	e350000a 	cmp	r0, #10
    a9b0:	1a000003 	bne	a9c4 <serial_write+0x50>
    a9b4:	e5953018 	ldr	r3, [r5, #24]
    a9b8:	e3a0000d 	mov	r0, #13
    a9bc:	e12fff33 	blx	r3
    a9c0:	e5d40000 	ldrb	r0, [r4]
    a9c4:	e5953018 	ldr	r3, [r5, #24]
    a9c8:	e12fff33 	blx	r3
    a9cc:	e1540006 	cmp	r4, r6
    a9d0:	1afffff4 	bne	a9a8 <serial_write+0x34>
    a9d4:	e1a00007 	mov	r0, r7
    a9d8:	e8bd81f0 	pop	{r4, r5, r6, r7, r8, pc}

0000a9dc <serial_interrupt_handler>:
    a9dc:	e3083728 	movw	r3, #34600	; 0x8728
    a9e0:	e3403002 	movt	r3, #2
    a9e4:	e5933024 	ldr	r3, [r3, #36]	; 0x24
    a9e8:	e12fff13 	bx	r3

0000a9ec <serial_enable_interrupts>:
    a9ec:	e3083728 	movw	r3, #34600	; 0x8728
    a9f0:	e3403002 	movt	r3, #2
    a9f4:	e5933014 	ldr	r3, [r3, #20]
    a9f8:	e12fff13 	bx	r3

0000a9fc <timer_init>:
    a9fc:	e92d4010 	push	{r4, lr}
    aa00:	e30b0408 	movw	r0, #46088	; 0xb408
    aa04:	ebfffef2 	bl	a5d4 <bcm2835_read>
    aa08:	e3c010a0 	bic	r1, r0, #160	; 0xa0
    aa0c:	e30b0408 	movw	r0, #46088	; 0xb408
    aa10:	ebfffee9 	bl	a5bc <bcm2835_write>
    aa14:	e3a010f9 	mov	r1, #249	; 0xf9
    aa18:	e30b041c 	movw	r0, #46108	; 0xb41c
    aa1c:	ebfffee6 	bl	a5bc <bcm2835_write>
    aa20:	e3a0103d 	mov	r1, #61	; 0x3d
    aa24:	e3a00b2d 	mov	r0, #46080	; 0xb400
    aa28:	ebfffee3 	bl	a5bc <bcm2835_write>
    aa2c:	e3a010aa 	mov	r1, #170	; 0xaa
    aa30:	e30b0408 	movw	r0, #46088	; 0xb408
    aa34:	ebfffee0 	bl	a5bc <bcm2835_write>
    aa38:	e30b0218 	movw	r0, #45592	; 0xb218
    aa3c:	e3a01001 	mov	r1, #1
    aa40:	ebfffedd 	bl	a5bc <bcm2835_write>
    aa44:	e3a00000 	mov	r0, #0
    aa48:	e8bd8010 	pop	{r4, pc}

0000aa4c <timer_interrupt_handler>:
    aa4c:	e92d4010 	push	{r4, lr}
    aa50:	e3084750 	movw	r4, #34640	; 0x8750
    aa54:	e3404002 	movt	r4, #2
    aa58:	e3a01001 	mov	r1, #1
    aa5c:	e30b040c 	movw	r0, #46092	; 0xb40c
    aa60:	ebfffed5 	bl	a5bc <bcm2835_write>
    aa64:	e5943000 	ldr	r3, [r4]
    aa68:	e5942004 	ldr	r2, [r4, #4]
    aa6c:	e2833001 	add	r3, r3, #1
    aa70:	e5843000 	str	r3, [r4]
    aa74:	e3520000 	cmp	r2, #0
    aa78:	11530002 	cmpne	r3, r2
    aa7c:	8a000014 	bhi	aad4 <timer_interrupt_handler+0x88>
    aa80:	e305340c 	movw	r3, #21516	; 0x540c
    aa84:	e3403002 	movt	r3, #2
    aa88:	e5933000 	ldr	r3, [r3]
    aa8c:	e3530000 	cmp	r3, #0
    aa90:	08bd8010 	popeq	{r4, pc}
    aa94:	e594300c 	ldr	r3, [r4, #12]
    aa98:	e2833001 	add	r3, r3, #1
    aa9c:	e584300c 	str	r3, [r4, #12]
    aaa0:	e3530020 	cmp	r3, #32
    aaa4:	0a000005 	beq	aac0 <timer_interrupt_handler+0x74>
    aaa8:	e3530040 	cmp	r3, #64	; 0x40
    aaac:	18bd8010 	popne	{r4, pc}
    aab0:	ebffff77 	bl	a894 <led_on>
    aab4:	e3a03000 	mov	r3, #0
    aab8:	e584300c 	str	r3, [r4, #12]
    aabc:	e8bd8010 	pop	{r4, pc}
    aac0:	ebffff84 	bl	a8d8 <led_off>
    aac4:	e594300c 	ldr	r3, [r4, #12]
    aac8:	e3530040 	cmp	r3, #64	; 0x40
    aacc:	18bd8010 	popne	{r4, pc}
    aad0:	eafffff6 	b	aab0 <timer_interrupt_handler+0x64>
    aad4:	e3a03000 	mov	r3, #0
    aad8:	e2840008 	add	r0, r4, #8
    aadc:	e5843004 	str	r3, [r4, #4]
    aae0:	eb0005cc 	bl	c218 <wait_queue_wake>
    aae4:	eaffffe5 	b	aa80 <timer_interrupt_handler+0x34>

0000aae8 <timer_sleep_until>:
    aae8:	e3083750 	movw	r3, #34640	; 0x8750
    aaec:	e3403002 	movt	r3, #2
    aaf0:	e5932004 	ldr	r2, [r3, #4]
    aaf4:	e3520000 	cmp	r2, #0
    aaf8:	0a000001 	beq	ab04 <timer_sleep_until+0x1c>
    aafc:	e1520000 	cmp	r2, r0
    ab00:	9a000000 	bls	ab08 <timer_sleep_until+0x20>
    ab04:	e5830004 	str	r0, [r3, #4]
    ab08:	e59f000c 	ldr	r0, [pc, #12]	; ab1c <timer_sleep_until+0x34>
    ab0c:	e3083008 	movw	r3, #32776	; 0x8008
    ab10:	e3403003 	movt	r3, #3
    ab14:	e5931000 	ldr	r1, [r3]
    ab18:	ea0005ab 	b	c1cc <wait_queue_add>
    ab1c:	00028758 	andeq	r8, r2, r8, asr r7

0000ab20 <gpio_request>:
    ab20:	e3500036 	cmp	r0, #54	; 0x36
    ab24:	e1a03000 	mov	r3, r0
    ab28:	e92d41f0 	push	{r4, r5, r6, r7, r8, lr}
    ab2c:	8a000017 	bhi	ab90 <gpio_request+0x70>
    ab30:	e308e760 	movw	lr, #34656	; 0x8760
    ab34:	e2607020 	rsb	r7, r0, #32
    ab38:	e340e002 	movt	lr, #2
    ab3c:	e240c020 	sub	ip, r0, #32
    ab40:	e89e0050 	ldm	lr, {r4, r6}
    ab44:	e1a00034 	lsr	r0, r4, r0
    ab48:	e1800716 	orr	r0, r0, r6, lsl r7
    ab4c:	e1800c36 	orr	r0, r0, r6, lsr ip
    ab50:	e2105001 	ands	r5, r0, #1
    ab54:	1a000013 	bne	aba8 <gpio_request+0x88>
    ab58:	e3a00001 	mov	r0, #1
    ab5c:	e1a02001 	mov	r2, r1
    ab60:	e1a01c10 	lsl	r1, r0, ip
    ab64:	e1811730 	orr	r1, r1, r0, lsr r7
    ab68:	e1844310 	orr	r4, r4, r0, lsl r3
    ab6c:	e30d086c 	movw	r0, #55404	; 0xd86c
    ab70:	e1811006 	orr	r1, r1, r6
    ab74:	e58e1004 	str	r1, [lr, #4]
    ab78:	e1a01003 	mov	r1, r3
    ab7c:	e3400000 	movt	r0, #0
    ab80:	e58e4000 	str	r4, [lr]
    ab84:	eb0007c1 	bl	ca90 <printk>
    ab88:	e1a00005 	mov	r0, r5
    ab8c:	e8bd81f0 	pop	{r4, r5, r6, r7, r8, pc}
    ab90:	e30d0844 	movw	r0, #55364	; 0xd844
    ab94:	e1a01003 	mov	r1, r3
    ab98:	e3400000 	movt	r0, #0
    ab9c:	eb0007bb 	bl	ca90 <printk>
    aba0:	e3e00000 	mvn	r0, #0
    aba4:	e8bd81f0 	pop	{r4, r5, r6, r7, r8, pc}
    aba8:	e30d0854 	movw	r0, #55380	; 0xd854
    abac:	e1a01003 	mov	r1, r3
    abb0:	e3400000 	movt	r0, #0
    abb4:	eb0007b5 	bl	ca90 <printk>
    abb8:	e3e00000 	mvn	r0, #0
    abbc:	e8bd81f0 	pop	{r4, r5, r6, r7, r8, pc}

0000abc0 <gpio_free>:
    abc0:	e3500036 	cmp	r0, #54	; 0x36
    abc4:	e1a01000 	mov	r1, r0
    abc8:	e92d4010 	push	{r4, lr}
    abcc:	8a000011 	bhi	ac18 <gpio_free+0x58>
    abd0:	e3083760 	movw	r3, #34656	; 0x8760
    abd4:	e3a0c001 	mov	ip, #1
    abd8:	e3403002 	movt	r3, #2
    abdc:	e2402020 	sub	r2, r0, #32
    abe0:	e261e020 	rsb	lr, r1, #32
    abe4:	e5930000 	ldr	r0, [r3]
    abe8:	e1a0221c 	lsl	r2, ip, r2
    abec:	e1c0011c 	bic	r0, r0, ip, lsl r1
    abf0:	e1822e3c 	orr	r2, r2, ip, lsr lr
    abf4:	e593c004 	ldr	ip, [r3, #4]
    abf8:	e5830000 	str	r0, [r3]
    abfc:	e30d0888 	movw	r0, #55432	; 0xd888
    ac00:	e1cc2002 	bic	r2, ip, r2
    ac04:	e3400000 	movt	r0, #0
    ac08:	e5832004 	str	r2, [r3, #4]
    ac0c:	eb00079f 	bl	ca90 <printk>
    ac10:	e3a00000 	mov	r0, #0
    ac14:	e8bd8010 	pop	{r4, pc}
    ac18:	e30d0844 	movw	r0, #55364	; 0xd844
    ac1c:	e3400000 	movt	r0, #0
    ac20:	eb00079a 	bl	ca90 <printk>
    ac24:	e3e00000 	mvn	r0, #0
    ac28:	e8bd8010 	pop	{r4, pc}

0000ac2c <gpio_direction_input>:
    ac2c:	e3500036 	cmp	r0, #54	; 0x36
    ac30:	e92d4070 	push	{r4, r5, r6, lr}
    ac34:	e1a04000 	mov	r4, r0
    ac38:	ca000013 	bgt	ac8c <gpio_direction_input+0x60>
    ac3c:	e1a05fc0 	asr	r5, r0, #31
    ac40:	e3063667 	movw	r3, #26215	; 0x6667
    ac44:	e3463666 	movt	r3, #26214	; 0x6666
    ac48:	e0c32093 	smull	r2, r3, r3, r0
    ac4c:	e0655143 	rsb	r5, r5, r3, asr #2
    ac50:	e1a06105 	lsl	r6, r5, #2
    ac54:	e2866602 	add	r6, r6, #2097152	; 0x200000
    ac58:	e1a00006 	mov	r0, r6
    ac5c:	ebfffe5c 	bl	a5d4 <bcm2835_read>
    ac60:	e3a0100a 	mov	r1, #10
    ac64:	e3a02003 	mov	r2, #3
    ac68:	e0644591 	mls	r4, r1, r5, r4
    ac6c:	e3a01007 	mov	r1, #7
    ac70:	e1a03000 	mov	r3, r0
    ac74:	e0040492 	mul	r4, r2, r4
    ac78:	e1a00006 	mov	r0, r6
    ac7c:	e1c31411 	bic	r1, r3, r1, lsl r4
    ac80:	ebfffe4d 	bl	a5bc <bcm2835_write>
    ac84:	e3a00000 	mov	r0, #0
    ac88:	e8bd8070 	pop	{r4, r5, r6, pc}
    ac8c:	e30d0844 	movw	r0, #55364	; 0xd844
    ac90:	e1a01004 	mov	r1, r4
    ac94:	e3400000 	movt	r0, #0
    ac98:	eb00077c 	bl	ca90 <printk>
    ac9c:	e3e00000 	mvn	r0, #0
    aca0:	e8bd8070 	pop	{r4, r5, r6, pc}

0000aca4 <gpio_direction_output>:
    aca4:	e3500036 	cmp	r0, #54	; 0x36
    aca8:	e1a01000 	mov	r1, r0
    acac:	e92d4070 	push	{r4, r5, r6, lr}
    acb0:	ca000015 	bgt	ad0c <gpio_direction_output+0x68>
    acb4:	e3063667 	movw	r3, #26215	; 0x6667
    acb8:	e3a04003 	mov	r4, #3
    acbc:	e3463666 	movt	r3, #26214	; 0x6666
    acc0:	e0c32193 	smull	r2, r3, r3, r1
    acc4:	e1a05fc0 	asr	r5, r0, #31
    acc8:	e3a0000a 	mov	r0, #10
    accc:	e0655143 	rsb	r5, r5, r3, asr #2
    acd0:	e0611590 	mls	r1, r0, r5, r1
    acd4:	e1a05105 	lsl	r5, r5, #2
    acd8:	e2855602 	add	r5, r5, #2097152	; 0x200000
    acdc:	e1a00005 	mov	r0, r5
    ace0:	e0040194 	mul	r4, r4, r1
    ace4:	ebfffe3a 	bl	a5d4 <bcm2835_read>
    ace8:	e3a02007 	mov	r2, #7
    acec:	e1a03000 	mov	r3, r0
    acf0:	e3a01001 	mov	r1, #1
    acf4:	e1a00005 	mov	r0, r5
    acf8:	e1c33412 	bic	r3, r3, r2, lsl r4
    acfc:	e1831411 	orr	r1, r3, r1, lsl r4
    ad00:	ebfffe2d 	bl	a5bc <bcm2835_write>
    ad04:	e3a00000 	mov	r0, #0
    ad08:	e8bd8070 	pop	{r4, r5, r6, pc}
    ad0c:	e30d0844 	movw	r0, #55364	; 0xd844
    ad10:	e3400000 	movt	r0, #0
    ad14:	eb00075d 	bl	ca90 <printk>
    ad18:	e3e00000 	mvn	r0, #0
    ad1c:	e8bd8070 	pop	{r4, r5, r6, pc}

0000ad20 <gpio_to_irq>:
    ad20:	e3a00031 	mov	r0, #49	; 0x31
    ad24:	e12fff1e 	bx	lr

0000ad28 <gpio_get_value>:
    ad28:	e3500036 	cmp	r0, #54	; 0x36
    ad2c:	e92d4010 	push	{r4, lr}
    ad30:	e1a04000 	mov	r4, r0
    ad34:	ca00000d 	bgt	ad70 <gpio_get_value+0x48>
    ad38:	e3540000 	cmp	r4, #0
    ad3c:	e280001f 	add	r0, r0, #31
    ad40:	a1a00004 	movge	r0, r4
    ad44:	e204401f 	and	r4, r4, #31
    ad48:	e1a002c0 	asr	r0, r0, #5
    ad4c:	e1a00100 	lsl	r0, r0, #2
    ad50:	e2800602 	add	r0, r0, #2097152	; 0x200000
    ad54:	e2800034 	add	r0, r0, #52	; 0x34
    ad58:	ebfffe1d 	bl	a5d4 <bcm2835_read>
    ad5c:	e3a03001 	mov	r3, #1
    ad60:	e0103413 	ands	r3, r0, r3, lsl r4
    ad64:	13a00001 	movne	r0, #1
    ad68:	03a00000 	moveq	r0, #0
    ad6c:	e8bd8010 	pop	{r4, pc}
    ad70:	e30d0898 	movw	r0, #55448	; 0xd898
    ad74:	e1a01004 	mov	r1, r4
    ad78:	e3400000 	movt	r0, #0
    ad7c:	eb000743 	bl	ca90 <printk>
    ad80:	e3e00000 	mvn	r0, #0
    ad84:	e8bd8010 	pop	{r4, pc}

0000ad88 <gpio_set_value>:
    ad88:	e3500036 	cmp	r0, #54	; 0x36
    ad8c:	e1a03000 	mov	r3, r0
    ad90:	e92d4010 	push	{r4, lr}
    ad94:	ca00001d 	bgt	ae10 <gpio_set_value+0x88>
    ad98:	e3a02001 	mov	r2, #1
    ad9c:	e200c01f 	and	ip, r0, #31
    ada0:	e3500000 	cmp	r0, #0
    ada4:	e1a04001 	mov	r4, r1
    ada8:	e1a0cc12 	lsl	ip, r2, ip
    adac:	e280201f 	add	r2, r0, #31
    adb0:	a1a02000 	movge	r2, r0
    adb4:	e3510000 	cmp	r1, #0
    adb8:	e1a032c2 	asr	r3, r2, #5
    adbc:	e1a03103 	lsl	r3, r3, #2
    adc0:	0a00000c 	beq	adf8 <gpio_set_value+0x70>
    adc4:	e3510001 	cmp	r1, #1
    adc8:	0a000004 	beq	ade0 <gpio_set_value+0x58>
    adcc:	e30d08a8 	movw	r0, #55464	; 0xd8a8
    add0:	e3400000 	movt	r0, #0
    add4:	eb00072d 	bl	ca90 <printk>
    add8:	e3a00000 	mov	r0, #0
    addc:	e8bd8010 	pop	{r4, pc}
    ade0:	e2830602 	add	r0, r3, #2097152	; 0x200000
    ade4:	e1a0100c 	mov	r1, ip
    ade8:	e280001c 	add	r0, r0, #28
    adec:	ebfffdf2 	bl	a5bc <bcm2835_write>
    adf0:	e3a00000 	mov	r0, #0
    adf4:	e8bd8010 	pop	{r4, pc}
    adf8:	e2830602 	add	r0, r3, #2097152	; 0x200000
    adfc:	e1a0100c 	mov	r1, ip
    ae00:	e2800028 	add	r0, r0, #40	; 0x28
    ae04:	ebfffdec 	bl	a5bc <bcm2835_write>
    ae08:	e1a00004 	mov	r0, r4
    ae0c:	e8bd8010 	pop	{r4, pc}
    ae10:	e30d0898 	movw	r0, #55448	; 0xd898
    ae14:	e1a01003 	mov	r1, r3
    ae18:	e3400000 	movt	r0, #0
    ae1c:	eb00071b 	bl	ca90 <printk>
    ae20:	e3e00000 	mvn	r0, #0
    ae24:	e8bd8010 	pop	{r4, pc}

0000ae28 <gpio_set_falling>:
    ae28:	e3500036 	cmp	r0, #54	; 0x36
    ae2c:	e92d4070 	push	{r4, r5, r6, lr}
    ae30:	e1a05000 	mov	r5, r0
    ae34:	ca000010 	bgt	ae7c <gpio_set_falling+0x54>
    ae38:	e3500000 	cmp	r0, #0
    ae3c:	e280401f 	add	r4, r0, #31
    ae40:	a1a04000 	movge	r4, r0
    ae44:	e205501f 	and	r5, r5, #31
    ae48:	e1a042c4 	asr	r4, r4, #5
    ae4c:	e1a04104 	lsl	r4, r4, #2
    ae50:	e2844602 	add	r4, r4, #2097152	; 0x200000
    ae54:	e2844058 	add	r4, r4, #88	; 0x58
    ae58:	e1a00004 	mov	r0, r4
    ae5c:	ebfffddc 	bl	a5d4 <bcm2835_read>
    ae60:	e3a01001 	mov	r1, #1
    ae64:	e1a03000 	mov	r3, r0
    ae68:	e1a00004 	mov	r0, r4
    ae6c:	e1831511 	orr	r1, r3, r1, lsl r5
    ae70:	ebfffdd1 	bl	a5bc <bcm2835_write>
    ae74:	e3a00000 	mov	r0, #0
    ae78:	e8bd8070 	pop	{r4, r5, r6, pc}
    ae7c:	e30d0898 	movw	r0, #55448	; 0xd898
    ae80:	e1a01005 	mov	r1, r5
    ae84:	e3400000 	movt	r0, #0
    ae88:	eb000700 	bl	ca90 <printk>
    ae8c:	e3e00000 	mvn	r0, #0
    ae90:	e8bd8070 	pop	{r4, r5, r6, pc}

0000ae94 <gpio_clear_interrupt>:
    ae94:	e3500036 	cmp	r0, #54	; 0x36
    ae98:	e1a03000 	mov	r3, r0
    ae9c:	e92d4010 	push	{r4, lr}
    aea0:	ca00000c 	bgt	aed8 <gpio_clear_interrupt+0x44>
    aea4:	e3530000 	cmp	r3, #0
    aea8:	e280001f 	add	r0, r0, #31
    aeac:	a1a00003 	movge	r0, r3
    aeb0:	e203201f 	and	r2, r3, #31
    aeb4:	e3a01001 	mov	r1, #1
    aeb8:	e1a002c0 	asr	r0, r0, #5
    aebc:	e1a01211 	lsl	r1, r1, r2
    aec0:	e1a00100 	lsl	r0, r0, #2
    aec4:	e2800602 	add	r0, r0, #2097152	; 0x200000
    aec8:	e2800040 	add	r0, r0, #64	; 0x40
    aecc:	ebfffdba 	bl	a5bc <bcm2835_write>
    aed0:	e3a00000 	mov	r0, #0
    aed4:	e8bd8010 	pop	{r4, pc}
    aed8:	e30d0898 	movw	r0, #55448	; 0xd898
    aedc:	e1a01003 	mov	r1, r3
    aee0:	e3400000 	movt	r0, #0
    aee4:	eb0006e9 	bl	ca90 <printk>
    aee8:	e3e00000 	mvn	r0, #0
    aeec:	e8bd8010 	pop	{r4, pc}

0000aef0 <pl011_uart_putc>:
    aef0:	e92d4070 	push	{r4, r5, r6, lr}
    aef4:	e3014018 	movw	r4, #4120	; 0x1018
    aef8:	e3404020 	movt	r4, #32
    aefc:	e1a05000 	mov	r5, r0
    af00:	e1a00004 	mov	r0, r4
    af04:	ebfffdb2 	bl	a5d4 <bcm2835_read>
    af08:	e3100020 	tst	r0, #32
    af0c:	1afffffb 	bne	af00 <pl011_uart_putc+0x10>
    af10:	e3a00a01 	mov	r0, #4096	; 0x1000
    af14:	e1a01005 	mov	r1, r5
    af18:	e3400020 	movt	r0, #32
    af1c:	e8bd4070 	pop	{r4, r5, r6, lr}
    af20:	eafffda5 	b	a5bc <bcm2835_write>

0000af24 <pl011_uart_getc>:
    af24:	e92d4010 	push	{r4, lr}
    af28:	e3014018 	movw	r4, #4120	; 0x1018
    af2c:	e3404020 	movt	r4, #32
    af30:	e1a00004 	mov	r0, r4
    af34:	ebfffda6 	bl	a5d4 <bcm2835_read>
    af38:	e3100010 	tst	r0, #16
    af3c:	1afffffb 	bne	af30 <pl011_uart_getc+0xc>
    af40:	e3a00a01 	mov	r0, #4096	; 0x1000
    af44:	e8bd4010 	pop	{r4, lr}
    af48:	e3400020 	movt	r0, #32
    af4c:	eafffda0 	b	a5d4 <bcm2835_read>

0000af50 <pl011_uart_getc_noblock>:
    af50:	e3010018 	movw	r0, #4120	; 0x1018
    af54:	e3400020 	movt	r0, #32
    af58:	e92d4010 	push	{r4, lr}
    af5c:	ebfffd9c 	bl	a5d4 <bcm2835_read>
    af60:	e3100010 	tst	r0, #16
    af64:	1a000004 	bne	af7c <pl011_uart_getc_noblock+0x2c>
    af68:	e3a00a01 	mov	r0, #4096	; 0x1000
    af6c:	e3400020 	movt	r0, #32
    af70:	ebfffd97 	bl	a5d4 <bcm2835_read>
    af74:	e6ef0070 	uxtb	r0, r0
    af78:	e8bd8010 	pop	{r4, pc}
    af7c:	e3e00000 	mvn	r0, #0
    af80:	e8bd8010 	pop	{r4, pc}

0000af84 <pl011_uart_enable_interrupts>:
    af84:	e92d4070 	push	{r4, r5, r6, lr}
    af88:	e3010044 	movw	r0, #4164	; 0x1044
    af8c:	e3400020 	movt	r0, #32
    af90:	e3014034 	movw	r4, #4148	; 0x1034
    af94:	e3404020 	movt	r4, #32
    af98:	e30017ff 	movw	r1, #2047	; 0x7ff
    af9c:	e3015038 	movw	r5, #4152	; 0x1038
    afa0:	ebfffd85 	bl	a5bc <bcm2835_write>
    afa4:	e3405020 	movt	r5, #32
    afa8:	e1a00004 	mov	r0, r4
    afac:	ebfffd88 	bl	a5d4 <bcm2835_read>
    afb0:	e1a01000 	mov	r1, r0
    afb4:	e1a00004 	mov	r0, r4
    afb8:	e3c11038 	bic	r1, r1, #56	; 0x38
    afbc:	ebfffd7e 	bl	a5bc <bcm2835_write>
    afc0:	e1a00005 	mov	r0, r5
    afc4:	ebfffd82 	bl	a5d4 <bcm2835_read>
    afc8:	e1a04000 	mov	r4, r0
    afcc:	e30d08c0 	movw	r0, #55488	; 0xd8c0
    afd0:	e3400000 	movt	r0, #0
    afd4:	e1a01004 	mov	r1, r4
    afd8:	e3844040 	orr	r4, r4, #64	; 0x40
    afdc:	eb0006ab 	bl	ca90 <printk>
    afe0:	e30d08dc 	movw	r0, #55516	; 0xd8dc
    afe4:	e1a01004 	mov	r1, r4
    afe8:	e3400000 	movt	r0, #0
    afec:	eb0006a7 	bl	ca90 <printk>
    aff0:	e1a00005 	mov	r0, r5
    aff4:	e1a01004 	mov	r1, r4
    aff8:	ebfffd6f 	bl	a5bc <bcm2835_write>
    affc:	e8bd4070 	pop	{r4, r5, r6, lr}
    b000:	e3a00039 	mov	r0, #57	; 0x39
    b004:	eafff8a9 	b	92b0 <irq_enable>

0000b008 <pl011_uart_interrupt_handler>:
    b008:	e92d4070 	push	{r4, r5, r6, lr}
    b00c:	e3015018 	movw	r5, #4120	; 0x1018
    b010:	e3405020 	movt	r5, #32
    b014:	e3a04a01 	mov	r4, #4096	; 0x1000
    b018:	e3404020 	movt	r4, #32
    b01c:	ea000002 	b	b02c <pl011_uart_interrupt_handler+0x24>
    b020:	ebfffd6b 	bl	a5d4 <bcm2835_read>
    b024:	e6ef0070 	uxtb	r0, r0
    b028:	ebfffd91 	bl	a674 <console_insert_char>
    b02c:	e1a00005 	mov	r0, r5
    b030:	ebfffd67 	bl	a5d4 <bcm2835_read>
    b034:	e1a03000 	mov	r3, r0
    b038:	e1a00004 	mov	r0, r4
    b03c:	e3130010 	tst	r3, #16
    b040:	0afffff6 	beq	b020 <pl011_uart_interrupt_handler+0x18>
    b044:	e3010044 	movw	r0, #4164	; 0x1044
    b048:	e3a01040 	mov	r1, #64	; 0x40
    b04c:	e3400020 	movt	r0, #32
    b050:	ebfffd59 	bl	a5bc <bcm2835_write>
    b054:	e3a00000 	mov	r0, #0
    b058:	e8bd8070 	pop	{r4, r5, r6, pc}

0000b05c <pl011_uart_init>:
    b05c:	e3a03cc2 	mov	r3, #49664	; 0xc200
    b060:	e30acf84 	movw	ip, #44932	; 0xaf84
    b064:	e3403001 	movt	r3, #1
    b068:	e30a1f24 	movw	r1, #44836	; 0xaf24
    b06c:	e92d41f0 	push	{r4, r5, r6, r7, r8, lr}
    b070:	e30a2f50 	movw	r2, #44880	; 0xaf50
    b074:	e5803004 	str	r3, [r0, #4]
    b078:	e30a3ef0 	movw	r3, #44784	; 0xaef0
    b07c:	e3403000 	movt	r3, #0
    b080:	e3016030 	movw	r6, #4144	; 0x1030
    b084:	e5803018 	str	r3, [r0, #24]
    b088:	e30b3008 	movw	r3, #45064	; 0xb008
    b08c:	e340c000 	movt	ip, #0
    b090:	e3a04000 	mov	r4, #0
    b094:	e3403000 	movt	r3, #0
    b098:	e3a05004 	mov	r5, #4
    b09c:	e3402000 	movt	r2, #0
    b0a0:	e580c014 	str	ip, [r0, #20]
    b0a4:	e3a0c008 	mov	ip, #8
    b0a8:	e5803024 	str	r3, [r0, #36]	; 0x24
    b0ac:	e3a03001 	mov	r3, #1
    b0b0:	e3401000 	movt	r1, #0
    b0b4:	e3406020 	movt	r6, #32
    b0b8:	e580c008 	str	ip, [r0, #8]
    b0bc:	e5802020 	str	r2, [r0, #32]
    b0c0:	e580300c 	str	r3, [r0, #12]
    b0c4:	e5804010 	str	r4, [r0, #16]
    b0c8:	e580101c 	str	r1, [r0, #28]
    b0cc:	e1a01004 	mov	r1, r4
    b0d0:	e3405020 	movt	r5, #32
    b0d4:	e1a00006 	mov	r0, r6
    b0d8:	ebfffd37 	bl	a5bc <bcm2835_write>
    b0dc:	e30d18f0 	movw	r1, #55536	; 0xd8f0
    b0e0:	e3a0000e 	mov	r0, #14
    b0e4:	e3401000 	movt	r1, #0
    b0e8:	ebfffe8c 	bl	ab20 <gpio_request>
    b0ec:	e30d18f8 	movw	r1, #55544	; 0xd8f8
    b0f0:	e3a0000f 	mov	r0, #15
    b0f4:	e3401000 	movt	r1, #0
    b0f8:	ebfffe88 	bl	ab20 <gpio_request>
    b0fc:	e1a00005 	mov	r0, r5
    b100:	ebfffd33 	bl	a5d4 <bcm2835_read>
    b104:	e3c01a3f 	bic	r1, r0, #258048	; 0x3f000
    b108:	e1a00005 	mov	r0, r5
    b10c:	e3811909 	orr	r1, r1, #147456	; 0x24000
    b110:	e3a05096 	mov	r5, #150	; 0x96
    b114:	ebfffd28 	bl	a5bc <bcm2835_write>
    b118:	e3a00094 	mov	r0, #148	; 0x94
    b11c:	e1a01004 	mov	r1, r4
    b120:	e3400020 	movt	r0, #32
    b124:	ebfffd24 	bl	a5bc <bcm2835_write>
    b128:	e1a03005 	mov	r3, r5

0000b12c <__delay_230>:
    b12c:	e2533001 	subs	r3, r3, #1
    b130:	1afffffd 	bne	b12c <__delay_230>
    b134:	e3a07098 	mov	r7, #152	; 0x98
    b138:	e3a01903 	mov	r1, #49152	; 0xc000
    b13c:	e3407020 	movt	r7, #32
    b140:	e1a00007 	mov	r0, r7
    b144:	ebfffd1c 	bl	a5bc <bcm2835_write>

0000b148 <__delay_236>:
    b148:	e2555001 	subs	r5, r5, #1
    b14c:	1afffffd 	bne	b148 <__delay_236>
    b150:	e1a01004 	mov	r1, r4
    b154:	e1a00007 	mov	r0, r7
    b158:	ebfffd17 	bl	a5bc <bcm2835_write>
    b15c:	e3010044 	movw	r0, #4164	; 0x1044
    b160:	e30017ff 	movw	r1, #2047	; 0x7ff
    b164:	e3400020 	movt	r0, #32
    b168:	ebfffd13 	bl	a5bc <bcm2835_write>
    b16c:	e3010024 	movw	r0, #4132	; 0x1024
    b170:	e3a0101a 	mov	r1, #26
    b174:	e3400020 	movt	r0, #32
    b178:	ebfffd0f 	bl	a5bc <bcm2835_write>
    b17c:	e3010028 	movw	r0, #4136	; 0x1028
    b180:	e3a01003 	mov	r1, #3
    b184:	e3400020 	movt	r0, #32
    b188:	ebfffd0b 	bl	a5bc <bcm2835_write>
    b18c:	e301002c 	movw	r0, #4140	; 0x102c
    b190:	e3a01070 	mov	r1, #112	; 0x70
    b194:	e3400020 	movt	r0, #32
    b198:	ebfffd07 	bl	a5bc <bcm2835_write>
    b19c:	e3010038 	movw	r0, #4152	; 0x1038
    b1a0:	e1a01004 	mov	r1, r4
    b1a4:	e3400020 	movt	r0, #32
    b1a8:	ebfffd03 	bl	a5bc <bcm2835_write>
    b1ac:	e1a00006 	mov	r0, r6
    b1b0:	e3001301 	movw	r1, #769	; 0x301
    b1b4:	ebfffd00 	bl	a5bc <bcm2835_write>
    b1b8:	e1a00004 	mov	r0, r4
    b1bc:	e8bd81f0 	pop	{r4, r5, r6, r7, r8, pc}

0000b1c0 <pl011_uart_putc_extra>:
    b1c0:	e92d4070 	push	{r4, r5, r6, lr}
    b1c4:	e3014018 	movw	r4, #4120	; 0x1018
    b1c8:	e3404020 	movt	r4, #32
    b1cc:	e1a05000 	mov	r5, r0
    b1d0:	e1a00004 	mov	r0, r4
    b1d4:	ebfffcfe 	bl	a5d4 <bcm2835_read>
    b1d8:	e3100020 	tst	r0, #32
    b1dc:	1afffffb 	bne	b1d0 <pl011_uart_putc_extra+0x10>
    b1e0:	e3a00a01 	mov	r0, #4096	; 0x1000
    b1e4:	e1a01005 	mov	r1, r5
    b1e8:	e3400020 	movt	r0, #32
    b1ec:	e8bd4070 	pop	{r4, r5, r6, lr}
    b1f0:	eafffcf1 	b	a5bc <bcm2835_write>

0000b1f4 <pl011_write>:
    b1f4:	e92d47f0 	push	{r4, r5, r6, r7, r8, r9, sl, lr}
    b1f8:	e2518000 	subs	r8, r1, #0
    b1fc:	0a000010 	beq	b244 <pl011_write+0x50>
    b200:	e0807008 	add	r7, r0, r8
    b204:	e3014018 	movw	r4, #4120	; 0x1018
    b208:	e3404020 	movt	r4, #32
    b20c:	e3a09a01 	mov	r9, #4096	; 0x1000
    b210:	e3409020 	movt	r9, #32
    b214:	e2405001 	sub	r5, r0, #1
    b218:	e2477001 	sub	r7, r7, #1
    b21c:	e5f56001 	ldrb	r6, [r5, #1]!
    b220:	e1a00004 	mov	r0, r4
    b224:	ebfffcea 	bl	a5d4 <bcm2835_read>
    b228:	e3100020 	tst	r0, #32
    b22c:	1afffffb 	bne	b220 <pl011_write+0x2c>
    b230:	e1a01006 	mov	r1, r6
    b234:	e1a00009 	mov	r0, r9
    b238:	ebfffcdf 	bl	a5bc <bcm2835_write>
    b23c:	e1570005 	cmp	r7, r5
    b240:	1afffff5 	bne	b21c <pl011_write+0x28>
    b244:	e1a00008 	mov	r0, r8
    b248:	e8bd87f0 	pop	{r4, r5, r6, r7, r8, r9, sl, pc}

0000b24c <old_pl011_uart_init>:
    b24c:	e92d4070 	push	{r4, r5, r6, lr}
    b250:	e3015030 	movw	r5, #4144	; 0x1030
    b254:	e3405020 	movt	r5, #32
    b258:	e3a01000 	mov	r1, #0
    b25c:	e1a00005 	mov	r0, r5
    b260:	e3a04096 	mov	r4, #150	; 0x96
    b264:	ebfffcd4 	bl	a5bc <bcm2835_write>
    b268:	e30d18f0 	movw	r1, #55536	; 0xd8f0
    b26c:	e3a0000e 	mov	r0, #14
    b270:	e3401000 	movt	r1, #0
    b274:	ebfffe29 	bl	ab20 <gpio_request>
    b278:	e30d18f8 	movw	r1, #55544	; 0xd8f8
    b27c:	e3a0000f 	mov	r0, #15
    b280:	e3401000 	movt	r1, #0
    b284:	ebfffe25 	bl	ab20 <gpio_request>
    b288:	e3a00094 	mov	r0, #148	; 0x94
    b28c:	e3a01000 	mov	r1, #0
    b290:	e3400020 	movt	r0, #32
    b294:	ebfffcc8 	bl	a5bc <bcm2835_write>
    b298:	e1a03004 	mov	r3, r4

0000b29c <__delay_370>:
    b29c:	e2533001 	subs	r3, r3, #1
    b2a0:	1afffffd 	bne	b29c <__delay_370>
    b2a4:	e3a06098 	mov	r6, #152	; 0x98
    b2a8:	e3a01903 	mov	r1, #49152	; 0xc000
    b2ac:	e3406020 	movt	r6, #32
    b2b0:	e1a00006 	mov	r0, r6
    b2b4:	ebfffcc0 	bl	a5bc <bcm2835_write>

0000b2b8 <__delay_376>:
    b2b8:	e2544001 	subs	r4, r4, #1
    b2bc:	1afffffd 	bne	b2b8 <__delay_376>
    b2c0:	e3a01000 	mov	r1, #0
    b2c4:	e1a00006 	mov	r0, r6
    b2c8:	ebfffcbb 	bl	a5bc <bcm2835_write>
    b2cc:	e3010044 	movw	r0, #4164	; 0x1044
    b2d0:	e30017ff 	movw	r1, #2047	; 0x7ff
    b2d4:	e3400020 	movt	r0, #32
    b2d8:	ebfffcb7 	bl	a5bc <bcm2835_write>
    b2dc:	e3010024 	movw	r0, #4132	; 0x1024
    b2e0:	e3a01001 	mov	r1, #1
    b2e4:	e3400020 	movt	r0, #32
    b2e8:	ebfffcb3 	bl	a5bc <bcm2835_write>
    b2ec:	e3010028 	movw	r0, #4136	; 0x1028
    b2f0:	e3a01028 	mov	r1, #40	; 0x28
    b2f4:	e3400020 	movt	r0, #32
    b2f8:	ebfffcaf 	bl	a5bc <bcm2835_write>
    b2fc:	e301002c 	movw	r0, #4140	; 0x102c
    b300:	e3a01070 	mov	r1, #112	; 0x70
    b304:	e3400020 	movt	r0, #32
    b308:	ebfffcab 	bl	a5bc <bcm2835_write>
    b30c:	e3010038 	movw	r0, #4152	; 0x1038
    b310:	e3a01000 	mov	r1, #0
    b314:	e3400020 	movt	r0, #32
    b318:	ebfffca7 	bl	a5bc <bcm2835_write>
    b31c:	e1a00005 	mov	r0, r5
    b320:	e3001301 	movw	r1, #769	; 0x301
    b324:	ebfffca4 	bl	a5bc <bcm2835_write>
    b328:	e3a00000 	mov	r0, #0
    b32c:	e8bd8070 	pop	{r4, r5, r6, pc}

0000b330 <mini_uart_putc>:
    b330:	e92d4070 	push	{r4, r5, r6, lr}
    b334:	e3014018 	movw	r4, #4120	; 0x1018
    b338:	e3404020 	movt	r4, #32
    b33c:	e1a05000 	mov	r5, r0
    b340:	e1a00004 	mov	r0, r4
    b344:	ebfffca2 	bl	a5d4 <bcm2835_read>
    b348:	e3100020 	tst	r0, #32
    b34c:	1afffffb 	bne	b340 <mini_uart_putc+0x10>
    b350:	e3a00a01 	mov	r0, #4096	; 0x1000
    b354:	e1a01005 	mov	r1, r5
    b358:	e3400020 	movt	r0, #32
    b35c:	e8bd4070 	pop	{r4, r5, r6, lr}
    b360:	eafffc95 	b	a5bc <bcm2835_write>

0000b364 <mini_uart_getc>:
    b364:	e92d4010 	push	{r4, lr}
    b368:	e3014018 	movw	r4, #4120	; 0x1018
    b36c:	e3404020 	movt	r4, #32
    b370:	e1a00004 	mov	r0, r4
    b374:	ebfffc96 	bl	a5d4 <bcm2835_read>
    b378:	e3100010 	tst	r0, #16
    b37c:	1afffffb 	bne	b370 <mini_uart_getc+0xc>
    b380:	e3a00a01 	mov	r0, #4096	; 0x1000
    b384:	e8bd4010 	pop	{r4, lr}
    b388:	e3400020 	movt	r0, #32
    b38c:	eafffc90 	b	a5d4 <bcm2835_read>

0000b390 <mini_uart_getc_noblock>:
    b390:	e3010018 	movw	r0, #4120	; 0x1018
    b394:	e3400020 	movt	r0, #32
    b398:	e92d4010 	push	{r4, lr}
    b39c:	ebfffc8c 	bl	a5d4 <bcm2835_read>
    b3a0:	e3100010 	tst	r0, #16
    b3a4:	1a000004 	bne	b3bc <mini_uart_getc_noblock+0x2c>
    b3a8:	e3a00a01 	mov	r0, #4096	; 0x1000
    b3ac:	e3400020 	movt	r0, #32
    b3b0:	ebfffc87 	bl	a5d4 <bcm2835_read>
    b3b4:	e6ef0070 	uxtb	r0, r0
    b3b8:	e8bd8010 	pop	{r4, pc}
    b3bc:	e3e00000 	mvn	r0, #0
    b3c0:	e8bd8010 	pop	{r4, pc}

0000b3c4 <mini_uart_enable_interrupts>:
    b3c4:	e92d4070 	push	{r4, r5, r6, lr}
    b3c8:	e3010044 	movw	r0, #4164	; 0x1044
    b3cc:	e3400020 	movt	r0, #32
    b3d0:	e3014034 	movw	r4, #4148	; 0x1034
    b3d4:	e3404020 	movt	r4, #32
    b3d8:	e30017ff 	movw	r1, #2047	; 0x7ff
    b3dc:	e3015038 	movw	r5, #4152	; 0x1038
    b3e0:	ebfffc75 	bl	a5bc <bcm2835_write>
    b3e4:	e3405020 	movt	r5, #32
    b3e8:	e1a00004 	mov	r0, r4
    b3ec:	ebfffc78 	bl	a5d4 <bcm2835_read>
    b3f0:	e1a01000 	mov	r1, r0
    b3f4:	e1a00004 	mov	r0, r4
    b3f8:	e3c11038 	bic	r1, r1, #56	; 0x38
    b3fc:	ebfffc6e 	bl	a5bc <bcm2835_write>
    b400:	e1a00005 	mov	r0, r5
    b404:	ebfffc72 	bl	a5d4 <bcm2835_read>
    b408:	e1a04000 	mov	r4, r0
    b40c:	e30d08c0 	movw	r0, #55488	; 0xd8c0
    b410:	e3400000 	movt	r0, #0
    b414:	e1a01004 	mov	r1, r4
    b418:	e3844040 	orr	r4, r4, #64	; 0x40
    b41c:	eb00059b 	bl	ca90 <printk>
    b420:	e30d08dc 	movw	r0, #55516	; 0xd8dc
    b424:	e1a01004 	mov	r1, r4
    b428:	e3400000 	movt	r0, #0
    b42c:	eb000597 	bl	ca90 <printk>
    b430:	e1a00005 	mov	r0, r5
    b434:	e1a01004 	mov	r1, r4
    b438:	ebfffc5f 	bl	a5bc <bcm2835_write>
    b43c:	e8bd4070 	pop	{r4, r5, r6, lr}
    b440:	e3a00039 	mov	r0, #57	; 0x39
    b444:	eafff799 	b	92b0 <irq_enable>

0000b448 <mini_uart_interrupt_handler>:
    b448:	e92d4070 	push	{r4, r5, r6, lr}
    b44c:	e3015018 	movw	r5, #4120	; 0x1018
    b450:	e3405020 	movt	r5, #32
    b454:	e3a04a01 	mov	r4, #4096	; 0x1000
    b458:	e3404020 	movt	r4, #32
    b45c:	ea000002 	b	b46c <mini_uart_interrupt_handler+0x24>
    b460:	ebfffc5b 	bl	a5d4 <bcm2835_read>
    b464:	e6ef0070 	uxtb	r0, r0
    b468:	ebfffc81 	bl	a674 <console_insert_char>
    b46c:	e1a00005 	mov	r0, r5
    b470:	ebfffc57 	bl	a5d4 <bcm2835_read>
    b474:	e1a03000 	mov	r3, r0
    b478:	e1a00004 	mov	r0, r4
    b47c:	e3130010 	tst	r3, #16
    b480:	0afffff6 	beq	b460 <mini_uart_interrupt_handler+0x18>
    b484:	e3010044 	movw	r0, #4164	; 0x1044
    b488:	e3a01040 	mov	r1, #64	; 0x40
    b48c:	e3400020 	movt	r0, #32
    b490:	ebfffc49 	bl	a5bc <bcm2835_write>
    b494:	e3a00000 	mov	r0, #0
    b498:	e8bd8070 	pop	{r4, r5, r6, pc}

0000b49c <mini_uart_init>:
    b49c:	e3a03cc2 	mov	r3, #49664	; 0xc200
    b4a0:	e30bc3c4 	movw	ip, #46020	; 0xb3c4
    b4a4:	e3403001 	movt	r3, #1
    b4a8:	e30b1364 	movw	r1, #45924	; 0xb364
    b4ac:	e92d41f0 	push	{r4, r5, r6, r7, r8, lr}
    b4b0:	e30b2390 	movw	r2, #45968	; 0xb390
    b4b4:	e5803004 	str	r3, [r0, #4]
    b4b8:	e30b3330 	movw	r3, #45872	; 0xb330
    b4bc:	e3403000 	movt	r3, #0
    b4c0:	e3016030 	movw	r6, #4144	; 0x1030
    b4c4:	e5803018 	str	r3, [r0, #24]
    b4c8:	e30b3448 	movw	r3, #46152	; 0xb448
    b4cc:	e340c000 	movt	ip, #0
    b4d0:	e3a04000 	mov	r4, #0
    b4d4:	e3402000 	movt	r2, #0
    b4d8:	e3a08001 	mov	r8, #1
    b4dc:	e3403000 	movt	r3, #0
    b4e0:	e3a05096 	mov	r5, #150	; 0x96
    b4e4:	e580c014 	str	ip, [r0, #20]
    b4e8:	e3a0c008 	mov	ip, #8
    b4ec:	e3401000 	movt	r1, #0
    b4f0:	e3406020 	movt	r6, #32
    b4f4:	e580c008 	str	ip, [r0, #8]
    b4f8:	e5802020 	str	r2, [r0, #32]
    b4fc:	e5803024 	str	r3, [r0, #36]	; 0x24
    b500:	e5804010 	str	r4, [r0, #16]
    b504:	e580101c 	str	r1, [r0, #28]
    b508:	e1a01004 	mov	r1, r4
    b50c:	e580800c 	str	r8, [r0, #12]
    b510:	e1a00006 	mov	r0, r6
    b514:	ebfffc28 	bl	a5bc <bcm2835_write>
    b518:	e30d18f0 	movw	r1, #55536	; 0xd8f0
    b51c:	e3a0000e 	mov	r0, #14
    b520:	e3401000 	movt	r1, #0
    b524:	ebfffd7d 	bl	ab20 <gpio_request>
    b528:	e30d18f8 	movw	r1, #55544	; 0xd8f8
    b52c:	e3a0000f 	mov	r0, #15
    b530:	e3401000 	movt	r1, #0
    b534:	ebfffd79 	bl	ab20 <gpio_request>
    b538:	e3a00094 	mov	r0, #148	; 0x94
    b53c:	e1a01004 	mov	r1, r4
    b540:	e3400020 	movt	r0, #32
    b544:	ebfffc1c 	bl	a5bc <bcm2835_write>
    b548:	e1a03005 	mov	r3, r5

0000b54c <__delay_220>:
    b54c:	e2533001 	subs	r3, r3, #1
    b550:	1afffffd 	bne	b54c <__delay_220>
    b554:	e3a07098 	mov	r7, #152	; 0x98
    b558:	e3a01903 	mov	r1, #49152	; 0xc000
    b55c:	e3407020 	movt	r7, #32
    b560:	e1a00007 	mov	r0, r7
    b564:	ebfffc14 	bl	a5bc <bcm2835_write>

0000b568 <__delay_226>:
    b568:	e2555001 	subs	r5, r5, #1
    b56c:	1afffffd 	bne	b568 <__delay_226>
    b570:	e1a01004 	mov	r1, r4
    b574:	e1a00007 	mov	r0, r7
    b578:	ebfffc0f 	bl	a5bc <bcm2835_write>
    b57c:	e3010044 	movw	r0, #4164	; 0x1044
    b580:	e30017ff 	movw	r1, #2047	; 0x7ff
    b584:	e3400020 	movt	r0, #32
    b588:	ebfffc0b 	bl	a5bc <bcm2835_write>
    b58c:	e3010024 	movw	r0, #4132	; 0x1024
    b590:	e1a01008 	mov	r1, r8
    b594:	e3400020 	movt	r0, #32
    b598:	ebfffc07 	bl	a5bc <bcm2835_write>
    b59c:	e3010028 	movw	r0, #4136	; 0x1028
    b5a0:	e3a01028 	mov	r1, #40	; 0x28
    b5a4:	e3400020 	movt	r0, #32
    b5a8:	ebfffc03 	bl	a5bc <bcm2835_write>
    b5ac:	e301002c 	movw	r0, #4140	; 0x102c
    b5b0:	e3a01070 	mov	r1, #112	; 0x70
    b5b4:	e3400020 	movt	r0, #32
    b5b8:	ebfffbff 	bl	a5bc <bcm2835_write>
    b5bc:	e3010038 	movw	r0, #4152	; 0x1038
    b5c0:	e1a01004 	mov	r1, r4
    b5c4:	e3400020 	movt	r0, #32
    b5c8:	ebfffbfb 	bl	a5bc <bcm2835_write>
    b5cc:	e1a00006 	mov	r0, r6
    b5d0:	e3001301 	movw	r1, #769	; 0x301
    b5d4:	ebfffbf8 	bl	a5bc <bcm2835_write>
    b5d8:	e1a00004 	mov	r0, r4
    b5dc:	e8bd81f0 	pop	{r4, r5, r6, r7, r8, pc}

0000b5e0 <memory_total_free>:
    b5e0:	e3083768 	movw	r3, #34664	; 0x8768
    b5e4:	e3403002 	movt	r3, #2
    b5e8:	e5930000 	ldr	r0, [r3]
    b5ec:	e3500000 	cmp	r0, #0
    b5f0:	012fff1e 	bxeq	lr
    b5f4:	e3a03000 	mov	r3, #0
    b5f8:	e308c774 	movw	ip, #34676	; 0x8774
    b5fc:	e92d4010 	push	{r4, lr}
    b600:	e1a0e003 	mov	lr, r3
    b604:	e340c002 	movt	ip, #2
    b608:	e3a04001 	mov	r4, #1
    b60c:	e1a012c3 	asr	r1, r3, #5
    b610:	e203201f 	and	r2, r3, #31
    b614:	e2833001 	add	r3, r3, #1
    b618:	e79c1101 	ldr	r1, [ip, r1, lsl #2]
    b61c:	e0112214 	ands	r2, r1, r4, lsl r2
    b620:	028ee001 	addeq	lr, lr, #1
    b624:	e1530000 	cmp	r3, r0
    b628:	1afffff7 	bne	b60c <memory_total_free+0x2c>
    b62c:	e1a0060e 	lsl	r0, lr, #12
    b630:	e8bd8010 	pop	{r4, pc}

0000b634 <memory_allocate>:
    b634:	e92d4ff8 	push	{r3, r4, r5, r6, r7, r8, r9, sl, fp, lr}
    b638:	e308a768 	movw	sl, #34664	; 0x8768
    b63c:	e340a002 	movt	sl, #2
    b640:	e3500001 	cmp	r0, #1
    b644:	21a09000 	movcs	r9, r0
    b648:	33a09001 	movcc	r9, #1
    b64c:	e59a5000 	ldr	r5, [sl]
    b650:	e3550000 	cmp	r5, #0
    b654:	0a00003f 	beq	b758 <memory_allocate+0x124>
    b658:	e59a0004 	ldr	r0, [sl, #4]
    b65c:	e2497001 	sub	r7, r9, #1
    b660:	e3a08000 	mov	r8, #0
    b664:	e3081774 	movw	r1, #34676	; 0x8774
    b668:	e1a07627 	lsr	r7, r7, #12
    b66c:	e1a06008 	mov	r6, r8
    b670:	e3401002 	movt	r1, #2
    b674:	e2877001 	add	r7, r7, #1
    b678:	e3a04001 	mov	r4, #1
    b67c:	ea000006 	b	b69c <memory_allocate+0x68>
    b680:	e2800001 	add	r0, r0, #1
    b684:	e2866001 	add	r6, r6, #1
    b688:	e1560005 	cmp	r6, r5
    b68c:	e3a08001 	mov	r8, #1
    b690:	e733f510 	udiv	r3, r0, r5
    b694:	e0600395 	mls	r0, r5, r3, r0
    b698:	0a00002d 	beq	b754 <memory_allocate+0x120>
    b69c:	e3500000 	cmp	r0, #0
    b6a0:	e280301f 	add	r3, r0, #31
    b6a4:	a1a03000 	movge	r3, r0
    b6a8:	e200201f 	and	r2, r0, #31
    b6ac:	e270c000 	rsbs	ip, r0, #0
    b6b0:	e1a032c3 	asr	r3, r3, #5
    b6b4:	e20cc01f 	and	ip, ip, #31
    b6b8:	526c2000 	rsbpl	r2, ip, #0
    b6bc:	e791c103 	ldr	ip, [r1, r3, lsl #2]
    b6c0:	e01cc214 	ands	ip, ip, r4, lsl r2
    b6c4:	1affffed 	bne	b680 <memory_allocate+0x4c>
    b6c8:	ea000008 	b	b6f0 <memory_allocate+0xbc>
    b6cc:	e3530000 	cmp	r3, #0
    b6d0:	a1a02003 	movge	r2, r3
    b6d4:	e2733000 	rsbs	r3, r3, #0
    b6d8:	e1a022c2 	asr	r2, r2, #5
    b6dc:	e203301f 	and	r3, r3, #31
    b6e0:	5263e000 	rsbpl	lr, r3, #0
    b6e4:	e7913102 	ldr	r3, [r1, r2, lsl #2]
    b6e8:	e0133e14 	ands	r3, r3, r4, lsl lr
    b6ec:	1affffe3 	bne	b680 <memory_allocate+0x4c>
    b6f0:	e1a0b00c 	mov	fp, ip
    b6f4:	e28cc001 	add	ip, ip, #1
    b6f8:	e157000c 	cmp	r7, ip
    b6fc:	e08c3000 	add	r3, ip, r0
    b700:	e283201f 	add	r2, r3, #31
    b704:	e203e01f 	and	lr, r3, #31
    b708:	caffffef 	bgt	b6cc <memory_allocate+0x98>
    b70c:	1affffdb 	bne	b680 <memory_allocate+0x4c>
    b710:	e3580000 	cmp	r8, #0
    b714:	158a0004 	strne	r0, [sl, #4]
    b718:	e3500000 	cmp	r0, #0
    b71c:	a08bb000 	addge	fp, fp, r0
    b720:	a1a03000 	movge	r3, r0
    b724:	a3a04001 	movge	r4, #1
    b728:	ba00000a 	blt	b758 <memory_allocate+0x124>
    b72c:	e1a0e2c3 	asr	lr, r3, #5
    b730:	e203201f 	and	r2, r3, #31
    b734:	e15b0003 	cmp	fp, r3
    b738:	e2833001 	add	r3, r3, #1
    b73c:	e791c10e 	ldr	ip, [r1, lr, lsl #2]
    b740:	e18c2214 	orr	r2, ip, r4, lsl r2
    b744:	e781210e 	str	r2, [r1, lr, lsl #2]
    b748:	1afffff7 	bne	b72c <memory_allocate+0xf8>
    b74c:	e1a00600 	lsl	r0, r0, #12
    b750:	e8bd8ff8 	pop	{r3, r4, r5, r6, r7, r8, r9, sl, fp, pc}
    b754:	e58a0004 	str	r0, [sl, #4]
    b758:	e30d0900 	movw	r0, #55552	; 0xd900
    b75c:	e1a01009 	mov	r1, r9
    b760:	e3400000 	movt	r0, #0
    b764:	eb0004c9 	bl	ca90 <printk>
    b768:	e3a00000 	mov	r0, #0
    b76c:	e8bd8ff8 	pop	{r3, r4, r5, r6, r7, r8, r9, sl, fp, pc}

0000b770 <memory_free>:
    b770:	e92d4070 	push	{r4, r5, r6, lr}
    b774:	e3500000 	cmp	r0, #0
    b778:	e2804eff 	add	r4, r0, #4080	; 0xff0
    b77c:	e2415001 	sub	r5, r1, #1
    b780:	e1a02001 	mov	r2, r1
    b784:	e284400f 	add	r4, r4, #15
    b788:	e3a01056 	mov	r1, #86	; 0x56
    b78c:	a1a04000 	movge	r4, r0
    b790:	e1a05625 	lsr	r5, r5, #12
    b794:	eb000392 	bl	c5e4 <memset>
    b798:	e308c774 	movw	ip, #34676	; 0x8774
    b79c:	e2855001 	add	r5, r5, #1
    b7a0:	e1a04644 	asr	r4, r4, #12
    b7a4:	e3a01000 	mov	r1, #0
    b7a8:	e340c002 	movt	ip, #2
    b7ac:	e3a0e001 	mov	lr, #1
    b7b0:	e0813004 	add	r3, r1, r4
    b7b4:	e2811001 	add	r1, r1, #1
    b7b8:	e3530000 	cmp	r3, #0
    b7bc:	e283201f 	add	r2, r3, #31
    b7c0:	a1a02003 	movge	r2, r3
    b7c4:	e203001f 	and	r0, r3, #31
    b7c8:	e2733000 	rsbs	r3, r3, #0
    b7cc:	e1a022c2 	asr	r2, r2, #5
    b7d0:	e203301f 	and	r3, r3, #31
    b7d4:	52630000 	rsbpl	r0, r3, #0
    b7d8:	e79c3102 	ldr	r3, [ip, r2, lsl #2]
    b7dc:	e1550001 	cmp	r5, r1
    b7e0:	e1c3301e 	bic	r3, r3, lr, lsl r0
    b7e4:	e78c3102 	str	r3, [ip, r2, lsl #2]
    b7e8:	cafffff0 	bgt	b7b0 <memory_free+0x40>
    b7ec:	e3a00000 	mov	r0, #0
    b7f0:	e8bd8070 	pop	{r4, r5, r6, pc}

0000b7f4 <memory_get_total>:
    b7f4:	e3083768 	movw	r3, #34664	; 0x8768
    b7f8:	e3403002 	movt	r3, #2
    b7fc:	e5930008 	ldr	r0, [r3, #8]
    b800:	e12fff1e 	bx	lr

0000b804 <memory_hierarchy_init>:
    b804:	e92d4070 	push	{r4, r5, r6, lr}
    b808:	e24dd008 	sub	sp, sp, #8
    b80c:	e1a05000 	mov	r5, r0
    b810:	e28d1004 	add	r1, sp, #4
    b814:	e1a0000d 	mov	r0, sp
    b818:	e3084768 	movw	r4, #34664	; 0x8768
    b81c:	e3404002 	movt	r4, #2
    b820:	ebfff3c9 	bl	874c <hardware_get_memory>
    b824:	e59d6004 	ldr	r6, [sp, #4]
    b828:	e5846008 	str	r6, [r4, #8]
    b82c:	e3560101 	cmp	r6, #1073741824	; 0x40000000
    b830:	8a000041 	bhi	b93c <memory_hierarchy_init+0x138>
    b834:	e30d0948 	movw	r0, #55624	; 0xd948
    b838:	e3a03008 	mov	r3, #8
    b83c:	e1a01a26 	lsr	r1, r6, #20
    b840:	e1a02525 	lsr	r2, r5, #10
    b844:	e3400000 	movt	r0, #0
    b848:	eb000490 	bl	ca90 <printk>
    b84c:	e1b028a6 	lsrs	r2, r6, #17
    b850:	e308e774 	movw	lr, #34676	; 0x8774
    b854:	e340e002 	movt	lr, #2
    b858:	13a01000 	movne	r1, #0
    b85c:	e1a06626 	lsr	r6, r6, #12
    b860:	11a0300e 	movne	r3, lr
    b864:	108e2102 	addne	r2, lr, r2, lsl #2
    b868:	e5846000 	str	r6, [r4]
    b86c:	0a000002 	beq	b87c <memory_hierarchy_init+0x78>
    b870:	e4831004 	str	r1, [r3], #4
    b874:	e1520003 	cmp	r2, r3
    b878:	1afffffc 	bne	b870 <memory_hierarchy_init+0x6c>
    b87c:	e1a00625 	lsr	r0, r5, #12
    b880:	e3a03000 	mov	r3, #0
    b884:	e2800001 	add	r0, r0, #1
    b888:	e3a06001 	mov	r6, #1
    b88c:	e1a0c2c3 	asr	ip, r3, #5
    b890:	e203201f 	and	r2, r3, #31
    b894:	e2833001 	add	r3, r3, #1
    b898:	e79e110c 	ldr	r1, [lr, ip, lsl #2]
    b89c:	e1500003 	cmp	r0, r3
    b8a0:	e1811216 	orr	r1, r1, r6, lsl r2
    b8a4:	e78e110c 	str	r1, [lr, ip, lsl #2]
    b8a8:	1afffff7 	bne	b88c <memory_hierarchy_init+0x88>
    b8ac:	ebfff3a2 	bl	873c <hardware_get_type>
    b8b0:	e3500007 	cmp	r0, #7
    b8b4:	0a000002 	beq	b8c4 <memory_hierarchy_init+0xc0>
    b8b8:	ebfff39f 	bl	873c <hardware_get_type>
    b8bc:	e3500009 	cmp	r0, #9
    b8c0:	1a000008 	bne	b8e8 <memory_hierarchy_init+0xe4>
    b8c4:	e30d0994 	movw	r0, #55700	; 0xd994
    b8c8:	e3400000 	movt	r0, #0
    b8cc:	eb00046f 	bl	ca90 <printk>
    b8d0:	e5941008 	ldr	r1, [r4, #8]
    b8d4:	e1a02005 	mov	r2, r5
    b8d8:	e3a00000 	mov	r0, #0
    b8dc:	eb00001a 	bl	b94c <enable_mmu>
    b8e0:	e28dd008 	add	sp, sp, #8
    b8e4:	e8bd8070 	pop	{r4, r5, r6, pc}
    b8e8:	e30d09c4 	movw	r0, #55748	; 0xd9c4
    b8ec:	e3400000 	movt	r0, #0
    b8f0:	eb000466 	bl	ca90 <printk>
    b8f4:	eb000017 	bl	b958 <enable_l1_icache>
    b8f8:	e30d09d8 	movw	r0, #55768	; 0xd9d8
    b8fc:	e3400000 	movt	r0, #0
    b900:	eb000462 	bl	ca90 <printk>
    b904:	eb000015 	bl	b960 <enable_branch_predictor>
    b908:	e30d0994 	movw	r0, #55700	; 0xd994
    b90c:	e3400000 	movt	r0, #0
    b910:	eb00045e 	bl	ca90 <printk>
    b914:	e5941008 	ldr	r1, [r4, #8]
    b918:	e1a02005 	mov	r2, r5
    b91c:	e3a00000 	mov	r0, #0
    b920:	eb000009 	bl	b94c <enable_mmu>
    b924:	e30d09f4 	movw	r0, #55796	; 0xd9f4
    b928:	e3400000 	movt	r0, #0
    b92c:	eb000457 	bl	ca90 <printk>
    b930:	eb000006 	bl	b950 <enable_l1_dcache>
    b934:	e28dd008 	add	sp, sp, #8
    b938:	e8bd8070 	pop	{r4, r5, r6, pc}
    b93c:	e30d092c 	movw	r0, #55596	; 0xd92c
    b940:	e3400000 	movt	r0, #0
    b944:	eb000451 	bl	ca90 <printk>
    b948:	eaffffd7 	b	b8ac <memory_hierarchy_init+0xa8>

0000b94c <enable_mmu>:
    b94c:	e12fff1e 	bx	lr

0000b950 <enable_l1_dcache>:
    b950:	e12fff1e 	bx	lr

0000b954 <disable_l1_dcache>:
    b954:	e12fff1e 	bx	lr

0000b958 <enable_l1_icache>:
    b958:	e12fff1e 	bx	lr

0000b95c <disable_l1_icache>:
    b95c:	e12fff1e 	bx	lr

0000b960 <enable_branch_predictor>:
    b960:	e12fff1e 	bx	lr

0000b964 <disable_branch_predictor>:
    b964:	e12fff1e 	bx	lr

0000b968 <l1_cache_detect>:
    b968:	e12fff1e 	bx	lr

0000b96c <process_get_totals>:
    b96c:	e3a02000 	mov	r2, #0
    b970:	e3083000 	movw	r3, #32768	; 0x8000
    b974:	e3403003 	movt	r3, #3
    b978:	e1a00002 	mov	r0, r2
    b97c:	e5933000 	ldr	r3, [r3]
    b980:	e5812000 	str	r2, [r1]
    b984:	e5932098 	ldr	r2, [r3, #152]	; 0x98
    b988:	e2800001 	add	r0, r0, #1
    b98c:	e5933084 	ldr	r3, [r3, #132]	; 0x84
    b990:	e3520001 	cmp	r2, #1
    b994:	05912000 	ldreq	r2, [r1]
    b998:	02822001 	addeq	r2, r2, #1
    b99c:	05812000 	streq	r2, [r1]
    b9a0:	e3530000 	cmp	r3, #0
    b9a4:	1afffff6 	bne	b984 <process_get_totals+0x18>
    b9a8:	e12fff1e 	bx	lr

0000b9ac <process_lookup>:
    b9ac:	e3083000 	movw	r3, #32768	; 0x8000
    b9b0:	e1a02000 	mov	r2, r0
    b9b4:	e3403003 	movt	r3, #3
    b9b8:	e5930000 	ldr	r0, [r3]
    b9bc:	e3500000 	cmp	r0, #0
    b9c0:	012fff1e 	bxeq	lr
    b9c4:	e59030a8 	ldr	r3, [r0, #168]	; 0xa8
    b9c8:	e1530002 	cmp	r3, r2
    b9cc:	012fff1e 	bxeq	lr
    b9d0:	e5900084 	ldr	r0, [r0, #132]	; 0x84
    b9d4:	e3500000 	cmp	r0, #0
    b9d8:	1afffff9 	bne	b9c4 <process_lookup+0x18>
    b9dc:	e12fff1e 	bx	lr

0000b9e0 <process_lookup_child>:
    b9e0:	e3082000 	movw	r2, #32768	; 0x8000
    b9e4:	e1a03000 	mov	r3, r0
    b9e8:	e3402003 	movt	r2, #3
    b9ec:	e5920000 	ldr	r0, [r2]
    b9f0:	e3500000 	cmp	r0, #0
    b9f4:	012fff1e 	bxeq	lr
    b9f8:	e1530000 	cmp	r3, r0
    b9fc:	0a000002 	beq	ba0c <process_lookup_child+0x2c>
    ba00:	e59020b0 	ldr	r2, [r0, #176]	; 0xb0
    ba04:	e1520003 	cmp	r2, r3
    ba08:	012fff1e 	bxeq	lr
    ba0c:	e5900084 	ldr	r0, [r0, #132]	; 0x84
    ba10:	e3500000 	cmp	r0, #0
    ba14:	1afffff7 	bne	b9f8 <process_lookup_child+0x18>
    ba18:	e12fff1e 	bx	lr

0000ba1c <process_create>:
    ba1c:	e92d4070 	push	{r4, r5, r6, lr}
    ba20:	e3a00a02 	mov	r0, #8192	; 0x2000
    ba24:	ebffff02 	bl	b634 <memory_allocate>
    ba28:	e2505000 	subs	r5, r0, #0
    ba2c:	0a00002a 	beq	badc <process_create+0xc0>
    ba30:	e3a04000 	mov	r4, #0
    ba34:	e3a02a02 	mov	r2, #8192	; 0x2000
    ba38:	e1a01004 	mov	r1, r4
    ba3c:	eb0002e8 	bl	c5e4 <memset>
    ba40:	e5854094 	str	r4, [r5, #148]	; 0x94
    ba44:	e5854098 	str	r4, [r5, #152]	; 0x98
    ba48:	eb000294 	bl	c4a0 <ticks_since_boot>
    ba4c:	e585009c 	str	r0, [r5, #156]	; 0x9c
    ba50:	e3081000 	movw	r1, #32768	; 0x8000
    ba54:	e3401003 	movt	r1, #3
    ba58:	e2852034 	add	r2, r5, #52	; 0x34
    ba5c:	e58540a4 	str	r4, [r5, #164]	; 0xa4
    ba60:	e5913004 	ldr	r3, [r1, #4]
    ba64:	e58500a0 	str	r0, [r5, #160]	; 0xa0
    ba68:	e58530a8 	str	r3, [r5, #168]	; 0xa8
    ba6c:	e2833001 	add	r3, r3, #1
    ba70:	e5813004 	str	r3, [r1, #4]
    ba74:	e2453004 	sub	r3, r5, #4
    ba78:	e58540b8 	str	r4, [r5, #184]	; 0xb8
    ba7c:	e58540c0 	str	r4, [r5, #192]	; 0xc0
    ba80:	e58540bc 	str	r4, [r5, #188]	; 0xbc
    ba84:	e58540c4 	str	r4, [r5, #196]	; 0xc4
    ba88:	e5a34004 	str	r4, [r3, #4]!
    ba8c:	e1530002 	cmp	r3, r2
    ba90:	1afffffc 	bne	ba88 <process_create+0x6c>
    ba94:	e5913000 	ldr	r3, [r1]
    ba98:	e3a02010 	mov	r2, #16
    ba9c:	e5852040 	str	r2, [r5, #64]	; 0x40
    baa0:	e5854038 	str	r4, [r5, #56]	; 0x38
    baa4:	e3530000 	cmp	r3, #0
    baa8:	05815000 	streq	r5, [r1]
    baac:	05853084 	streq	r3, [r5, #132]	; 0x84
    bab0:	05853088 	streq	r3, [r5, #136]	; 0x88
    bab4:	0a000006 	beq	bad4 <process_create+0xb8>
    bab8:	e1a02003 	mov	r2, r3
    babc:	e5933084 	ldr	r3, [r3, #132]	; 0x84
    bac0:	e3530000 	cmp	r3, #0
    bac4:	1afffffb 	bne	bab8 <process_create+0x9c>
    bac8:	e5825084 	str	r5, [r2, #132]	; 0x84
    bacc:	e5853084 	str	r3, [r5, #132]	; 0x84
    bad0:	e5852088 	str	r2, [r5, #136]	; 0x88
    bad4:	e1a00005 	mov	r0, r5
    bad8:	e8bd8070 	pop	{r4, r5, r6, pc}
    badc:	e30d0a08 	movw	r0, #55816	; 0xda08
    bae0:	e3400000 	movt	r0, #0
    bae4:	eb0003e9 	bl	ca90 <printk>
    bae8:	eafffff9 	b	bad4 <process_create+0xb8>

0000baec <process_destroy>:
    baec:	e92d4070 	push	{r4, r5, r6, lr}
    baf0:	e3085000 	movw	r5, #32768	; 0x8000
    baf4:	e3405003 	movt	r5, #3
    baf8:	e3a02000 	mov	r2, #0
    bafc:	e5802090 	str	r2, [r0, #144]	; 0x90
    bb00:	e1a04000 	mov	r4, r0
    bb04:	e5953000 	ldr	r3, [r5]
    bb08:	e1530002 	cmp	r3, r2
    bb0c:	0a000025 	beq	bba8 <process_destroy+0xbc>
    bb10:	e1500003 	cmp	r0, r3
    bb14:	1a000002 	bne	bb24 <process_destroy+0x38>
    bb18:	ea00001c 	b	bb90 <process_destroy+0xa4>
    bb1c:	e1540003 	cmp	r4, r3
    bb20:	0a000014 	beq	bb78 <process_destroy+0x8c>
    bb24:	e5933084 	ldr	r3, [r3, #132]	; 0x84
    bb28:	e3530000 	cmp	r3, #0
    bb2c:	1afffffa 	bne	bb1c <process_destroy+0x30>
    bb30:	e30d0a6c 	movw	r0, #55916	; 0xda6c
    bb34:	e3400000 	movt	r0, #0
    bb38:	eb0003d4 	bl	ca90 <printk>
    bb3c:	e59400b8 	ldr	r0, [r4, #184]	; 0xb8
    bb40:	e3500000 	cmp	r0, #0
    bb44:	0a000001 	beq	bb50 <process_destroy+0x64>
    bb48:	e59410bc 	ldr	r1, [r4, #188]	; 0xbc
    bb4c:	ebffff07 	bl	b770 <memory_free>
    bb50:	e59400c0 	ldr	r0, [r4, #192]	; 0xc0
    bb54:	e3500000 	cmp	r0, #0
    bb58:	0a000001 	beq	bb64 <process_destroy+0x78>
    bb5c:	e59410c4 	ldr	r1, [r4, #196]	; 0xc4
    bb60:	ebffff02 	bl	b770 <memory_free>
    bb64:	e3a01a02 	mov	r1, #8192	; 0x2000
    bb68:	e1a00004 	mov	r0, r4
    bb6c:	ebfffeff 	bl	b770 <memory_free>
    bb70:	e3a00000 	mov	r0, #0
    bb74:	e8bd8070 	pop	{r4, r5, r6, pc}
    bb78:	e5943084 	ldr	r3, [r4, #132]	; 0x84
    bb7c:	e5942088 	ldr	r2, [r4, #136]	; 0x88
    bb80:	e3530000 	cmp	r3, #0
    bb84:	e5823084 	str	r3, [r2, #132]	; 0x84
    bb88:	15832088 	strne	r2, [r3, #136]	; 0x88
    bb8c:	eaffffea 	b	bb3c <process_destroy+0x50>
    bb90:	e30d0a50 	movw	r0, #55888	; 0xda50
    bb94:	e3400000 	movt	r0, #0
    bb98:	eb0003bc 	bl	ca90 <printk>
    bb9c:	e5943084 	ldr	r3, [r4, #132]	; 0x84
    bba0:	e5853000 	str	r3, [r5]
    bba4:	eaffffe4 	b	bb3c <process_destroy+0x50>
    bba8:	e30d0a28 	movw	r0, #55848	; 0xda28
    bbac:	e3400000 	movt	r0, #0
    bbb0:	eb0003b6 	bl	ca90 <printk>
    bbb4:	eaffffe0 	b	bb3c <process_destroy+0x50>

0000bbb8 <process_save>:
    bbb8:	e2800044 	add	r0, r0, #68	; 0x44
    bbbc:	e1a02000 	mov	r2, r0
    bbc0:	e8827fff 	stm	r2, {r0, r1, r2, r3, r4, r5, r6, r7, r8, r9, sl, fp, ip, sp, lr}
    bbc4:	e2822034 	add	r2, r2, #52	; 0x34
    bbc8:	e5821000 	str	r1, [r2]
    bbcc:	e2822008 	add	r2, r2, #8
    bbd0:	e14f0000 	mrs	r0, SPSR
    bbd4:	e8820001 	stm	r2, {r0}
    bbd8:	e12fff1e 	bx	lr

0000bbdc <process_switch>:
    bbdc:	e2800044 	add	r0, r0, #68	; 0x44
    bbe0:	e1a02000 	mov	r2, r0
    bbe4:	e8827fff 	stm	r2, {r0, r1, r2, r3, r4, r5, r6, r7, r8, r9, sl, fp, ip, sp, lr}
    bbe8:	e282203c 	add	r2, r2, #60	; 0x3c
    bbec:	e14f0000 	mrs	r0, SPSR
    bbf0:	e8820001 	stm	r2, {r0}
    bbf4:	e3083000 	movw	r3, #32768	; 0x8000
    bbf8:	e2812044 	add	r2, r1, #68	; 0x44
    bbfc:	e3403003 	movt	r3, #3
    bc00:	e5831008 	str	r1, [r3, #8]
    bc04:	e1a02002 	mov	r2, r2
    bc08:	e592003c 	ldr	r0, [r2, #60]	; 0x3c
    bc0c:	e169f000 	msr	SPSR_fc, r0
    bc10:	e8927fff 	ldm	r2, {r0, r1, r2, r3, r4, r5, r6, r7, r8, r9, sl, fp, ip, sp, lr}
    bc14:	e1a0f00e 	mov	pc, lr
    bc18:	e3a00000 	mov	r0, #0
    bc1c:	e12fff1e 	bx	lr

0000bc20 <execve>:
    bc20:	e92d4ff0 	push	{r4, r5, r6, r7, r8, r9, sl, fp, lr}
    bc24:	e24dd04c 	sub	sp, sp, #76	; 0x4c
    bc28:	e1a04000 	mov	r4, r0
    bc2c:	e1a06001 	mov	r6, r1
    bc30:	ebfff81c 	bl	9ca8 <get_inode>
    bc34:	e2505000 	subs	r5, r0, #0
    bc38:	ba000064 	blt	bdd0 <execve+0x1b0>
    bc3c:	e28d1014 	add	r1, sp, #20
    bc40:	ebfff8f6 	bl	a020 <romfs_stat>
    bc44:	e3500000 	cmp	r0, #0
    bc48:	b1a05000 	movlt	r5, r0
    bc4c:	ba00005f 	blt	bdd0 <execve+0x1b0>
    bc50:	e59d7030 	ldr	r7, [sp, #48]	; 0x30
    bc54:	e58d7004 	str	r7, [sp, #4]
    bc58:	e1a00007 	mov	r0, r7
    bc5c:	ebfffe74 	bl	b634 <memory_allocate>
    bc60:	e58d0008 	str	r0, [sp, #8]
    bc64:	e1a08000 	mov	r8, r0
    bc68:	e3a00a02 	mov	r0, #8192	; 0x2000
    bc6c:	ebfffe70 	bl	b634 <memory_allocate>
    bc70:	e3500000 	cmp	r0, #0
    bc74:	13580000 	cmpne	r8, #0
    bc78:	e1a02008 	mov	r2, r8
    bc7c:	e58d0000 	str	r0, [sp]
    bc80:	03a08001 	moveq	r8, #1
    bc84:	13a08000 	movne	r8, #0
    bc88:	0a00005f 	beq	be0c <execve+0x1ec>
    bc8c:	e308a008 	movw	sl, #32776	; 0x8008
    bc90:	e1a03007 	mov	r3, r7
    bc94:	e340a003 	movt	sl, #3
    bc98:	e1a01008 	mov	r1, r8
    bc9c:	e1a00005 	mov	r0, r5
    bca0:	ebfff9b1 	bl	a36c <romfs_read_file>
    bca4:	e59a0000 	ldr	r0, [sl]
    bca8:	e1a01004 	mov	r1, r4
    bcac:	e3a02020 	mov	r2, #32
    bcb0:	e28000c8 	add	r0, r0, #200	; 0xc8
    bcb4:	eb0003df 	bl	cc38 <strlcpy>
    bcb8:	e3560000 	cmp	r6, #0
    bcbc:	0a000046 	beq	bddc <execve+0x1bc>
    bcc0:	e5960000 	ldr	r0, [r6]
    bcc4:	e3500000 	cmp	r0, #0
    bcc8:	0a000049 	beq	bdf4 <execve+0x1d4>
    bccc:	e1a05008 	mov	r5, r8
    bcd0:	e1a03006 	mov	r3, r6
    bcd4:	e5b32004 	ldr	r2, [r3, #4]!
    bcd8:	e1a01005 	mov	r1, r5
    bcdc:	e2855001 	add	r5, r5, #1
    bce0:	e3520000 	cmp	r2, #0
    bce4:	e1a08005 	mov	r8, r5
    bce8:	1afffff9 	bne	bcd4 <execve+0xb4>
    bcec:	e2819002 	add	r9, r1, #2
    bcf0:	e1a01101 	lsl	r1, r1, #2
    bcf4:	e1a09109 	lsl	r9, r9, #2
    bcf8:	e281400c 	add	r4, r1, #12
    bcfc:	e7963001 	ldr	r3, [r6, r1]
    bd00:	e2899001 	add	r9, r9, #1
    bd04:	e043b000 	sub	fp, r3, r0
    bd08:	e3a00000 	mov	r0, #0
    bd0c:	eb000409 	bl	cd38 <strlen>
    bd10:	e0899000 	add	r9, r9, r0
    bd14:	e3a02000 	mov	r2, #0
    bd18:	e089000b 	add	r0, r9, fp
    bd1c:	e1500002 	cmp	r0, r2
    bd20:	e2803007 	add	r3, r0, #7
    bd24:	e59d1000 	ldr	r1, [sp]
    bd28:	a1a03000 	movge	r3, r0
    bd2c:	e3c33007 	bic	r3, r3, #7
    bd30:	e1550002 	cmp	r5, r2
    bd34:	e2633d7f 	rsb	r3, r3, #8128	; 0x1fc0
    bd38:	e2833038 	add	r3, r3, #56	; 0x38
    bd3c:	e0813003 	add	r3, r1, r3
    bd40:	e58d300c 	str	r3, [sp, #12]
    bd44:	e7c32004 	strb	r2, [r3, r4]
    bd48:	e0834004 	add	r4, r3, r4
    bd4c:	0a000011 	beq	bd98 <execve+0x178>
    bd50:	e2466004 	sub	r6, r6, #4
    bd54:	e1a0b003 	mov	fp, r3
    bd58:	e0839105 	add	r9, r3, r5, lsl #2
    bd5c:	e5b67004 	ldr	r7, [r6, #4]!
    bd60:	e48b4004 	str	r4, [fp], #4
    bd64:	e1a00007 	mov	r0, r7
    bd68:	eb0003f2 	bl	cd38 <strlen>
    bd6c:	e2802001 	add	r2, r0, #1
    bd70:	e1a01007 	mov	r1, r7
    bd74:	e1a00004 	mov	r0, r4
    bd78:	eb000397 	bl	cbdc <strncpy>
    bd7c:	e1a04000 	mov	r4, r0
    bd80:	e5960000 	ldr	r0, [r6]
    bd84:	eb0003eb 	bl	cd38 <strlen>
    bd88:	e159000b 	cmp	r9, fp
    bd8c:	e2800001 	add	r0, r0, #1
    bd90:	e0844000 	add	r4, r4, r0
    bd94:	1afffff0 	bne	bd5c <execve+0x13c>
    bd98:	e59a3000 	ldr	r3, [sl]
    bd9c:	e59d2000 	ldr	r2, [sp]
    bda0:	e5838000 	str	r8, [r3]
    bda4:	e58320b8 	str	r2, [r3, #184]	; 0xb8
    bda8:	e59d200c 	ldr	r2, [sp, #12]
    bdac:	e5832034 	str	r2, [r3, #52]	; 0x34
    bdb0:	e5832004 	str	r2, [r3, #4]
    bdb4:	e59d2008 	ldr	r2, [sp, #8]
    bdb8:	e583203c 	str	r2, [r3, #60]	; 0x3c
    bdbc:	e58320c0 	str	r2, [r3, #192]	; 0xc0
    bdc0:	e59d2004 	ldr	r2, [sp, #4]
    bdc4:	e58320c4 	str	r2, [r3, #196]	; 0xc4
    bdc8:	e3a02a02 	mov	r2, #8192	; 0x2000
    bdcc:	e58320bc 	str	r2, [r3, #188]	; 0xbc
    bdd0:	e1a00005 	mov	r0, r5
    bdd4:	e28dd04c 	add	sp, sp, #76	; 0x4c
    bdd8:	e8bd8ff0 	pop	{r4, r5, r6, r7, r8, r9, sl, fp, pc}
    bddc:	e59d3000 	ldr	r3, [sp]
    bde0:	e1a08006 	mov	r8, r6
    bde4:	e1a05006 	mov	r5, r6
    bde8:	e2833a02 	add	r3, r3, #8192	; 0x2000
    bdec:	e58d300c 	str	r3, [sp, #12]
    bdf0:	eaffffe8 	b	bd98 <execve+0x178>
    bdf4:	e1a08000 	mov	r8, r0
    bdf8:	e3a04008 	mov	r4, #8
    bdfc:	e3e01003 	mvn	r1, #3
    be00:	e3a09004 	mov	r9, #4
    be04:	e1a05000 	mov	r5, r0
    be08:	eaffffbb 	b	bcfc <execve+0xdc>
    be0c:	e3e0500b 	mvn	r5, #11
    be10:	eaffffee 	b	bdd0 <execve+0x1b0>

0000be14 <idle_task>:
    be14:	e320f003 	wfi
    be18:	eafffffd 	b	be14 <idle_task>

0000be1c <create_idle_task>:
    be1c:	e92d4070 	push	{r4, r5, r6, lr}
    be20:	ebfffefd 	bl	ba1c <process_create>
    be24:	e30b3e14 	movw	r3, #48660	; 0xbe14
    be28:	e3a02000 	mov	r2, #0
    be2c:	e3403000 	movt	r3, #0
    be30:	e3a05001 	mov	r5, #1
    be34:	e58020a4 	str	r2, [r0, #164]	; 0xa4
    be38:	e1a04000 	mov	r4, r0
    be3c:	e58030c0 	str	r3, [r0, #192]	; 0xc0
    be40:	e580303c 	str	r3, [r0, #60]	; 0x3c
    be44:	e5805094 	str	r5, [r0, #148]	; 0x94
    be48:	eb000194 	bl	c4a0 <ticks_since_boot>
    be4c:	e1a03000 	mov	r3, r0
    be50:	e3a00a01 	mov	r0, #4096	; 0x1000
    be54:	e584309c 	str	r3, [r4, #156]	; 0x9c
    be58:	e58430a0 	str	r3, [r4, #160]	; 0xa0
    be5c:	ebfffdf4 	bl	b634 <memory_allocate>
    be60:	e58400b8 	str	r0, [r4, #184]	; 0xb8
    be64:	e30d1a98 	movw	r1, #55960	; 0xda98
    be68:	e3401000 	movt	r1, #0
    be6c:	e2800a01 	add	r0, r0, #4096	; 0x1000
    be70:	e5840034 	str	r0, [r4, #52]	; 0x34
    be74:	e3a02005 	mov	r2, #5
    be78:	e28400c8 	add	r0, r4, #200	; 0xc8
    be7c:	eb000356 	bl	cbdc <strncpy>
    be80:	e59410a8 	ldr	r1, [r4, #168]	; 0xa8
    be84:	e30b3f64 	movw	r3, #48996	; 0xbf64
    be88:	e3403000 	movt	r3, #0
    be8c:	e30d0aa0 	movw	r0, #55968	; 0xdaa0
    be90:	e584307c 	str	r3, [r4, #124]	; 0x7c
    be94:	e5845098 	str	r5, [r4, #152]	; 0x98
    be98:	e3400000 	movt	r0, #0
    be9c:	e8bd4070 	pop	{r4, r5, r6, lr}
    bea0:	ea0002fa 	b	ca90 <printk>

0000bea4 <schedule>:
    bea4:	e92d4070 	push	{r4, r5, r6, lr}
    bea8:	e3083000 	movw	r3, #32768	; 0x8000
    beac:	e3403003 	movt	r3, #3
    beb0:	e3085008 	movw	r5, #32776	; 0x8008
    beb4:	e3405003 	movt	r5, #3
    beb8:	e5934000 	ldr	r4, [r3]
    bebc:	e5950000 	ldr	r0, [r5]
    bec0:	e1540000 	cmp	r4, r0
    bec4:	0a00001e 	beq	bf44 <schedule+0xa0>
    bec8:	e1a03000 	mov	r3, r0
    becc:	ea000004 	b	bee4 <schedule+0x40>
    bed0:	e5932098 	ldr	r2, [r3, #152]	; 0x98
    bed4:	e3520001 	cmp	r2, #1
    bed8:	0a000017 	beq	bf3c <schedule+0x98>
    bedc:	e1530000 	cmp	r3, r0
    bee0:	0a000005 	beq	befc <schedule+0x58>
    bee4:	e5933084 	ldr	r3, [r3, #132]	; 0x84
    bee8:	e3530000 	cmp	r3, #0
    beec:	1afffff7 	bne	bed0 <schedule+0x2c>
    bef0:	e5943084 	ldr	r3, [r4, #132]	; 0x84
    bef4:	e3530000 	cmp	r3, #0
    bef8:	1afffff4 	bne	bed0 <schedule+0x2c>
    befc:	eb000167 	bl	c4a0 <ticks_since_boot>
    bf00:	e5952000 	ldr	r2, [r5]
    bf04:	e59230a4 	ldr	r3, [r2, #164]	; 0xa4
    bf08:	e59210a0 	ldr	r1, [r2, #160]	; 0xa0
    bf0c:	e0433001 	sub	r3, r3, r1
    bf10:	e0833000 	add	r3, r3, r0
    bf14:	e58230a4 	str	r3, [r2, #164]	; 0xa4
    bf18:	eb000160 	bl	c4a0 <ticks_since_boot>
    bf1c:	e5953000 	ldr	r3, [r5]
    bf20:	e58400a0 	str	r0, [r4, #160]	; 0xa0
    bf24:	e1530004 	cmp	r3, r4
    bf28:	08bd8070 	popeq	{r4, r5, r6, pc}
    bf2c:	e1a01004 	mov	r1, r4
    bf30:	e1a00003 	mov	r0, r3
    bf34:	e8bd4070 	pop	{r4, r5, r6, lr}
    bf38:	eaffff27 	b	bbdc <process_switch>
    bf3c:	e1a04003 	mov	r4, r3
    bf40:	eaffffed 	b	befc <schedule+0x58>
    bf44:	e5940084 	ldr	r0, [r4, #132]	; 0x84
    bf48:	e3500000 	cmp	r0, #0
    bf4c:	1affffdd 	bne	bec8 <schedule+0x24>
    bf50:	e8bd8070 	pop	{r4, r5, r6, pc}

0000bf54 <sched_yield>:
    bf54:	e92d4010 	push	{r4, lr}
    bf58:	ebffffd1 	bl	bea4 <schedule>
    bf5c:	e3a00000 	mov	r0, #0
    bf60:	e8bd8010 	pop	{r4, pc}

0000bf64 <enter_userspace>:
    bf64:	e3083008 	movw	r3, #32776	; 0x8008
    bf68:	e3403003 	movt	r3, #3
    bf6c:	e52de004 	push	{lr}		; (str lr, [sp, #-4]!)
    bf70:	e5933000 	ldr	r3, [r3]
    bf74:	e593303c 	ldr	r3, [r3, #60]	; 0x3c
    bf78:	e1a0e003 	mov	lr, r3
    bf7c:	e59fd0ac 	ldr	sp, [pc, #172]	; c030 <start_userspace+0x9c>
    bf80:	e59dd000 	ldr	sp, [sp]
    bf84:	e3a00010 	mov	r0, #16
    bf88:	e16ff000 	msr	SPSR_fsxc, r0
    bf8c:	e1b0f00e 	movs	pc, lr
    bf90:	e49df004 	pop	{pc}		; (ldr pc, [sp], #4)

0000bf94 <start_userspace>:
    bf94:	e92d48f0 	push	{r4, r5, r6, r7, fp, lr}
    bf98:	e28db014 	add	fp, sp, #20
    bf9c:	e1a06000 	mov	r6, r0
    bfa0:	ebfffe9d 	bl	ba1c <process_create>
    bfa4:	e1a04000 	mov	r4, r0
    bfa8:	e3085008 	movw	r5, #32776	; 0x8008
    bfac:	e3405003 	movt	r5, #3
    bfb0:	e30d0064 	movw	r0, #53348	; 0xd064
    bfb4:	e3400000 	movt	r0, #0
    bfb8:	e58440b0 	str	r4, [r4, #176]	; 0xb0
    bfbc:	e5854000 	str	r4, [r5]
    bfc0:	ebfff738 	bl	9ca8 <get_inode>
    bfc4:	e58400b4 	str	r0, [r4, #180]	; 0xb4
    bfc8:	e3a02000 	mov	r2, #0
    bfcc:	e1a01002 	mov	r1, r2
    bfd0:	e1a00006 	mov	r0, r6
    bfd4:	ebffff11 	bl	bc20 <execve>
    bfd8:	e3500000 	cmp	r0, #0
    bfdc:	b8bd88f0 	poplt	{r4, r5, r6, r7, fp, pc}
    bfe0:	e59410a8 	ldr	r1, [r4, #168]	; 0xa8
    bfe4:	e30d0abc 	movw	r0, #55996	; 0xdabc
    bfe8:	e3400000 	movt	r0, #0
    bfec:	e28420c8 	add	r2, r4, #200	; 0xc8
    bff0:	eb0002a6 	bl	ca90 <printk>
    bff4:	e3a03001 	mov	r3, #1
    bff8:	e5843098 	str	r3, [r4, #152]	; 0x98
    bffc:	e5943034 	ldr	r3, [r4, #52]	; 0x34
    c000:	e321f0df 	msr	CPSR_c, #223	; 0xdf
    c004:	e1a0d003 	mov	sp, r3
    c008:	e321f0d3 	msr	CPSR_c, #211	; 0xd3
    c00c:	e5953000 	ldr	r3, [r5]
    c010:	e593303c 	ldr	r3, [r3, #60]	; 0x3c
    c014:	e1a0e003 	mov	lr, r3
    c018:	e59fd010 	ldr	sp, [pc, #16]	; c030 <start_userspace+0x9c>
    c01c:	e59dd000 	ldr	sp, [sp]
    c020:	e3a00010 	mov	r0, #16
    c024:	e16ff000 	msr	SPSR_fsxc, r0
    c028:	e1b0f00e 	movs	pc, lr
    c02c:	e8bd88f0 	pop	{r4, r5, r6, r7, fp, pc}
    c030:	00038008 	andeq	r8, r3, r8

0000c034 <vfork>:
    c034:	e92d47f0 	push	{r4, r5, r6, r7, r8, r9, sl, lr}
    c038:	e59f8090 	ldr	r8, [pc, #144]	; c0d0 <vfork+0x9c>
    c03c:	e5985000 	ldr	r5, [r8]
    c040:	ebfffe75 	bl	ba1c <process_create>
    c044:	e2504000 	subs	r4, r0, #0
    c048:	0a00001c 	beq	c0c0 <vfork+0x8c>
    c04c:	e3a02a02 	mov	r2, #8192	; 0x2000
    c050:	e1a01005 	mov	r1, r5
    c054:	e3a06000 	mov	r6, #0
    c058:	e59470a8 	ldr	r7, [r4, #168]	; 0xa8
    c05c:	e594a088 	ldr	sl, [r4, #136]	; 0x88
    c060:	e5949084 	ldr	r9, [r4, #132]	; 0x84
    c064:	eb000111 	bl	c4b0 <memcpy>
    c068:	e3a03001 	mov	r3, #1
    c06c:	e04d1005 	sub	r1, sp, r5
    c070:	e58470a8 	str	r7, [r4, #168]	; 0xa8
    c074:	e584a088 	str	sl, [r4, #136]	; 0x88
    c078:	e5849084 	str	r9, [r4, #132]	; 0x84
    c07c:	e58450b0 	str	r5, [r4, #176]	; 0xb0
    c080:	e58460b8 	str	r6, [r4, #184]	; 0xb8
    c084:	e58460c0 	str	r6, [r4, #192]	; 0xc0
    c088:	e1a00004 	mov	r0, r4
    c08c:	e5856098 	str	r6, [r5, #152]	; 0x98
    c090:	e0841001 	add	r1, r4, r1
    c094:	e5843098 	str	r3, [r4, #152]	; 0x98
    c098:	ebfffec6 	bl	bbb8 <process_save>
    c09c:	e5983000 	ldr	r3, [r8]
    c0a0:	e1530005 	cmp	r3, r5
    c0a4:	11a07006 	movne	r7, r6
    c0a8:	0a000001 	beq	c0b4 <vfork+0x80>
    c0ac:	e1a00007 	mov	r0, r7
    c0b0:	e8bd87f0 	pop	{r4, r5, r6, r7, r8, r9, sl, pc}
    c0b4:	ebffff7a 	bl	bea4 <schedule>
    c0b8:	e1a00007 	mov	r0, r7
    c0bc:	e8bd87f0 	pop	{r4, r5, r6, r7, r8, r9, sl, pc}
    c0c0:	e59f000c 	ldr	r0, [pc, #12]	; c0d4 <vfork+0xa0>
    c0c4:	eb000271 	bl	ca90 <printk>
    c0c8:	e3e07000 	mvn	r7, #0
    c0cc:	eafffff6 	b	c0ac <vfork+0x78>
    c0d0:	00038008 	andeq	r8, r3, r8
    c0d4:	0000daf0 	strdeq	sp, [r0], -r0

0000c0d8 <waitpid_done>:
    c0d8:	e92d4010 	push	{r4, lr}
    c0dc:	e59f0008 	ldr	r0, [pc, #8]	; c0ec <waitpid_done+0x14>
    c0e0:	eb00004c 	bl	c218 <wait_queue_wake>
    c0e4:	e3a00000 	mov	r0, #0
    c0e8:	e8bd8010 	pop	{r4, pc}
    c0ec:	00038010 	andeq	r8, r3, r0, lsl r0

0000c0f0 <waitpid>:
    c0f0:	e3700001 	cmn	r0, #1
    c0f4:	e92d41f0 	push	{r4, r5, r6, r7, r8, lr}
    c0f8:	e1a05000 	mov	r5, r0
    c0fc:	e1a08001 	mov	r8, r1
    c100:	e1a06002 	mov	r6, r2
    c104:	0a000022 	beq	c194 <waitpid+0xa4>
    c108:	e3500000 	cmp	r0, #0
    c10c:	ba000026 	blt	c1ac <waitpid+0xbc>
    c110:	ebfffe25 	bl	b9ac <process_lookup>
    c114:	e1a04000 	mov	r4, r0
    c118:	e3560001 	cmp	r6, #1
    c11c:	e5943098 	ldr	r3, [r4, #152]	; 0x98
    c120:	0a000010 	beq	c168 <waitpid+0x78>
    c124:	e3530002 	cmp	r3, #2
    c128:	0a000007 	beq	c14c <waitpid+0x5c>
    c12c:	e59f708c 	ldr	r7, [pc, #140]	; c1c0 <waitpid+0xd0>
    c130:	e59f608c 	ldr	r6, [pc, #140]	; c1c4 <waitpid+0xd4>
    c134:	e1a00006 	mov	r0, r6
    c138:	e5971000 	ldr	r1, [r7]
    c13c:	eb000022 	bl	c1cc <wait_queue_add>
    c140:	e5943098 	ldr	r3, [r4, #152]	; 0x98
    c144:	e3530002 	cmp	r3, #2
    c148:	1afffff9 	bne	c134 <waitpid+0x44>
    c14c:	e3580000 	cmp	r8, #0
    c150:	159430ac 	ldrne	r3, [r4, #172]	; 0xac
    c154:	e1a00004 	mov	r0, r4
    c158:	15883000 	strne	r3, [r8]
    c15c:	ebfffe62 	bl	baec <process_destroy>
    c160:	e1a00005 	mov	r0, r5
    c164:	e8bd81f0 	pop	{r4, r5, r6, r7, r8, pc}
    c168:	e3530002 	cmp	r3, #2
    c16c:	13a05000 	movne	r5, #0
    c170:	1afffffa 	bne	c160 <waitpid+0x70>
    c174:	e3580000 	cmp	r8, #0
    c178:	159430ac 	ldrne	r3, [r4, #172]	; 0xac
    c17c:	e1a00004 	mov	r0, r4
    c180:	15883000 	strne	r3, [r8]
    c184:	e59450a8 	ldr	r5, [r4, #168]	; 0xa8
    c188:	ebfffe57 	bl	baec <process_destroy>
    c18c:	e1a00005 	mov	r0, r5
    c190:	e8bd81f0 	pop	{r4, r5, r6, r7, r8, pc}
    c194:	e1a00003 	mov	r0, r3
    c198:	ebfffe10 	bl	b9e0 <process_lookup_child>
    c19c:	e2504000 	subs	r4, r0, #0
    c1a0:	1affffdc 	bne	c118 <waitpid+0x28>
    c1a4:	e3e05009 	mvn	r5, #9
    c1a8:	eaffffec 	b	c160 <waitpid+0x70>
    c1ac:	e1a01000 	mov	r1, r0
    c1b0:	e59f0010 	ldr	r0, [pc, #16]	; c1c8 <waitpid+0xd8>
    c1b4:	eb000235 	bl	ca90 <printk>
    c1b8:	e3e05012 	mvn	r5, #18
    c1bc:	eaffffe7 	b	c160 <waitpid+0x70>
    c1c0:	00038008 	andeq	r8, r3, r8
    c1c4:	00038010 	andeq	r8, r3, r0, lsl r0
    c1c8:	0000db08 	andeq	sp, r0, r8, lsl #22

0000c1cc <wait_queue_add>:
    c1cc:	e5903000 	ldr	r3, [r0]
    c1d0:	e92d4010 	push	{r4, lr}
    c1d4:	e3530000 	cmp	r3, #0
    c1d8:	05801000 	streq	r1, [r0]
    c1dc:	1a000004 	bne	c1f4 <wait_queue_add+0x28>
    c1e0:	ea000005 	b	c1fc <wait_queue_add+0x30>
    c1e4:	e593208c 	ldr	r2, [r3, #140]	; 0x8c
    c1e8:	e3520000 	cmp	r2, #0
    c1ec:	0a000007 	beq	c210 <wait_queue_add+0x44>
    c1f0:	e1a03002 	mov	r3, r2
    c1f4:	e1530001 	cmp	r3, r1
    c1f8:	1afffff9 	bne	c1e4 <wait_queue_add+0x18>
    c1fc:	e3a04000 	mov	r4, #0
    c200:	e5814098 	str	r4, [r1, #152]	; 0x98
    c204:	ebffff26 	bl	bea4 <schedule>
    c208:	e1a00004 	mov	r0, r4
    c20c:	e8bd8010 	pop	{r4, pc}
    c210:	e583108c 	str	r1, [r3, #140]	; 0x8c
    c214:	eafffff8 	b	c1fc <wait_queue_add+0x30>

0000c218 <wait_queue_wake>:
    c218:	e5903000 	ldr	r3, [r0]
    c21c:	e52de004 	push	{lr}		; (str lr, [sp, #-4]!)
    c220:	e3530000 	cmp	r3, #0
    c224:	e1a0e000 	mov	lr, r0
    c228:	0a000007 	beq	c24c <wait_queue_wake+0x34>
    c22c:	e3a0c001 	mov	ip, #1
    c230:	e3a01000 	mov	r1, #0
    c234:	e1a02003 	mov	r2, r3
    c238:	e583c098 	str	ip, [r3, #152]	; 0x98
    c23c:	e593308c 	ldr	r3, [r3, #140]	; 0x8c
    c240:	e582108c 	str	r1, [r2, #140]	; 0x8c
    c244:	e3530000 	cmp	r3, #0
    c248:	1afffff9 	bne	c234 <wait_queue_wake+0x1c>
    c24c:	e3a00000 	mov	r0, #0
    c250:	e58e0000 	str	r0, [lr]
    c254:	e49df004 	pop	{pc}		; (ldr pc, [sp], #4)

0000c258 <dump_saved_user_state>:
    c258:	e92d47f0 	push	{r4, r5, r6, r7, r8, r9, sl, lr}
    c25c:	e1a04000 	mov	r4, r0
    c260:	e30d0b38 	movw	r0, #56120	; 0xdb38
    c264:	e28420c8 	add	r2, r4, #200	; 0xc8
    c268:	e59410a8 	ldr	r1, [r4, #168]	; 0xa8
    c26c:	e30d9b70 	movw	r9, #56176	; 0xdb70
    c270:	e3400000 	movt	r0, #0
    c274:	e30d8aec 	movw	r8, #56044	; 0xdaec
    c278:	e3409000 	movt	r9, #0
    c27c:	eb000203 	bl	ca90 <printk>
    c280:	e594103c 	ldr	r1, [r4, #60]	; 0x3c
    c284:	e30d0b50 	movw	r0, #56144	; 0xdb50
    c288:	e5942040 	ldr	r2, [r4, #64]	; 0x40
    c28c:	e30d7b64 	movw	r7, #56164	; 0xdb64
    c290:	e3400000 	movt	r0, #0
    c294:	e3a05000 	mov	r5, #0
    c298:	e3408000 	movt	r8, #0
    c29c:	eb0001fb 	bl	ca90 <printk>
    c2a0:	e3407000 	movt	r7, #0
    c2a4:	e30d0b64 	movw	r0, #56164	; 0xdb64
    c2a8:	e4942004 	ldr	r2, [r4], #4
    c2ac:	e3a01000 	mov	r1, #0
    c2b0:	e3400000 	movt	r0, #0
    c2b4:	eb0001f5 	bl	ca90 <printk>
    c2b8:	e594201c 	ldr	r2, [r4, #28]
    c2bc:	e2851008 	add	r1, r5, #8
    c2c0:	e1a00009 	mov	r0, r9
    c2c4:	e2855001 	add	r5, r5, #1
    c2c8:	e2844004 	add	r4, r4, #4
    c2cc:	eb0001ef 	bl	ca90 <printk>
    c2d0:	e1a00008 	mov	r0, r8
    c2d4:	eb0001ed 	bl	ca90 <printk>
    c2d8:	e5142004 	ldr	r2, [r4, #-4]
    c2dc:	e1a01005 	mov	r1, r5
    c2e0:	e1a00007 	mov	r0, r7
    c2e4:	eb0001e9 	bl	ca90 <printk>
    c2e8:	e3550007 	cmp	r5, #7
    c2ec:	1afffff1 	bne	c2b8 <dump_saved_user_state+0x60>
    c2f0:	e30d0aec 	movw	r0, #56044	; 0xdaec
    c2f4:	e8bd47f0 	pop	{r4, r5, r6, r7, r8, r9, sl, lr}
    c2f8:	e3400000 	movt	r0, #0
    c2fc:	ea0001e3 	b	ca90 <printk>

0000c300 <dump_saved_kernel_state>:
    c300:	e92d47f0 	push	{r4, r5, r6, r7, r8, r9, sl, lr}
    c304:	e1a05000 	mov	r5, r0
    c308:	e30d0b78 	movw	r0, #56184	; 0xdb78
    c30c:	e28520c8 	add	r2, r5, #200	; 0xc8
    c310:	e59510a8 	ldr	r1, [r5, #168]	; 0xa8
    c314:	e30d9b70 	movw	r9, #56176	; 0xdb70
    c318:	e3400000 	movt	r0, #0
    c31c:	e30d8aec 	movw	r8, #56044	; 0xdaec
    c320:	e3409000 	movt	r9, #0
    c324:	eb0001d9 	bl	ca90 <printk>
    c328:	e3408000 	movt	r8, #0
    c32c:	e30d0b64 	movw	r0, #56164	; 0xdb64
    c330:	e5952044 	ldr	r2, [r5, #68]	; 0x44
    c334:	e30d7b64 	movw	r7, #56164	; 0xdb64
    c338:	e3400000 	movt	r0, #0
    c33c:	e3a01000 	mov	r1, #0
    c340:	e3407000 	movt	r7, #0
    c344:	e2855048 	add	r5, r5, #72	; 0x48
    c348:	e3a04000 	mov	r4, #0
    c34c:	eb0001cf 	bl	ca90 <printk>
    c350:	e595201c 	ldr	r2, [r5, #28]
    c354:	e2841008 	add	r1, r4, #8
    c358:	e1a00009 	mov	r0, r9
    c35c:	e2844001 	add	r4, r4, #1
    c360:	e2855004 	add	r5, r5, #4
    c364:	eb0001c9 	bl	ca90 <printk>
    c368:	e1a00008 	mov	r0, r8
    c36c:	eb0001c7 	bl	ca90 <printk>
    c370:	e5152004 	ldr	r2, [r5, #-4]
    c374:	e1a01004 	mov	r1, r4
    c378:	e1a00007 	mov	r0, r7
    c37c:	eb0001c3 	bl	ca90 <printk>
    c380:	e3540007 	cmp	r4, #7
    c384:	1afffff1 	bne	c350 <dump_saved_kernel_state+0x50>
    c388:	e30d0aec 	movw	r0, #56044	; 0xdaec
    c38c:	e8bd47f0 	pop	{r4, r5, r6, r7, r8, r9, sl, lr}
    c390:	e3400000 	movt	r0, #0
    c394:	ea0001bd 	b	ca90 <printk>

0000c398 <dump_kernel_regs>:
    c398:	e30d0b8c 	movw	r0, #56204	; 0xdb8c
    c39c:	e1a0100e 	mov	r1, lr
    c3a0:	e92d4ff0 	push	{r4, r5, r6, r7, r8, r9, sl, fp, lr}
    c3a4:	e24dd00c 	sub	sp, sp, #12
    c3a8:	e3400000 	movt	r0, #0
    c3ac:	e1a0b00e 	mov	fp, lr
    c3b0:	eb0001b6 	bl	ca90 <printk>
    c3b4:	e58d3000 	str	r3, [sp]
    c3b8:	e1a0c000 	mov	ip, r0
    c3bc:	e1a0e002 	mov	lr, r2
    c3c0:	e30d0bac 	movw	r0, #56236	; 0xdbac
    c3c4:	e3400000 	movt	r0, #0
    c3c8:	e1a0300e 	mov	r3, lr
    c3cc:	e1a02001 	mov	r2, r1
    c3d0:	e1a0100c 	mov	r1, ip
    c3d4:	eb0001ad 	bl	ca90 <printk>
    c3d8:	e58d7000 	str	r7, [sp]
    c3dc:	e30d0bcc 	movw	r0, #56268	; 0xdbcc
    c3e0:	e3400000 	movt	r0, #0
    c3e4:	e1a01004 	mov	r1, r4
    c3e8:	e1a02005 	mov	r2, r5
    c3ec:	e1a03006 	mov	r3, r6
    c3f0:	eb0001a6 	bl	ca90 <printk>
    c3f4:	e58db000 	str	fp, [sp]
    c3f8:	e30d0bec 	movw	r0, #56300	; 0xdbec
    c3fc:	e3400000 	movt	r0, #0
    c400:	e1a01008 	mov	r1, r8
    c404:	e1a02009 	mov	r2, r9
    c408:	e1a0300a 	mov	r3, sl
    c40c:	eb00019f 	bl	ca90 <printk>
    c410:	e30d0c0c 	movw	r0, #56332	; 0xdc0c
    c414:	e1a0100c 	mov	r1, ip
    c418:	e3400000 	movt	r0, #0
    c41c:	e1a0300b 	mov	r3, fp
    c420:	e1a0200d 	mov	r2, sp
    c424:	e28dd00c 	add	sp, sp, #12
    c428:	e8bd4ff0 	pop	{r4, r5, r6, r7, r8, r9, sl, fp, lr}
    c42c:	ea000197 	b	ca90 <printk>

0000c430 <dump_memory>:
    c430:	e92d47f0 	push	{r4, r5, r6, r7, r8, r9, sl, lr}
    c434:	e2516000 	subs	r6, r1, #0
    c438:	08bd87f0 	popeq	{r4, r5, r6, r7, r8, r9, sl, pc}
    c43c:	e30d9c28 	movw	r9, #56360	; 0xdc28
    c440:	e30d8c30 	movw	r8, #56368	; 0xdc30
    c444:	e3409000 	movt	r9, #0
    c448:	e1a07000 	mov	r7, r0
    c44c:	e3408000 	movt	r8, #0
    c450:	e3a04000 	mov	r4, #0
    c454:	ea000004 	b	c46c <dump_memory+0x3c>
    c458:	e5d51000 	ldrb	r1, [r5]
    c45c:	e1a00008 	mov	r0, r8
    c460:	eb00018a 	bl	ca90 <printk>
    c464:	e1560004 	cmp	r6, r4
    c468:	08bd87f0 	popeq	{r4, r5, r6, r7, r8, r9, sl, pc}
    c46c:	e0845007 	add	r5, r4, r7
    c470:	e314000f 	tst	r4, #15
    c474:	e2844001 	add	r4, r4, #1
    c478:	1afffff6 	bne	c458 <dump_memory+0x28>
    c47c:	e1a01005 	mov	r1, r5
    c480:	e1a00009 	mov	r0, r9
    c484:	eb000181 	bl	ca90 <printk>
    c488:	eafffff2 	b	c458 <dump_memory+0x28>

0000c48c <time_since_boot>:
    c48c:	e3083750 	movw	r3, #34640	; 0x8750
    c490:	e3403002 	movt	r3, #2
    c494:	e5930000 	ldr	r0, [r3]
    c498:	e1a00320 	lsr	r0, r0, #6
    c49c:	e12fff1e 	bx	lr

0000c4a0 <ticks_since_boot>:
    c4a0:	e3083750 	movw	r3, #34640	; 0x8750
    c4a4:	e3403002 	movt	r3, #2
    c4a8:	e5930000 	ldr	r0, [r3]
    c4ac:	e12fff1e 	bx	lr

0000c4b0 <memcpy>:
    c4b0:	e3520000 	cmp	r2, #0
    c4b4:	012fff1e 	bxeq	lr
    c4b8:	e080c002 	add	ip, r0, r2
    c4bc:	e2411001 	sub	r1, r1, #1
    c4c0:	e1a03000 	mov	r3, r0
    c4c4:	e5f12001 	ldrb	r2, [r1, #1]!
    c4c8:	e4c32001 	strb	r2, [r3], #1
    c4cc:	e153000c 	cmp	r3, ip
    c4d0:	1afffffb 	bne	c4c4 <memcpy+0x14>
    c4d4:	e12fff1e 	bx	lr

0000c4d8 <memcpy_4byte>:
    c4d8:	e92d4010 	push	{r4, lr}
    c4dc:	e202e003 	and	lr, r2, #3
    c4e0:	e1b04122 	lsrs	r4, r2, #2
    c4e4:	0a000006 	beq	c504 <memcpy_4byte+0x2c>
    c4e8:	e1a03001 	mov	r3, r1
    c4ec:	e2402004 	sub	r2, r0, #4
    c4f0:	e0814104 	add	r4, r1, r4, lsl #2
    c4f4:	e493c004 	ldr	ip, [r3], #4
    c4f8:	e1530004 	cmp	r3, r4
    c4fc:	e5a2c004 	str	ip, [r2, #4]!
    c500:	1afffffb 	bne	c4f4 <memcpy_4byte+0x1c>
    c504:	e35e0000 	cmp	lr, #0
    c508:	08bd8010 	popeq	{r4, pc}
    c50c:	e081200e 	add	r2, r1, lr
    c510:	e2403001 	sub	r3, r0, #1
    c514:	e4d1c001 	ldrb	ip, [r1], #1
    c518:	e1520001 	cmp	r2, r1
    c51c:	e5e3c001 	strb	ip, [r3, #1]!
    c520:	1afffffb 	bne	c514 <memcpy_4byte+0x3c>
    c524:	e8bd8010 	pop	{r4, pc}

0000c528 <memset_byte>:
    c528:	e3520000 	cmp	r2, #0
    c52c:	012fff1e 	bxeq	lr
    c530:	e2422001 	sub	r2, r2, #1
    c534:	e6ef1071 	uxtb	r1, r1
    c538:	e0802002 	add	r2, r0, r2
    c53c:	e2403001 	sub	r3, r0, #1
    c540:	e5e31001 	strb	r1, [r3, #1]!
    c544:	e1530002 	cmp	r3, r2
    c548:	1afffffc 	bne	c540 <memset_byte+0x18>
    c54c:	e12fff1e 	bx	lr

0000c550 <memset_4byte>:
    c550:	e6ef1071 	uxtb	r1, r1
    c554:	e92d4030 	push	{r4, r5, lr}
    c558:	e2105003 	ands	r5, r0, #3
    c55c:	e1a0e801 	lsl	lr, r1, #16
    c560:	e18ee401 	orr	lr, lr, r1, lsl #8
    c564:	e18ee001 	orr	lr, lr, r1
    c568:	e18eec01 	orr	lr, lr, r1, lsl #24
    c56c:	0a000018 	beq	c5d4 <memset_4byte+0x84>
    c570:	e265c004 	rsb	ip, r5, #4
    c574:	e1a03000 	mov	r3, r0
    c578:	e080c00c 	add	ip, r0, ip
    c57c:	e4c31001 	strb	r1, [r3], #1
    c580:	e153000c 	cmp	r3, ip
    c584:	1afffffc 	bne	c57c <memset_4byte+0x2c>
    c588:	e2424001 	sub	r4, r2, #1
    c58c:	e1b04124 	lsrs	r4, r4, #2
    c590:	0a000007 	beq	c5b4 <memset_4byte+0x64>
    c594:	e2433004 	sub	r3, r3, #4
    c598:	e3a0c000 	mov	ip, #0
    c59c:	e5a3e004 	str	lr, [r3, #4]!
    c5a0:	e28cc001 	add	ip, ip, #1
    c5a4:	e15c0004 	cmp	ip, r4
    c5a8:	3afffffb 	bcc	c59c <memset_4byte+0x4c>
    c5ac:	e3550000 	cmp	r5, #0
    c5b0:	08bd8030 	popeq	{r4, r5, pc}
    c5b4:	e0422005 	sub	r2, r2, r5
    c5b8:	e080c002 	add	ip, r0, r2
    c5bc:	e1a0300c 	mov	r3, ip
    c5c0:	e4c31001 	strb	r1, [r3], #1
    c5c4:	e043200c 	sub	r2, r3, ip
    c5c8:	e1520005 	cmp	r2, r5
    c5cc:	3afffffb 	bcc	c5c0 <memset_4byte+0x70>
    c5d0:	e8bd8030 	pop	{r4, r5, pc}
    c5d4:	e1b04122 	lsrs	r4, r2, #2
    c5d8:	08bd8030 	popeq	{r4, r5, pc}
    c5dc:	e1a03000 	mov	r3, r0
    c5e0:	eaffffeb 	b	c594 <memset_4byte+0x44>

0000c5e4 <memset>:
    c5e4:	e92d41f0 	push	{r4, r5, r6, r7, r8, lr}
    c5e8:	e2103003 	ands	r3, r0, #3
    c5ec:	e1a0c000 	mov	ip, r0
    c5f0:	0a000006 	beq	c610 <asm_memset_4bytealigned>
    c5f4:	e2522004 	subs	r2, r2, #4
    c5f8:	ba00001a 	blt	c668 <asm_memset_lessthan4>
    c5fc:	e3530002 	cmp	r3, #2
    c600:	b4cc1001 	strblt	r1, [ip], #1
    c604:	d4cc1001 	strble	r1, [ip], #1
    c608:	e4cc1001 	strb	r1, [ip], #1
    c60c:	e0822003 	add	r2, r2, r3

0000c610 <asm_memset_4bytealigned>:
    c610:	e1811401 	orr	r1, r1, r1, lsl #8
    c614:	e1811801 	orr	r1, r1, r1, lsl #16
    c618:	e1a03001 	mov	r3, r1
    c61c:	e1a04001 	mov	r4, r1
    c620:	e1a05001 	mov	r5, r1
    c624:	e1a06001 	mov	r6, r1
    c628:	e1a07001 	mov	r7, r1
    c62c:	e1a08001 	mov	r8, r1
    c630:	e1a0e001 	mov	lr, r1

0000c634 <asm_memset_loop>:
    c634:	e2522040 	subs	r2, r2, #64	; 0x40
    c638:	a8ac41fa 	stmiage	ip!, {r1, r3, r4, r5, r6, r7, r8, lr}
    c63c:	a8ac41fa 	stmiage	ip!, {r1, r3, r4, r5, r6, r7, r8, lr}
    c640:	cafffffb 	bgt	c634 <asm_memset_loop>
    c644:	0a00000c 	beq	c67c <asm_memset_done>
    c648:	e3120020 	tst	r2, #32
    c64c:	18ac41fa 	stmiane	ip!, {r1, r3, r4, r5, r6, r7, r8, lr}
    c650:	e3120010 	tst	r2, #16
    c654:	18ac00f0 	stmiane	ip!, {r4, r5, r6, r7}
    c658:	e3120008 	tst	r2, #8
    c65c:	18ac000a 	stmiane	ip!, {r1, r3}
    c660:	e3120004 	tst	r2, #4
    c664:	148c1004 	strne	r1, [ip], #4

0000c668 <asm_memset_lessthan4>:
    c668:	e3120002 	tst	r2, #2
    c66c:	14cc1001 	strbne	r1, [ip], #1
    c670:	14cc1001 	strbne	r1, [ip], #1
    c674:	e3120001 	tst	r2, #1
    c678:	14cc1001 	strbne	r1, [ip], #1

0000c67c <asm_memset_done>:
    c67c:	e8bd41f0 	pop	{r4, r5, r6, r7, r8, lr}
    c680:	e12fff1e 	bx	lr

0000c684 <vsprintf>:
    c684:	e5d13000 	ldrb	r3, [r1]
    c688:	e3530000 	cmp	r3, #0
    c68c:	0a0000fd 	beq	ca88 <vsprintf+0x404>
    c690:	e92d4ff0 	push	{r4, r5, r6, r7, r8, r9, sl, fp, lr}
    c694:	e30c9ccd 	movw	r9, #52429	; 0xcccd
    c698:	e34c9ccc 	movt	r9, #52428	; 0xcccc
    c69c:	e1a0b000 	mov	fp, r0
    c6a0:	e24dd024 	sub	sp, sp, #36	; 0x24
    c6a4:	e1a08002 	mov	r8, r2
    c6a8:	e3a00000 	mov	r0, #0
    c6ac:	e3a0a00a 	mov	sl, #10
    c6b0:	ea000009 	b	c6dc <vsprintf+0x58>
    c6b4:	e7cb3000 	strb	r3, [fp, r0]
    c6b8:	e2800001 	add	r0, r0, #1
    c6bc:	e3500c01 	cmp	r0, #256	; 0x100
    c6c0:	0a0000ac 	beq	c978 <vsprintf+0x2f4>
    c6c4:	e2811001 	add	r1, r1, #1
    c6c8:	e35000ff 	cmp	r0, #255	; 0xff
    c6cc:	0a000038 	beq	c7b4 <vsprintf+0x130>
    c6d0:	e5d13000 	ldrb	r3, [r1]
    c6d4:	e3530000 	cmp	r3, #0
    c6d8:	0a000035 	beq	c7b4 <vsprintf+0x130>
    c6dc:	e3530025 	cmp	r3, #37	; 0x25
    c6e0:	1afffff3 	bne	c6b4 <vsprintf+0x30>
    c6e4:	e5d1c001 	ldrb	ip, [r1, #1]
    c6e8:	e24c2030 	sub	r2, ip, #48	; 0x30
    c6ec:	e6ef2072 	uxtb	r2, r2
    c6f0:	e3520009 	cmp	r2, #9
    c6f4:	9a000049 	bls	c820 <vsprintf+0x19c>
    c6f8:	e2811001 	add	r1, r1, #1
    c6fc:	e3a02000 	mov	r2, #0
    c700:	e3a03020 	mov	r3, #32
    c704:	e58d3004 	str	r3, [sp, #4]
    c708:	e35c0069 	cmp	ip, #105	; 0x69
    c70c:	135c0064 	cmpne	ip, #100	; 0x64
    c710:	1a000029 	bne	c7bc <vsprintf+0x138>
    c714:	e498c004 	ldr	ip, [r8], #4
    c718:	e2811001 	add	r1, r1, #1
    c71c:	e35c0000 	cmp	ip, #0
    c720:	a3a07000 	movge	r7, #0
    c724:	ba000050 	blt	c86c <vsprintf+0x1e8>
    c728:	e2877009 	add	r7, r7, #9
    c72c:	e28d6016 	add	r6, sp, #22
    c730:	e3a05009 	mov	r5, #9
    c734:	e0843c99 	umull	r3, r4, r9, ip
    c738:	e1a0e005 	mov	lr, r5
    c73c:	e35c0009 	cmp	ip, #9
    c740:	e1a041a4 	lsr	r4, r4, #3
    c744:	e2455001 	sub	r5, r5, #1
    c748:	e063c49a 	mls	r3, sl, r4, ip
    c74c:	e1a0c004 	mov	ip, r4
    c750:	e0474005 	sub	r4, r7, r5
    c754:	e2833030 	add	r3, r3, #48	; 0x30
    c758:	e6ef3073 	uxtb	r3, r3
    c75c:	e6ef4074 	uxtb	r4, r4
    c760:	e5663001 	strb	r3, [r6, #-1]!
    c764:	8afffff2 	bhi	c734 <vsprintf+0xb0>
    c768:	e1520004 	cmp	r2, r4
    c76c:	8a000046 	bhi	c88c <vsprintf+0x208>
    c770:	e28ec001 	add	ip, lr, #1
    c774:	e2402001 	sub	r2, r0, #1
    c778:	e08b2002 	add	r2, fp, r2
    c77c:	e28d400c 	add	r4, sp, #12
    c780:	e084c00c 	add	ip, r4, ip
    c784:	e26ee00a 	rsb	lr, lr, #10
    c788:	e08ee000 	add	lr, lr, r0
    c78c:	ea000000 	b	c794 <vsprintf+0x110>
    c790:	e4dc3001 	ldrb	r3, [ip], #1
    c794:	e5e23001 	strb	r3, [r2, #1]!
    c798:	e2800001 	add	r0, r0, #1
    c79c:	e3500c01 	cmp	r0, #256	; 0x100
    c7a0:	0affffca 	beq	c6d0 <vsprintf+0x4c>
    c7a4:	e15e0000 	cmp	lr, r0
    c7a8:	1afffff8 	bne	c790 <vsprintf+0x10c>
    c7ac:	e35000ff 	cmp	r0, #255	; 0xff
    c7b0:	1affffc6 	bne	c6d0 <vsprintf+0x4c>
    c7b4:	e28dd024 	add	sp, sp, #36	; 0x24
    c7b8:	e8bd8ff0 	pop	{r4, r5, r6, r7, r8, r9, sl, fp, pc}
    c7bc:	e35c006c 	cmp	ip, #108	; 0x6c
    c7c0:	0a00006f 	beq	c984 <vsprintf+0x300>
    c7c4:	e20c30f7 	and	r3, ip, #247	; 0xf7
    c7c8:	e3530070 	cmp	r3, #112	; 0x70
    c7cc:	0a000041 	beq	c8d8 <vsprintf+0x254>
    c7d0:	e35c0063 	cmp	ip, #99	; 0x63
    c7d4:	0a000061 	beq	c960 <vsprintf+0x2dc>
    c7d8:	e35c0025 	cmp	ip, #37	; 0x25
    c7dc:	0a00008f 	beq	ca20 <vsprintf+0x39c>
    c7e0:	e35c0073 	cmp	ip, #115	; 0x73
    c7e4:	1affffb7 	bne	c6c8 <vsprintf+0x44>
    c7e8:	e498c004 	ldr	ip, [r8], #4
    c7ec:	e2402001 	sub	r2, r0, #1
    c7f0:	e08b2002 	add	r2, fp, r2
    c7f4:	e2811001 	add	r1, r1, #1
    c7f8:	e04cc000 	sub	ip, ip, r0
    c7fc:	ea000003 	b	c810 <vsprintf+0x18c>
    c800:	e5e23001 	strb	r3, [r2, #1]!
    c804:	e2800001 	add	r0, r0, #1
    c808:	e3500c01 	cmp	r0, #256	; 0x100
    c80c:	0affffaf 	beq	c6d0 <vsprintf+0x4c>
    c810:	e7dc3000 	ldrb	r3, [ip, r0]
    c814:	e3530000 	cmp	r3, #0
    c818:	1afffff8 	bne	c800 <vsprintf+0x17c>
    c81c:	eaffffa9 	b	c6c8 <vsprintf+0x44>
    c820:	e35c0030 	cmp	ip, #48	; 0x30
    c824:	e2811002 	add	r1, r1, #2
    c828:	e5d1c000 	ldrb	ip, [r1]
    c82c:	03a0e030 	moveq	lr, #48	; 0x30
    c830:	13a0e020 	movne	lr, #32
    c834:	e58de004 	str	lr, [sp, #4]
    c838:	e24c3030 	sub	r3, ip, #48	; 0x30
    c83c:	e3530009 	cmp	r3, #9
    c840:	8affffb0 	bhi	c708 <vsprintf+0x84>
    c844:	e1a03102 	lsl	r3, r2, #2
    c848:	e0822003 	add	r2, r2, r3
    c84c:	e08c2082 	add	r2, ip, r2, lsl #1
    c850:	e5f1c001 	ldrb	ip, [r1, #1]!
    c854:	e2422030 	sub	r2, r2, #48	; 0x30
    c858:	e20220ff 	and	r2, r2, #255	; 0xff
    c85c:	e24c3030 	sub	r3, ip, #48	; 0x30
    c860:	e3530009 	cmp	r3, #9
    c864:	9afffff6 	bls	c844 <vsprintf+0x1c0>
    c868:	eaffffa6 	b	c708 <vsprintf+0x84>
    c86c:	e3a0302d 	mov	r3, #45	; 0x2d
    c870:	e7cb3000 	strb	r3, [fp, r0]
    c874:	e2800001 	add	r0, r0, #1
    c878:	e3500c01 	cmp	r0, #256	; 0x100
    c87c:	0a00003d 	beq	c978 <vsprintf+0x2f4>
    c880:	e26cc000 	rsb	ip, ip, #0
    c884:	e3a07001 	mov	r7, #1
    c888:	eaffffa6 	b	c728 <vsprintf+0xa4>
    c88c:	e0424004 	sub	r4, r2, r4
    c890:	e3540000 	cmp	r4, #0
    c894:	daffffb5 	ble	c770 <vsprintf+0xec>
    c898:	e59d5004 	ldr	r5, [sp, #4]
    c89c:	e35000ff 	cmp	r0, #255	; 0xff
    c8a0:	e08bc000 	add	ip, fp, r0
    c8a4:	e2802001 	add	r2, r0, #1
    c8a8:	e7cb5000 	strb	r5, [fp, r0]
    c8ac:	0a000007 	beq	c8d0 <vsprintf+0x24c>
    c8b0:	e0840000 	add	r0, r4, r0
    c8b4:	e1a04005 	mov	r4, r5
    c8b8:	e1500002 	cmp	r0, r2
    c8bc:	e2822001 	add	r2, r2, #1
    c8c0:	0affffaa 	beq	c770 <vsprintf+0xec>
    c8c4:	e5ec4001 	strb	r4, [ip, #1]!
    c8c8:	e3520c01 	cmp	r2, #256	; 0x100
    c8cc:	1afffff9 	bne	c8b8 <vsprintf+0x234>
    c8d0:	e3a00c01 	mov	r0, #256	; 0x100
    c8d4:	eaffffa5 	b	c770 <vsprintf+0xec>
    c8d8:	e4983004 	ldr	r3, [r8], #4
    c8dc:	e2811001 	add	r1, r1, #1
    c8e0:	e28d5016 	add	r5, sp, #22
    c8e4:	e3a0c009 	mov	ip, #9
    c8e8:	ea000000 	b	c8f0 <vsprintf+0x26c>
    c8ec:	e1a0c006 	mov	ip, r6
    c8f0:	e203400f 	and	r4, r3, #15
    c8f4:	e24c6001 	sub	r6, ip, #1
    c8f8:	e3540009 	cmp	r4, #9
    c8fc:	e284e057 	add	lr, r4, #87	; 0x57
    c900:	9284e030 	addls	lr, r4, #48	; 0x30
    c904:	e353000f 	cmp	r3, #15
    c908:	e565e001 	strb	lr, [r5, #-1]!
    c90c:	e26c400a 	rsb	r4, ip, #10
    c910:	e1a03223 	lsr	r3, r3, #4
    c914:	e6ef7074 	uxtb	r7, r4
    c918:	8afffff3 	bhi	c8ec <vsprintf+0x268>
    c91c:	e1520007 	cmp	r2, r7
    c920:	8a000044 	bhi	ca38 <vsprintf+0x3b4>
    c924:	e0844000 	add	r4, r4, r0
    c928:	e28d300c 	add	r3, sp, #12
    c92c:	e28cc001 	add	ip, ip, #1
    c930:	e083c00c 	add	ip, r3, ip
    c934:	e2403001 	sub	r3, r0, #1
    c938:	e08b3003 	add	r3, fp, r3
    c93c:	ea000000 	b	c944 <vsprintf+0x2c0>
    c940:	e4dce001 	ldrb	lr, [ip], #1
    c944:	e5e3e001 	strb	lr, [r3, #1]!
    c948:	e2800001 	add	r0, r0, #1
    c94c:	e3500c01 	cmp	r0, #256	; 0x100
    c950:	0affff5e 	beq	c6d0 <vsprintf+0x4c>
    c954:	e1500004 	cmp	r0, r4
    c958:	1afffff8 	bne	c940 <vsprintf+0x2bc>
    c95c:	eaffff59 	b	c6c8 <vsprintf+0x44>
    c960:	e4983004 	ldr	r3, [r8], #4
    c964:	e2811001 	add	r1, r1, #1
    c968:	e7cb3000 	strb	r3, [fp, r0]
    c96c:	e2800001 	add	r0, r0, #1
    c970:	e3500c01 	cmp	r0, #256	; 0x100
    c974:	1affff53 	bne	c6c8 <vsprintf+0x44>
    c978:	e3a00c01 	mov	r0, #256	; 0x100
    c97c:	e28dd024 	add	sp, sp, #36	; 0x24
    c980:	e8bd8ff0 	pop	{r4, r5, r6, r7, r8, r9, sl, fp, pc}
    c984:	e2888007 	add	r8, r8, #7
    c988:	e2811003 	add	r1, r1, #3
    c98c:	e3c88007 	bic	r8, r8, #7
    c990:	e28d501e 	add	r5, sp, #30
    c994:	e3a04011 	mov	r4, #17
    c998:	e5982004 	ldr	r2, [r8, #4]
    c99c:	e4983008 	ldr	r3, [r8], #8
    c9a0:	ea000000 	b	c9a8 <vsprintf+0x324>
    c9a4:	e1a0400e 	mov	r4, lr
    c9a8:	e203e00f 	and	lr, r3, #15
    c9ac:	e3a06000 	mov	r6, #0
    c9b0:	e35e000a 	cmp	lr, #10
    c9b4:	e28ec057 	add	ip, lr, #87	; 0x57
    c9b8:	e2d66000 	sbcs	r6, r6, #0
    c9bc:	328ec030 	addcc	ip, lr, #48	; 0x30
    c9c0:	e3530010 	cmp	r3, #16
    c9c4:	e2d2e000 	sbcs	lr, r2, #0
    c9c8:	e244e001 	sub	lr, r4, #1
    c9cc:	e1a03223 	lsr	r3, r3, #4
    c9d0:	e1833e02 	orr	r3, r3, r2, lsl #28
    c9d4:	e565c001 	strb	ip, [r5, #-1]!
    c9d8:	e1a02222 	lsr	r2, r2, #4
    c9dc:	2afffff0 	bcs	c9a4 <vsprintf+0x320>
    c9e0:	e2842001 	add	r2, r4, #1
    c9e4:	e28de00c 	add	lr, sp, #12
    c9e8:	e08e2002 	add	r2, lr, r2
    c9ec:	e2403001 	sub	r3, r0, #1
    c9f0:	e08b3003 	add	r3, fp, r3
    c9f4:	e280e012 	add	lr, r0, #18
    c9f8:	e04e4004 	sub	r4, lr, r4
    c9fc:	ea000000 	b	ca04 <vsprintf+0x380>
    ca00:	e4d2c001 	ldrb	ip, [r2], #1
    ca04:	e5e3c001 	strb	ip, [r3, #1]!
    ca08:	e2800001 	add	r0, r0, #1
    ca0c:	e3500c01 	cmp	r0, #256	; 0x100
    ca10:	0affff2e 	beq	c6d0 <vsprintf+0x4c>
    ca14:	e1500004 	cmp	r0, r4
    ca18:	1afffff8 	bne	ca00 <vsprintf+0x37c>
    ca1c:	eaffff29 	b	c6c8 <vsprintf+0x44>
    ca20:	e7cbc000 	strb	ip, [fp, r0]
    ca24:	e2800001 	add	r0, r0, #1
    ca28:	e3500c01 	cmp	r0, #256	; 0x100
    ca2c:	e2811001 	add	r1, r1, #1
    ca30:	1affff24 	bne	c6c8 <vsprintf+0x44>
    ca34:	eaffffcf 	b	c978 <vsprintf+0x2f4>
    ca38:	e0422007 	sub	r2, r2, r7
    ca3c:	e3520000 	cmp	r2, #0
    ca40:	daffffb7 	ble	c924 <vsprintf+0x2a0>
    ca44:	e59d6004 	ldr	r6, [sp, #4]
    ca48:	e35000ff 	cmp	r0, #255	; 0xff
    ca4c:	e08b5000 	add	r5, fp, r0
    ca50:	e2803001 	add	r3, r0, #1
    ca54:	e7cb6000 	strb	r6, [fp, r0]
    ca58:	0a000008 	beq	ca80 <vsprintf+0x3fc>
    ca5c:	e0820000 	add	r0, r2, r0
    ca60:	e1a02005 	mov	r2, r5
    ca64:	e1a05006 	mov	r5, r6
    ca68:	e1530000 	cmp	r3, r0
    ca6c:	e2833001 	add	r3, r3, #1
    ca70:	0affffab 	beq	c924 <vsprintf+0x2a0>
    ca74:	e5e25001 	strb	r5, [r2, #1]!
    ca78:	e3530c01 	cmp	r3, #256	; 0x100
    ca7c:	1afffff9 	bne	ca68 <vsprintf+0x3e4>
    ca80:	e3a00c01 	mov	r0, #256	; 0x100
    ca84:	eaffffa6 	b	c924 <vsprintf+0x2a0>
    ca88:	e1a00003 	mov	r0, r3
    ca8c:	e12fff1e 	bx	lr

0000ca90 <printk>:
    ca90:	e92d000f 	push	{r0, r1, r2, r3}
    ca94:	e92d4010 	push	{r4, lr}
    ca98:	e24ddf42 	sub	sp, sp, #264	; 0x108
    ca9c:	e28d2f45 	add	r2, sp, #276	; 0x114
    caa0:	e28d0008 	add	r0, sp, #8
    caa4:	e59d1110 	ldr	r1, [sp, #272]	; 0x110
    caa8:	e58d2004 	str	r2, [sp, #4]
    caac:	ebfffef4 	bl	c684 <vsprintf>
    cab0:	e1a04000 	mov	r4, r0
    cab4:	e28d0008 	add	r0, sp, #8
    cab8:	e1a01004 	mov	r1, r4
    cabc:	ebfff70f 	bl	a700 <console_write>
    cac0:	e1a00004 	mov	r0, r4
    cac4:	e28ddf42 	add	sp, sp, #264	; 0x108
    cac8:	e8bd4010 	pop	{r4, lr}
    cacc:	e28dd010 	add	sp, sp, #16
    cad0:	e12fff1e 	bx	lr

0000cad4 <serial_printk>:
    cad4:	e92d000f 	push	{r0, r1, r2, r3}
    cad8:	e92d4010 	push	{r4, lr}
    cadc:	e24ddf42 	sub	sp, sp, #264	; 0x108
    cae0:	e28d2f45 	add	r2, sp, #276	; 0x114
    cae4:	e28d0008 	add	r0, sp, #8
    cae8:	e59d1110 	ldr	r1, [sp, #272]	; 0x110
    caec:	e58d2004 	str	r2, [sp, #4]
    caf0:	ebfffee3 	bl	c684 <vsprintf>
    caf4:	e1a04000 	mov	r4, r0
    caf8:	e28d0008 	add	r0, sp, #8
    cafc:	e1a01004 	mov	r1, r4
    cb00:	ebfff79b 	bl	a974 <serial_write>
    cb04:	e1a00004 	mov	r0, r4
    cb08:	e28ddf42 	add	sp, sp, #264	; 0x108
    cb0c:	e8bd4010 	pop	{r4, lr}
    cb10:	e28dd010 	add	sp, sp, #16
    cb14:	e12fff1e 	bx	lr

0000cb18 <sprintf>:
    cb18:	e92d000e 	push	{r1, r2, r3}
    cb1c:	e92d4010 	push	{r4, lr}
    cb20:	e24dd00c 	sub	sp, sp, #12
    cb24:	e28d2018 	add	r2, sp, #24
    cb28:	e1a04000 	mov	r4, r0
    cb2c:	e59d1014 	ldr	r1, [sp, #20]
    cb30:	e58d2004 	str	r2, [sp, #4]
    cb34:	ebfffed2 	bl	c684 <vsprintf>
    cb38:	e3a02000 	mov	r2, #0
    cb3c:	e7c42000 	strb	r2, [r4, r0]
    cb40:	e28dd00c 	add	sp, sp, #12
    cb44:	e8bd4010 	pop	{r4, lr}
    cb48:	e28dd00c 	add	sp, sp, #12
    cb4c:	e12fff1e 	bx	lr

0000cb50 <strncmp>:
    cb50:	e3520000 	cmp	r2, #0
    cb54:	0a00000c 	beq	cb8c <strncmp+0x3c>
    cb58:	e080c002 	add	ip, r0, r2
    cb5c:	e2411001 	sub	r1, r1, #1
    cb60:	e2402001 	sub	r2, r0, #1
    cb64:	e24cc001 	sub	ip, ip, #1
    cb68:	e5f23001 	ldrb	r3, [r2, #1]!
    cb6c:	e5f10001 	ldrb	r0, [r1, #1]!
    cb70:	e0530000 	subs	r0, r3, r0
    cb74:	112fff1e 	bxne	lr
    cb78:	e3530000 	cmp	r3, #0
    cb7c:	012fff1e 	bxeq	lr
    cb80:	e152000c 	cmp	r2, ip
    cb84:	1afffff7 	bne	cb68 <strncmp+0x18>
    cb88:	e12fff1e 	bx	lr
    cb8c:	e1a00002 	mov	r0, r2
    cb90:	e12fff1e 	bx	lr

0000cb94 <memcmp>:
    cb94:	e92d4010 	push	{r4, lr}
    cb98:	e2524000 	subs	r4, r2, #0
    cb9c:	0a00000c 	beq	cbd4 <memcmp+0x40>
    cba0:	e1a02000 	mov	r2, r0
    cba4:	e240c001 	sub	ip, r0, #1
    cba8:	e241e001 	sub	lr, r1, #1
    cbac:	e5fe1001 	ldrb	r1, [lr, #1]!
    cbb0:	e1a0300c 	mov	r3, ip
    cbb4:	e5fc0001 	ldrb	r0, [ip, #1]!
    cbb8:	e2833002 	add	r3, r3, #2
    cbbc:	e0433002 	sub	r3, r3, r2
    cbc0:	e0500001 	subs	r0, r0, r1
    cbc4:	18bd8010 	popne	{r4, pc}
    cbc8:	e1540003 	cmp	r4, r3
    cbcc:	1afffff6 	bne	cbac <memcmp+0x18>
    cbd0:	e8bd8010 	pop	{r4, pc}
    cbd4:	e1a00004 	mov	r0, r4
    cbd8:	e8bd8010 	pop	{r4, pc}

0000cbdc <strncpy>:
    cbdc:	e92d4030 	push	{r4, r5, lr}
    cbe0:	e2525000 	subs	r5, r2, #0
    cbe4:	08bd8030 	popeq	{r4, r5, pc}
    cbe8:	e2403001 	sub	r3, r0, #1
    cbec:	e241e001 	sub	lr, r1, #1
    cbf0:	e0832005 	add	r2, r3, r5
    cbf4:	e2604001 	rsb	r4, r0, #1
    cbf8:	ea000001 	b	cc04 <strncpy+0x28>
    cbfc:	e1530002 	cmp	r3, r2
    cc00:	08bd8030 	popeq	{r4, r5, pc}
    cc04:	e5fec001 	ldrb	ip, [lr, #1]!
    cc08:	e0841003 	add	r1, r4, r3
    cc0c:	e5e3c001 	strb	ip, [r3, #1]!
    cc10:	e35c0000 	cmp	ip, #0
    cc14:	1afffff8 	bne	cbfc <strncpy+0x20>
    cc18:	e1550001 	cmp	r5, r1
    cc1c:	98bd8030 	popls	{r4, r5, pc}
    cc20:	e2413001 	sub	r3, r1, #1
    cc24:	e0803003 	add	r3, r0, r3
    cc28:	e5e3c001 	strb	ip, [r3, #1]!
    cc2c:	e1530002 	cmp	r3, r2
    cc30:	1afffffc 	bne	cc28 <strncpy+0x4c>
    cc34:	e8bd8030 	pop	{r4, r5, pc}

0000cc38 <strlcpy>:
    cc38:	e2522001 	subs	r2, r2, #1
    cc3c:	e92d4010 	push	{r4, lr}
    cc40:	e1a04000 	mov	r4, r0
    cc44:	0a000011 	beq	cc90 <strlcpy+0x58>
    cc48:	e1a0e000 	mov	lr, r0
    cc4c:	e241c001 	sub	ip, r1, #1
    cc50:	e3a00000 	mov	r0, #0
    cc54:	ea000002 	b	cc64 <strlcpy+0x2c>
    cc58:	e2800001 	add	r0, r0, #1
    cc5c:	e1500002 	cmp	r0, r2
    cc60:	0a000008 	beq	cc88 <strlcpy+0x50>
    cc64:	e5fc1001 	ldrb	r1, [ip, #1]!
    cc68:	e1a0300e 	mov	r3, lr
    cc6c:	e28ee001 	add	lr, lr, #1
    cc70:	e54e1001 	strb	r1, [lr, #-1]
    cc74:	e3510000 	cmp	r1, #0
    cc78:	1afffff6 	bne	cc58 <strlcpy+0x20>
    cc7c:	e3a02000 	mov	r2, #0
    cc80:	e5c32000 	strb	r2, [r3]
    cc84:	e8bd8010 	pop	{r4, pc}
    cc88:	e0843000 	add	r3, r4, r0
    cc8c:	eafffffa 	b	cc7c <strlcpy+0x44>
    cc90:	e1a03000 	mov	r3, r0
    cc94:	e1a00002 	mov	r0, r2
    cc98:	eafffff7 	b	cc7c <strlcpy+0x44>

0000cc9c <strncat>:
    cc9c:	e92d4030 	push	{r4, r5, lr}
    cca0:	e5d05000 	ldrb	r5, [r0]
    cca4:	e3550000 	cmp	r5, #0
    cca8:	0a000020 	beq	cd30 <strncat+0x94>
    ccac:	e280e001 	add	lr, r0, #1
    ccb0:	e3a03000 	mov	r3, #0
    ccb4:	e5de4000 	ldrb	r4, [lr]
    ccb8:	e2833001 	add	r3, r3, #1
    ccbc:	e1a0c00e 	mov	ip, lr
    ccc0:	e1a05003 	mov	r5, r3
    ccc4:	e3540000 	cmp	r4, #0
    ccc8:	e28ee001 	add	lr, lr, #1
    cccc:	1afffff8 	bne	ccb4 <strncat+0x18>
    ccd0:	e3520000 	cmp	r2, #0
    ccd4:	0a00000f 	beq	cd18 <strncat+0x7c>
    ccd8:	e0814002 	add	r4, r1, r2
    ccdc:	e2412001 	sub	r2, r1, #1
    cce0:	e080e005 	add	lr, r0, r5
    cce4:	e2444001 	sub	r4, r4, #1
    cce8:	ea000001 	b	ccf4 <strncat+0x58>
    ccec:	e1520004 	cmp	r2, r4
    ccf0:	0a00000b 	beq	cd24 <strncat+0x88>
    ccf4:	e1a03002 	mov	r3, r2
    ccf8:	e5f2c001 	ldrb	ip, [r2, #1]!
    ccfc:	e2833002 	add	r3, r3, #2
    cd00:	e0433001 	sub	r3, r3, r1
    cd04:	e5cec000 	strb	ip, [lr]
    cd08:	e35c0000 	cmp	ip, #0
    cd0c:	e1a0c00e 	mov	ip, lr
    cd10:	e28ee001 	add	lr, lr, #1
    cd14:	1afffff4 	bne	ccec <strncat+0x50>
    cd18:	e3a03000 	mov	r3, #0
    cd1c:	e5cc3000 	strb	r3, [ip]
    cd20:	e8bd8030 	pop	{r4, r5, pc}
    cd24:	e0853003 	add	r3, r5, r3
    cd28:	e080c003 	add	ip, r0, r3
    cd2c:	eafffff9 	b	cd18 <strncat+0x7c>
    cd30:	e1a0c000 	mov	ip, r0
    cd34:	eaffffe5 	b	ccd0 <strncat+0x34>

0000cd38 <strlen>:
    cd38:	e1a03000 	mov	r3, r0
    cd3c:	e5d00000 	ldrb	r0, [r0]
    cd40:	e3500000 	cmp	r0, #0
    cd44:	012fff1e 	bxeq	lr
    cd48:	e2631001 	rsb	r1, r3, #1
    cd4c:	e0810003 	add	r0, r1, r3
    cd50:	e5f32001 	ldrb	r2, [r3, #1]!
    cd54:	e3520000 	cmp	r2, #0
    cd58:	1afffffb 	bne	cd4c <strlen+0x14>
    cd5c:	e12fff1e 	bx	lr
